In archive rustlib.a:

aligned-be062abff940bd17.aligned.av1qgrjm-cgu.0.rcgu.o:     file format elf32-littlearm

SYMBOL TABLE:
00000000 l    df *ABS*	00000000 aligned.av1qgrjm-cgu.0



app-65c720a40574e4de.app.o6vxcoia-cgu.0.rcgu.o:     file format elf32-littlearm

SYMBOL TABLE:
00000000 l    df *ABS*	00000000 app.o6vxcoia-cgu.0
0000221e l       .debug_str	00000000 
00002b08 l       .debug_str	00000000 
00002b32 l       .debug_str	00000000 
00002b3b l       .debug_str	00000000 
00002bab l       .debug_str	00000000 
00002bfe l       .debug_str	00000000 
00002c4d l       .debug_str	00000000 
00002c8d l       .debug_str	00000000 
00002cb4 l       .debug_str	00000000 
00002cb6 l       .debug_str	00000000 
00002cb8 l       .debug_str	00000000 
00002cc2 l       .debug_str	00000000 
00002ccb l       .debug_str	00000000 
00002cd4 l       .debug_str	00000000 
00002cdf l       .debug_str	00000000 
00002ce9 l       .debug_str	00000000 
00002d10 l       .debug_str	00000000 
00002d28 l       .debug_str	00000000 
00002d32 l       .debug_str	00000000 
00002d55 l       .debug_str	00000000 
00002d9d l       .debug_str	00000000 
00002ddd l       .debug_str	00000000 
00002e24 l       .debug_str	00000000 
00002e2d l       .debug_str	00000000 
00002e31 l       .debug_str	00000000 
00002e5b l       .debug_str	00000000 
00002e60 l       .debug_str	00000000 
00002e63 l       .debug_str	00000000 
00002ead l       .debug_str	00000000 
00002eb6 l       .debug_str	00000000 
00002ee9 l       .debug_str	00000000 
00002f14 l       .debug_str	00000000 
00002f16 l       .debug_str	00000000 
00002f52 l       .debug_str	00000000 
00002f65 l       .debug_str	00000000 
00002f6a l       .debug_str	00000000 
00002f7c l       .debug_str	00000000 
00002f82 l       .debug_str	00000000 
00002f88 l       .debug_str	00000000 
00002f8a l       .debug_str	00000000 
00002f90 l       .debug_str	00000000 
00002f95 l       .debug_str	00000000 
00002fa2 l       .debug_str	00000000 
00002fa7 l       .debug_str	00000000 
00002faf l       .debug_str	00000000 
00002fb3 l       .debug_str	00000000 
00002fb8 l       .debug_str	00000000 
00002fc0 l       .debug_str	00000000 
00002fd6 l       .debug_str	00000000 
00002ff4 l       .debug_str	00000000 
00002ffd l       .debug_str	00000000 
00003002 l       .debug_str	00000000 
00003007 l       .debug_str	00000000 
0000300b l       .debug_str	00000000 
00003014 l       .debug_str	00000000 
0000301e l       .debug_str	00000000 
00003036 l       .debug_str	00000000 
00000000 l       .debug_str	00000000 
00000041 l       .debug_str	00000000 
00000055 l       .debug_str	00000000 
00000085 l       .debug_str	00000000 
00000089 l       .debug_str	00000000 
00000094 l       .debug_str	00000000 
000000a2 l       .debug_str	00000000 
000000a9 l       .debug_str	00000000 
000000b1 l       .debug_str	00000000 
000000ba l       .debug_str	00000000 
000000bd l       .debug_str	00000000 
000000c7 l       .debug_str	00000000 
000000ce l       .debug_str	00000000 
000000d4 l       .debug_str	00000000 
000000da l       .debug_str	00000000 
000000df l       .debug_str	00000000 
00000116 l       .debug_str	00000000 
0000011b l       .debug_str	00000000 
00000122 l       .debug_str	00000000 
00000125 l       .debug_str	00000000 
00000129 l       .debug_str	00000000 
00000130 l       .debug_str	00000000 
00000134 l       .debug_str	00000000 
00000137 l       .debug_str	00000000 
0000013a l       .debug_str	00000000 
0000013f l       .debug_str	00000000 
00000145 l       .debug_str	00000000 
0000014c l       .debug_str	00000000 
00000154 l       .debug_str	00000000 
0000015e l       .debug_str	00000000 
00000162 l       .debug_str	00000000 
0000016a l       .debug_str	00000000 
00000175 l       .debug_str	00000000 
00000180 l       .debug_str	00000000 
0000018d l       .debug_str	00000000 
00000198 l       .debug_str	00000000 
000001a0 l       .debug_str	00000000 
000001ab l       .debug_str	00000000 
000001b6 l       .debug_str	00000000 
000001c0 l       .debug_str	00000000 
000001cb l       .debug_str	00000000 
000001d6 l       .debug_str	00000000 
000001e3 l       .debug_str	00000000 
000001ef l       .debug_str	00000000 
000001fc l       .debug_str	00000000 
0000020a l       .debug_str	00000000 
00000214 l       .debug_str	00000000 
00000221 l       .debug_str	00000000 
0000022d l       .debug_str	00000000 
00000231 l       .debug_str	00000000 
0000023c l       .debug_str	00000000 
00000247 l       .debug_str	00000000 
0000024e l       .debug_str	00000000 
00000257 l       .debug_str	00000000 
0000025e l       .debug_str	00000000 
00000263 l       .debug_str	00000000 
0000026f l       .debug_str	00000000 
00000277 l       .debug_str	00000000 
0000027e l       .debug_str	00000000 
00000282 l       .debug_str	00000000 
00000287 l       .debug_str	00000000 
00000290 l       .debug_str	00000000 
00000295 l       .debug_str	00000000 
00000298 l       .debug_str	00000000 
0000029c l       .debug_str	00000000 
000002a5 l       .debug_str	00000000 
000002ac l       .debug_str	00000000 
000002b1 l       .debug_str	00000000 
000002b6 l       .debug_str	00000000 
000002bc l       .debug_str	00000000 
000002c2 l       .debug_str	00000000 
000002cc l       .debug_str	00000000 
000002cf l       .debug_str	00000000 
000002d5 l       .debug_str	00000000 
000002df l       .debug_str	00000000 
000002e7 l       .debug_str	00000000 
000002ed l       .debug_str	00000000 
000002f3 l       .debug_str	00000000 
000002fe l       .debug_str	00000000 
00000307 l       .debug_str	00000000 
0000032a l       .debug_str	00000000 
00000349 l       .debug_str	00000000 
0000034b l       .debug_str	00000000 
00000350 l       .debug_str	00000000 
00000377 l       .debug_str	00000000 
0000037c l       .debug_str	00000000 
00000382 l       .debug_str	00000000 
00000388 l       .debug_str	00000000 
0000038b l       .debug_str	00000000 
0000039a l       .debug_str	00000000 
000003a1 l       .debug_str	00000000 
000003a5 l       .debug_str	00000000 
000003ae l       .debug_str	00000000 
000003b6 l       .debug_str	00000000 
000003be l       .debug_str	00000000 
000003c5 l       .debug_str	00000000 
000003d9 l       .debug_str	00000000 
000003e5 l       .debug_str	00000000 
000003f1 l       .debug_str	00000000 
0000040a l       .debug_str	00000000 
0000040f l       .debug_str	00000000 
00000420 l       .debug_str	00000000 
0000042a l       .debug_str	00000000 
00000438 l       .debug_str	00000000 
0000043c l       .debug_str	00000000 
00000447 l       .debug_str	00000000 
0000044e l       .debug_str	00000000 
00000454 l       .debug_str	00000000 
00000458 l       .debug_str	00000000 
0000045c l       .debug_str	00000000 
00000464 l       .debug_str	00000000 
0000047b l       .debug_str	00000000 
0000049f l       .debug_str	00000000 
000004bb l       .debug_str	00000000 
000004c5 l       .debug_str	00000000 
000004df l       .debug_str	00000000 
0000053d l       .debug_str	00000000 
00000548 l       .debug_str	00000000 
00000565 l       .debug_str	00000000 
0000057e l       .debug_str	00000000 
00000588 l       .debug_str	00000000 
000005ba l       .debug_str	00000000 
000005c1 l       .debug_str	00000000 
000005ca l       .debug_str	00000000 
000005fe l       .debug_str	00000000 
0000060c l       .debug_str	00000000 
00000610 l       .debug_str	00000000 
00000614 l       .debug_str	00000000 
0000064d l       .debug_str	00000000 
0000065d l       .debug_str	00000000 
00000661 l       .debug_str	00000000 
00000665 l       .debug_str	00000000 
0000066a l       .debug_str	00000000 
00000670 l       .debug_str	00000000 
00000674 l       .debug_str	00000000 
00000684 l       .debug_str	00000000 
00000690 l       .debug_str	00000000 
0000069c l       .debug_str	00000000 
000006b3 l       .debug_str	00000000 
000006bf l       .debug_str	00000000 
000006c3 l       .debug_str	00000000 
000006d0 l       .debug_str	00000000 
000006dc l       .debug_str	00000000 
000006ea l       .debug_str	00000000 
00000701 l       .debug_str	00000000 
00000716 l       .debug_str	00000000 
00000719 l       .debug_str	00000000 
00000739 l       .debug_str	00000000 
00000742 l       .debug_str	00000000 
00000745 l       .debug_str	00000000 
0000074c l       .debug_str	00000000 
00000755 l       .debug_str	00000000 
0000075e l       .debug_str	00000000 
0000076a l       .debug_str	00000000 
00000772 l       .debug_str	00000000 
0000077a l       .debug_str	00000000 
00000780 l       .debug_str	00000000 
000007a3 l       .debug_str	00000000 
000007b4 l       .debug_str	00000000 
000007c0 l       .debug_str	00000000 
000007fb l       .debug_str	00000000 
0000080c l       .debug_str	00000000 
0000080e l       .debug_str	00000000 
00000836 l       .debug_str	00000000 
00000852 l       .debug_str	00000000 
00000857 l       .debug_str	00000000 
00000865 l       .debug_str	00000000 
00000877 l       .debug_str	00000000 
0000088b l       .debug_str	00000000 
0000088f l       .debug_str	00000000 
00000898 l       .debug_str	00000000 
0000089c l       .debug_str	00000000 
0000090c l       .debug_str	00000000 
0000093a l       .debug_str	00000000 
00000964 l       .debug_str	00000000 
00000969 l       .debug_str	00000000 
000009a8 l       .debug_str	00000000 
000009be l       .debug_str	00000000 
000009c4 l       .debug_str	00000000 
000009cb l       .debug_str	00000000 
000009ce l       .debug_str	00000000 
000009da l       .debug_str	00000000 
000009e2 l       .debug_str	00000000 
00000a3c l       .debug_str	00000000 
00000a9e l       .debug_str	00000000 
00000aa9 l       .debug_str	00000000 
00000af0 l       .debug_str	00000000 
00000b3f l       .debug_str	00000000 
00000b49 l       .debug_str	00000000 
00000b86 l       .debug_str	00000000 
00000bcb l       .debug_str	00000000 
00000bd4 l       .debug_str	00000000 
00000be4 l       .debug_str	00000000 
00000bec l       .debug_str	00000000 
00000c41 l       .debug_str	00000000 
00000c9e l       .debug_str	00000000 
00000caa l       .debug_str	00000000 
00000cb3 l       .debug_str	00000000 
00000cbf l       .debug_str	00000000 
00000ccb l       .debug_str	00000000 
00000cd4 l       .debug_str	00000000 
00000cdc l       .debug_str	00000000 
00000ce4 l       .debug_str	00000000 
00000cee l       .debug_str	00000000 
00000d03 l       .debug_str	00000000 
00000d0a l       .debug_str	00000000 
00000d2a l       .debug_str	00000000 
00000d31 l       .debug_str	00000000 
00000d39 l       .debug_str	00000000 
00000d43 l       .debug_str	00000000 
00000d4e l       .debug_str	00000000 
00000d57 l       .debug_str	00000000 
00000d62 l       .debug_str	00000000 
00000d6e l       .debug_str	00000000 
00000d72 l       .debug_str	00000000 
00000d7b l       .debug_str	00000000 
00000d82 l       .debug_str	00000000 
00000d8a l       .debug_str	00000000 
00000d92 l       .debug_str	00000000 
00000d9c l       .debug_str	00000000 
00000da2 l       .debug_str	00000000 
00000da9 l       .debug_str	00000000 
00000db0 l       .debug_str	00000000 
00000ddd l       .debug_str	00000000 
00000e12 l       .debug_str	00000000 
00000e18 l       .debug_str	00000000 
00000e1e l       .debug_str	00000000 
00000e2d l       .debug_str	00000000 
00000e3d l       .debug_str	00000000 
00000e4d l       .debug_str	00000000 
00000e55 l       .debug_str	00000000 
00000e7e l       .debug_str	00000000 
00000edc l       .debug_str	00000000 
00000f42 l       .debug_str	00000000 
00000f49 l       .debug_str	00000000 
00000f51 l       .debug_str	00000000 
00000f5a l       .debug_str	00000000 
00000f78 l       .debug_str	00000000 
00000f88 l       .debug_str	00000000 
00000f96 l       .debug_str	00000000 
00000fa1 l       .debug_str	00000000 
00000fae l       .debug_str	00000000 
00000fbd l       .debug_str	00000000 
00000fd3 l       .debug_str	00000000 
00000fdd l       .debug_str	00000000 
00000fe6 l       .debug_str	00000000 
00000fef l       .debug_str	00000000 
00001015 l       .debug_str	00000000 
0000102b l       .debug_str	00000000 
00001036 l       .debug_str	00000000 
0000104c l       .debug_str	00000000 
00001054 l       .debug_str	00000000 
00001075 l       .debug_str	00000000 
0000108c l       .debug_str	00000000 
00001091 l       .debug_str	00000000 
00001099 l       .debug_str	00000000 
000010a2 l       .debug_str	00000000 
000010ab l       .debug_str	00000000 
000010b4 l       .debug_str	00000000 
000010bc l       .debug_str	00000000 
000010c3 l       .debug_str	00000000 
000010cf l       .debug_str	00000000 
000010da l       .debug_str	00000000 
000010e2 l       .debug_str	00000000 
000010ea l       .debug_str	00000000 
00001166 l       .debug_str	00000000 
000011ea l       .debug_str	00000000 
000012e6 l       .debug_str	00000000 
000013ea l       .debug_str	00000000 
000013f8 l       .debug_str	00000000 
00001403 l       .debug_str	00000000 
0000140d l       .debug_str	00000000 
00001418 l       .debug_str	00000000 
00001446 l       .debug_str	00000000 
000014c1 l       .debug_str	00000000 
00001544 l       .debug_str	00000000 
00001552 l       .debug_str	00000000 
000015b1 l       .debug_str	00000000 
00001618 l       .debug_str	00000000 
0000162e l       .debug_str	00000000 
0000163e l       .debug_str	00000000 
0000164d l       .debug_str	00000000 
00001651 l       .debug_str	00000000 
00001657 l       .debug_str	00000000 
0000165d l       .debug_str	00000000 
00001663 l       .debug_str	00000000 
00001673 l       .debug_str	00000000 
000016a6 l       .debug_str	00000000 
000016e6 l       .debug_str	00000000 
0000172e l       .debug_str	00000000 
00001732 l       .debug_str	00000000 
00001738 l       .debug_str	00000000 
0000173e l       .debug_str	00000000 
00001744 l       .debug_str	00000000 
00001756 l       .debug_str	00000000 
0000178b l       .debug_str	00000000 
000017cd l       .debug_str	00000000 
00001817 l       .debug_str	00000000 
0000181b l       .debug_str	00000000 
00001821 l       .debug_str	00000000 
00001827 l       .debug_str	00000000 
0000182d l       .debug_str	00000000 
0000183f l       .debug_str	00000000 
00001874 l       .debug_str	00000000 
000018b6 l       .debug_str	00000000 
00001900 l       .debug_str	00000000 
00001904 l       .debug_str	00000000 
0000190a l       .debug_str	00000000 
00001910 l       .debug_str	00000000 
00001916 l       .debug_str	00000000 
0000191c l       .debug_str	00000000 
0000192d l       .debug_str	00000000 
00001961 l       .debug_str	00000000 
000019a2 l       .debug_str	00000000 
000019eb l       .debug_str	00000000 
000019f0 l       .debug_str	00000000 
000019f5 l       .debug_str	00000000 
000019f9 l       .debug_str	00000000 
000019ff l       .debug_str	00000000 
00001a05 l       .debug_str	00000000 
00001a0b l       .debug_str	00000000 
00001a1c l       .debug_str	00000000 
00001a50 l       .debug_str	00000000 
00001a91 l       .debug_str	00000000 
00001ada l       .debug_str	00000000 
00001ade l       .debug_str	00000000 
00001b12 l       .debug_str	00000000 
00001b53 l       .debug_str	00000000 
00001b9c l       .debug_str	00000000 
00001ba1 l       .debug_str	00000000 
00001ba5 l       .debug_str	00000000 
00001bae l       .debug_str	00000000 
00001bb5 l       .debug_str	00000000 
00001bbd l       .debug_str	00000000 
00001bcf l       .debug_str	00000000 
00001c04 l       .debug_str	00000000 
00001c46 l       .debug_str	00000000 
00001c90 l       .debug_str	00000000 
00001c94 l       .debug_str	00000000 
00001c9a l       .debug_str	00000000 
00001ca0 l       .debug_str	00000000 
00001ca6 l       .debug_str	00000000 
00001cac l       .debug_str	00000000 
00001cb4 l       .debug_str	00000000 
00001cc2 l       .debug_str	00000000 
00001cd1 l       .debug_str	00000000 
00001ce2 l       .debug_str	00000000 
00001ced l       .debug_str	00000000 
00001cf8 l       .debug_str	00000000 
00001d03 l       .debug_str	00000000 
00001d0a l       .debug_str	00000000 
00001d2d l       .debug_str	00000000 
00001d3f l       .debug_str	00000000 
00001d74 l       .debug_str	00000000 
00001db6 l       .debug_str	00000000 
00001e00 l       .debug_str	00000000 
00001e04 l       .debug_str	00000000 
00001e0e l       .debug_str	00000000 
00001e20 l       .debug_str	00000000 
00001e55 l       .debug_str	00000000 
00001e97 l       .debug_str	00000000 
00001ee1 l       .debug_str	00000000 
00001ee6 l       .debug_str	00000000 
00001ef0 l       .debug_str	00000000 
00001f02 l       .debug_str	00000000 
00001f37 l       .debug_str	00000000 
00001f79 l       .debug_str	00000000 
00001fc3 l       .debug_str	00000000 
00001fd7 l       .debug_str	00000000 
00001fe5 l       .debug_str	00000000 
00001ff5 l       .debug_str	00000000 
00001ffe l       .debug_str	00000000 
00002009 l       .debug_str	00000000 
00002018 l       .debug_str	00000000 
0000202d l       .debug_str	00000000 
0000205e l       .debug_str	00000000 
000020fb l       .debug_str	00000000 
000021a0 l       .debug_str	00000000 
000021ab l       .debug_str	00000000 
000021b4 l       .debug_str	00000000 
000021d5 l       .debug_str	00000000 
000021e8 l       .debug_str	00000000 
000022a1 l       .debug_str	00000000 
0000232c l       .debug_str	00000000 
00002348 l       .debug_str	00000000 
00002394 l       .debug_str	00000000 
000023e8 l       .debug_str	00000000 
00002405 l       .debug_str	00000000 
00002419 l       .debug_str	00000000 
00002465 l       .debug_str	00000000 
000024b9 l       .debug_str	00000000 
000024cf l       .debug_str	00000000 
000024e3 l       .debug_str	00000000 
0000252a l       .debug_str	00000000 
00002579 l       .debug_str	00000000 
00002582 l       .debug_str	00000000 
00002590 l       .debug_str	00000000 
000025c1 l       .debug_str	00000000 
000025c7 l       .debug_str	00000000 
000025cf l       .debug_str	00000000 
000025d6 l       .debug_str	00000000 
000025de l       .debug_str	00000000 
000025e9 l       .debug_str	00000000 
000025f1 l       .debug_str	00000000 
00002600 l       .debug_str	00000000 
00002604 l       .debug_str	00000000 
0000260f l       .debug_str	00000000 
0000261b l       .debug_str	00000000 
00002626 l       .debug_str	00000000 
00002637 l       .debug_str	00000000 
0000263d l       .debug_str	00000000 
00002645 l       .debug_str	00000000 
0000264c l       .debug_str	00000000 
00002656 l       .debug_str	00000000 
0000265e l       .debug_str	00000000 
00002666 l       .debug_str	00000000 
00002688 l       .debug_str	00000000 
00002693 l       .debug_str	00000000 
0000269f l       .debug_str	00000000 
000026a7 l       .debug_str	00000000 
000026b0 l       .debug_str	00000000 
000026bb l       .debug_str	00000000 
000026c2 l       .debug_str	00000000 
000026cd l       .debug_str	00000000 
000026d8 l       .debug_str	00000000 
000026e8 l       .debug_str	00000000 
000026f2 l       .debug_str	00000000 
000026f8 l       .debug_str	00000000 
0000271a l       .debug_str	00000000 
00002752 l       .debug_str	00000000 
00002792 l       .debug_str	00000000 
00002799 l       .debug_str	00000000 
000027a1 l       .debug_str	00000000 
000027b8 l       .debug_str	00000000 
000027c1 l       .debug_str	00000000 
000027d1 l       .debug_str	00000000 
000027e0 l       .debug_str	00000000 
000027e8 l       .debug_str	00000000 
000027ef l       .debug_str	00000000 
000027f7 l       .debug_str	00000000 
00002815 l       .debug_str	00000000 
00002825 l       .debug_str	00000000 
00002858 l       .debug_str	00000000 
0000286d l       .debug_str	00000000 
00002876 l       .debug_str	00000000 
000028d3 l       .debug_str	00000000 
00002938 l       .debug_str	00000000 
00002942 l       .debug_str	00000000 
00002952 l       .debug_str	00000000 
00002967 l       .debug_str	00000000 
0000296f l       .debug_str	00000000 
000029d3 l       .debug_str	00000000 
00002a3f l       .debug_str	00000000 
00002a46 l       .debug_str	00000000 
00002a4e l       .debug_str	00000000 
00002a6c l       .debug_str	00000000 
00002a7c l       .debug_str	00000000 
00002aaf l       .debug_str	00000000 
00002ac4 l       .debug_str	00000000 
00002ad7 l       .debug_str	00000000 
00002aec l       .debug_str	00000000 
00002af3 l       .debug_str	00000000 
00000000 l     O .rodata..Lanon.3ed011473997af99b525cde47c9eaaac.10	00000018 .Lanon.3ed011473997af99b525cde47c9eaaac.10
00000000 l     O .rodata..Lanon.3ed011473997af99b525cde47c9eaaac.11	00000018 .Lanon.3ed011473997af99b525cde47c9eaaac.11
00000000 l     O .rodata..Lanon.3ed011473997af99b525cde47c9eaaac.13	00000018 .Lanon.3ed011473997af99b525cde47c9eaaac.13
00000000 l     O .rodata..Lanon.3ed011473997af99b525cde47c9eaaac.14	00000016 .Lanon.3ed011473997af99b525cde47c9eaaac.14
00000000 l     O .rodata..Lanon.3ed011473997af99b525cde47c9eaaac.16	00000018 .Lanon.3ed011473997af99b525cde47c9eaaac.16
00000000 l     O .rodata..Lanon.3ed011473997af99b525cde47c9eaaac.17	00000018 .Lanon.3ed011473997af99b525cde47c9eaaac.17
00000000 l     O .rodata..Lanon.3ed011473997af99b525cde47c9eaaac.18	00000019 .Lanon.3ed011473997af99b525cde47c9eaaac.18
00000000 l     O .rodata..Lanon.3ed011473997af99b525cde47c9eaaac.19	00000001 .Lanon.3ed011473997af99b525cde47c9eaaac.19
00000000 l     O .rodata..Lanon.3ed011473997af99b525cde47c9eaaac.2	00000010 .Lanon.3ed011473997af99b525cde47c9eaaac.2
00000000 l     O .rodata..Lanon.3ed011473997af99b525cde47c9eaaac.20	00000016 .Lanon.3ed011473997af99b525cde47c9eaaac.20
00000000 l     O .rodata..Lanon.3ed011473997af99b525cde47c9eaaac.21	00000001 .Lanon.3ed011473997af99b525cde47c9eaaac.21
00000000 l     O .rodata..Lanon.3ed011473997af99b525cde47c9eaaac.22	00000007 .Lanon.3ed011473997af99b525cde47c9eaaac.22
00000000 l     O .rodata..Lanon.3ed011473997af99b525cde47c9eaaac.23	0000000d .Lanon.3ed011473997af99b525cde47c9eaaac.23
00000000 l     O .rodata..Lanon.3ed011473997af99b525cde47c9eaaac.24	00000003 .Lanon.3ed011473997af99b525cde47c9eaaac.24
00000000 l     O .rodata..Lanon.3ed011473997af99b525cde47c9eaaac.25	00000005 .Lanon.3ed011473997af99b525cde47c9eaaac.25
00000000 l     O .rodata..Lanon.3ed011473997af99b525cde47c9eaaac.26	0000004b .Lanon.3ed011473997af99b525cde47c9eaaac.26
00000000 l     O .rodata.cst8	00000008 .Lanon.3ed011473997af99b525cde47c9eaaac.27
00000008 l     O .rodata.cst8	00000008 .Lanon.3ed011473997af99b525cde47c9eaaac.28
00000010 l     O .rodata.cst8	00000008 .Lanon.3ed011473997af99b525cde47c9eaaac.29
00000018 l     O .rodata.cst8	00000008 .Lanon.3ed011473997af99b525cde47c9eaaac.30
00000000 l     O .rodata..Lanon.3ed011473997af99b525cde47c9eaaac.31	00000012 .Lanon.3ed011473997af99b525cde47c9eaaac.31
00000000 l     O .rodata..Lanon.3ed011473997af99b525cde47c9eaaac.32	00000009 .Lanon.3ed011473997af99b525cde47c9eaaac.32
00000020 l     O .rodata.cst8	00000008 .Lanon.3ed011473997af99b525cde47c9eaaac.33
00000000 l     O .rodata..Lanon.3ed011473997af99b525cde47c9eaaac.34	00000001 .Lanon.3ed011473997af99b525cde47c9eaaac.34
00000000 l     O .rodata..Lanon.3ed011473997af99b525cde47c9eaaac.4	00000010 .Lanon.3ed011473997af99b525cde47c9eaaac.4
00000000 l     O .rodata..Lanon.3ed011473997af99b525cde47c9eaaac.6	0000000f .Lanon.3ed011473997af99b525cde47c9eaaac.6
00000000 l     O .rodata..Lanon.3ed011473997af99b525cde47c9eaaac.9	00000018 .Lanon.3ed011473997af99b525cde47c9eaaac.9
00000000 l     O .rodata._ZN3app10app_sensor13SENSOR_DEVICE17hf13677561c0ef3d6E	00000008 app::app_sensor::SENSOR_DEVICE
00000000 l     F .text._ZN3app10app_sensor18handle_sensor_data17hce4161ccff29c081E	0000027a app::app_sensor::handle_sensor_data
00000000 l     F .text._ZN44_$LT$$RF$T$u20$as$u20$core..fmt..Display$GT$3fmt17h422d517eccc73a15E	0000000c <&T as core::fmt::Display>::fmt
00000000 l     F .text._ZN4core6result13unwrap_failed17h4b64b7a78ab076d1E	00000050 core::result::unwrap_failed
00000000 l    d  .text._ZN44_$LT$$RF$T$u20$as$u20$core..fmt..Display$GT$3fmt17h422d517eccc73a15E	00000000 .text._ZN44_$LT$$RF$T$u20$as$u20$core..fmt..Display$GT$3fmt17h422d517eccc73a15E
00000000 l    d  .text._ZN4core6result13unwrap_failed17h4b64b7a78ab076d1E	00000000 .text._ZN4core6result13unwrap_failed17h4b64b7a78ab076d1E
00000000 l    d  .text._ZN3app10app_sensor18handle_sensor_data17hce4161ccff29c081E	00000000 .text._ZN3app10app_sensor18handle_sensor_data17hce4161ccff29c081E
00000000 l    d  .text.main	00000000 .text.main
00000000 l    d  .text.rust_begin_unwind	00000000 .text.rust_begin_unwind
00000000 l    d  .rodata..Lanon.3ed011473997af99b525cde47c9eaaac.0	00000000 .rodata..Lanon.3ed011473997af99b525cde47c9eaaac.0
00000000 l    d  .rodata..Lanon.3ed011473997af99b525cde47c9eaaac.1	00000000 .rodata..Lanon.3ed011473997af99b525cde47c9eaaac.1
00000000 l    d  .rodata..Lanon.3ed011473997af99b525cde47c9eaaac.3	00000000 .rodata..Lanon.3ed011473997af99b525cde47c9eaaac.3
00000000 l    d  .rodata..Lanon.3ed011473997af99b525cde47c9eaaac.5	00000000 .rodata..Lanon.3ed011473997af99b525cde47c9eaaac.5
00000000 l    d  .rodata._ZN3app10app_sensor13SENSOR_DEVICE17hf13677561c0ef3d6E	00000000 .rodata._ZN3app10app_sensor13SENSOR_DEVICE17hf13677561c0ef3d6E
00000000 l    d  .rodata..Lanon.3ed011473997af99b525cde47c9eaaac.7	00000000 .rodata..Lanon.3ed011473997af99b525cde47c9eaaac.7
00000000 l    d  .rodata..Lanon.3ed011473997af99b525cde47c9eaaac.8	00000000 .rodata..Lanon.3ed011473997af99b525cde47c9eaaac.8
00000000 l    d  .rodata..Lanon.3ed011473997af99b525cde47c9eaaac.12	00000000 .rodata..Lanon.3ed011473997af99b525cde47c9eaaac.12
00000000 l    d  .rodata..Lanon.3ed011473997af99b525cde47c9eaaac.15	00000000 .rodata..Lanon.3ed011473997af99b525cde47c9eaaac.15
00000000 l    d  .debug_loc	00000000 .debug_loc
00000000 l    d  .debug_abbrev	00000000 .debug_abbrev
00000000 l    d  .debug_info	00000000 .debug_info
00000000 l    d  .debug_ranges	00000000 .debug_ranges
00000000 l    d  .debug_frame	00000000 .debug_frame
00000000 l    d  .debug_line	00000000 .debug_line
00000000         *UND*	00000000 <str as core::fmt::Display>::fmt
00000000         *UND*	00000000 core::panic::Location::file
00000000         *UND*	00000000 core::panic::Location::line
00000000         *UND*	00000000 core::panic::PanicInfo::location
00000000         *UND*	00000000 core::panicking::panic
00000000         *UND*	00000000 core::panicking::panic_fmt
00000000         *UND*	00000000 <mynewt::result::MynewtError as core::fmt::Debug>::fmt
00000000         *UND*	00000000 mynewt::hw::sensor::as_untyped
00000000         *UND*	00000000 mynewt::hw::sensor::register_listener
00000000         *UND*	00000000 mynewt::hw::sensor::bindings::set_poll_rate_ms
00000000         *UND*	00000000 mynewt::hw::sensor::bindings::mgr_find_next_bydevname
00000000         *UND*	00000000 mynewt::Strn::new
00000000         *UND*	00000000 mynewt::libs::sensor_network::do_server_post
00000000         *UND*	00000000 mynewt::libs::sensor_network::init_server_post
00000000         *UND*	00000000 mynewt::libs::sensor_network::start_server_transport
00000000         *UND*	00000000 mynewt::kernel::os::eventq_run
00000000         *UND*	00000000 mynewt::kernel::os::eventq_dflt_get
00000000         *UND*	00000000 mynewt::encoding::coap_context::CoapContext::key_to_cstr
00000000         *UND*	00000000 mynewt::encoding::coap_context::CoapContext::to_void_ptr
00000000         *UND*	00000000 mynewt::encoding::coap_context::CoapContext::value_to_cstr
00000000         *UND*	00000000 mynewt::encoding::coap_context::CoapContext::fail
00000000         *UND*	00000000 mynewt::encoding::coap_context::COAP_CONTEXT
00000000         *UND*	00000000 <str as mynewt::encoding::coap_context::ToBytesOptionalNull>::to_bytes_optional_nul
00000000         *UND*	00000000 __bkpt
00000000         *UND*	00000000 console_buffer
00000000         *UND*	00000000 console_flush
00000000         *UND*	00000000 console_printhex
00000000         *UND*	00000000 get_temp_data
00000000         *UND*	00000000 get_temp_raw_data
00000000         *UND*	00000000 is_null_sensor
00000000         *UND*	00000000 is_null_sensor_data
00000000         *UND*	00000000 json_helper_close_array
00000000         *UND*	00000000 json_helper_object_array_end_item
00000000         *UND*	00000000 json_helper_object_array_start_item
00000000         *UND*	00000000 json_helper_set_array
00000000         *UND*	00000000 json_helper_set_int
00000000         *UND*	00000000 json_helper_set_text_string
00000000         *UND*	00000000 json_rep_end_root_object
00000000         *UND*	00000000 json_rep_start_root_object
00000000 g     F .text.main	000000f0 main
00000000         *UND*	00000000 null_sensor
00000000 g     F .text.rust_begin_unwind	00000072 rust_begin_unwind
00000000         *UND*	00000000 rust_sysinit



Disassembly of section .text._ZN44_$LT$$RF$T$u20$as$u20$core..fmt..Display$GT$3fmt17h422d517eccc73a15E:

00000000 <<&T as core::fmt::Display>::fmt>:
_ZN44_$LT$$RF$T$u20$as$u20$core..fmt..Display$GT$3fmt17h422d517eccc73a15E():
/rustc/50a0defd5a93523067ef239936cc2e0755220904/src/libcore/fmt/mod.rs:1914
   0:	460a      	mov	r2, r1
   2:	e9d0 3100 	ldrd	r3, r1, [r0]
   6:	4618      	mov	r0, r3
   8:	f7ff bffe 	b.w	0 <<str as core::fmt::Display>::fmt>

Disassembly of section .text._ZN4core6result13unwrap_failed17h4b64b7a78ab076d1E:

00000000 <core::result::unwrap_failed>:
_ZN4core6result13unwrap_failed17h4b64b7a78ab076d1E():
/rustc/50a0defd5a93523067ef239936cc2e0755220904/src/libcore/result.rs:998
   0:	b08e      	sub	sp, #56	; 0x38
   2:	2208      	movs	r2, #8
   4:	e9cd 0201 	strd	r0, r2, [sp, #4]
/rustc/50a0defd5a93523067ef239936cc2e0755220904/src/libcore/result.rs:999
   8:	f240 0000 	movw	r0, #0
   c:	f2c0 0000 	movt	r0, #0
  10:	9103      	str	r1, [sp, #12]
  12:	900d      	str	r0, [sp, #52]	; 0x34
  14:	a803      	add	r0, sp, #12
  16:	900c      	str	r0, [sp, #48]	; 0x30
  18:	f240 0000 	movw	r0, #0
  1c:	f2c0 0000 	movt	r0, #0
  20:	a90a      	add	r1, sp, #40	; 0x28
  22:	900b      	str	r0, [sp, #44]	; 0x2c
  24:	a801      	add	r0, sp, #4
  26:	900a      	str	r0, [sp, #40]	; 0x28
  28:	2002      	movs	r0, #2
_ZN4core3fmt9Arguments6new_v117ha99294a9defa432aE():
/rustc/50a0defd5a93523067ef239936cc2e0755220904/src/libcore/fmt/mod.rs:316
  2a:	9009      	str	r0, [sp, #36]	; 0x24
  2c:	9108      	str	r1, [sp, #32]
  2e:	2100      	movs	r1, #0
  30:	9107      	str	r1, [sp, #28]
  32:	e9cd 0105 	strd	r0, r1, [sp, #20]
  36:	f240 0000 	movw	r0, #0
  3a:	f2c0 0000 	movt	r0, #0
_ZN4core6result13unwrap_failed17h4b64b7a78ab076d1E():
/rustc/50a0defd5a93523067ef239936cc2e0755220904/src/libcore/macros.rs:18
  3e:	f240 0100 	movw	r1, #0
_ZN4core3fmt9Arguments6new_v117ha99294a9defa432aE():
/rustc/50a0defd5a93523067ef239936cc2e0755220904/src/libcore/fmt/mod.rs:316
  42:	9004      	str	r0, [sp, #16]
  44:	a804      	add	r0, sp, #16
_ZN4core6result13unwrap_failed17h4b64b7a78ab076d1E():
/rustc/50a0defd5a93523067ef239936cc2e0755220904/src/libcore/macros.rs:18
  46:	f2c0 0100 	movt	r1, #0
  4a:	f7ff fffe 	bl	0 <core::panicking::panic_fmt>
  4e:	defe      	udf	#254	; 0xfe

Disassembly of section .text._ZN3app10app_sensor18handle_sensor_data17hce4161ccff29c081E:

00000000 <app::app_sensor::handle_sensor_data>:
_ZN3app10app_sensor18handle_sensor_data17hce4161ccff29c081E():
/Users/Luppy/mynewt/stm32bluepill-mynewt-sensor/rust/app/src/app_sensor.rs:74
    Ok(())
}

///  This listener function is called every 10 seconds by Mynewt to handle the polled sensor data.
///  Return 0 if we have handled the sensor data successfully.
extern fn handle_sensor_data(sensor: sensor_ptr, _arg: sensor_arg, 
   0:	e92d 4ff0 	stmdb	sp!, {r4, r5, r6, r7, r8, r9, sl, fp, lr}
   4:	b085      	sub	sp, #20
   6:	4605      	mov	r5, r0
_ZN3app8app_base13console_print17h1db64f4bd159062eE():
/Users/Luppy/mynewt/stm32bluepill-mynewt-sensor/rust/app/src/app_base.rs:18
///  Display message `msg` on the Arm Semihosting console (via OpenOCD).
pub fn console_print(msg: &[u8]) {
    let len = msg.len();
    unsafe {
        //  Call the Semihosting Console API, which is unsafe.
        console_buffer(msg.as_ptr(), len as u32);
   8:	f240 0000 	movw	r0, #0
   c:	f2c0 0000 	movt	r0, #0
  10:	2118      	movs	r1, #24
  12:	4614      	mov	r4, r2
  14:	f7ff fffe 	bl	0 <console_buffer>
/Users/Luppy/mynewt/stm32bluepill-mynewt-sensor/rust/app/src/app_base.rs:19
        console_flush();  //  TODO: Remove this.
  18:	f7ff fffe 	bl	0 <console_flush>
_ZN3app10app_sensor18handle_sensor_data17hce4161ccff29c081E():
/Users/Luppy/mynewt/stm32bluepill-mynewt-sensor/rust/app/src/app_sensor.rs:79
    sensor_data: sensor_data_ptr, sensor_type: sensor_type_t) -> MynewtError {
    console_print(b"Rust handle_sensor_data\n");
    //  Check that the temperature data is valid.
    //  TODO
    if unsafe { is_null_sensor_data(sensor_data) } { return MynewtError::SYS_EINVAL; }  //  Exit if data is missing
  1c:	4620      	mov	r0, r4
  1e:	f7ff fffe 	bl	0 <is_null_sensor_data>
  22:	b120      	cbz	r0, 2e <app::app_sensor::handle_sensor_data+0x2e>
  24:	f06f 0001 	mvn.w	r0, #1
/Users/Luppy/mynewt/stm32bluepill-mynewt-sensor/rust/app/src/app_sensor.rs:102
            return MynewtError::SYS_EOK; 
        }            
    }
    //  Return 0 to Mynewt to indicate no error.  Should not end with a semicolon (;).
    MynewtError::SYS_EOK
}
  28:	b005      	add	sp, #20
  2a:	e8bd 8ff0 	ldmia.w	sp!, {r4, r5, r6, r7, r8, r9, sl, fp, pc}
/Users/Luppy/mynewt/stm32bluepill-mynewt-sensor/rust/app/src/app_sensor.rs:80
    assert!(unsafe { !is_null_sensor(sensor) });
  2e:	4628      	mov	r0, r5
  30:	f7ff fffe 	bl	0 <is_null_sensor>
  34:	2800      	cmp	r0, #0
  36:	f040 8104 	bne.w	242 <app::app_sensor::handle_sensor_data+0x242>
  3a:	e9dd 100e 	ldrd	r1, r0, [sp, #56]	; 0x38
_ZN3app10app_sensor15get_temperature17h6296b9e58d842b05E():
/Users/Luppy/mynewt/stm32bluepill-mynewt-sensor/rust/app/src/app_sensor.rs:112
#[allow(unreachable_patterns)]
#[allow(unused_variables)]
fn get_temperature(sensor_data: sensor_data_ptr, sensor_type: sensor_type_t) -> SensorValue {
    let mut return_value = SensorValue::default();
    match sensor_type {                           //  Is this raw or computed temperature?
        SENSOR_TYPE_AMBIENT_TEMPERATURE_RAW => {  //  If this is raw temperature...
  3e:	f081 6180 	eor.w	r1, r1, #67108864	; 0x4000000
  42:	4308      	orrs	r0, r1
  44:	d11c      	bne.n	80 <app::app_sensor::handle_sensor_data+0x80>
  46:	2000      	movs	r0, #0
  48:	a902      	add	r1, sp, #8
/Users/Luppy/mynewt/stm32bluepill-mynewt-sensor/rust/app/src/app_sensor.rs:114
            //  Interpret the sensor data as a sensor_temp_raw_data struct that contains raw temp.
            let mut rawtempdata = fill_zero!(sensor_temp_raw_data);
  4a:	f88d 000c 	strb.w	r0, [sp, #12]
  4e:	9002      	str	r0, [sp, #8]
/Users/Luppy/mynewt/stm32bluepill-mynewt-sensor/rust/app/src/app_sensor.rs:115
            let rc = unsafe { get_temp_raw_data(sensor_data, &mut rawtempdata) };
  50:	4620      	mov	r0, r4
  52:	f7ff fffe 	bl	0 <get_temp_raw_data>
/Users/Luppy/mynewt/stm32bluepill-mynewt-sensor/rust/app/src/app_sensor.rs:116
            assert!(rc == 0);
  56:	2800      	cmp	r0, #0
  58:	f040 8101 	bne.w	25e <app::app_sensor::handle_sensor_data+0x25e>
/Users/Luppy/mynewt/stm32bluepill-mynewt-sensor/rust/app/src/app_sensor.rs:119

            //  Check that the raw temperature data is valid.
            if rawtempdata.strd_temp_raw_is_valid == 0 { return return_value; }  //  Exit if data is not valid
  5c:	f89d 000c 	ldrb.w	r0, [sp, #12]
  60:	2800      	cmp	r0, #0
  62:	f000 80f5 	beq.w	250 <app::app_sensor::handle_sensor_data+0x250>
_ZN3app8app_base13console_print17h1db64f4bd159062eE():
/Users/Luppy/mynewt/stm32bluepill-mynewt-sensor/rust/app/src/app_base.rs:18
        console_buffer(msg.as_ptr(), len as u32);
  66:	f240 0000 	movw	r0, #0
  6a:	2119      	movs	r1, #25
  6c:	f2c0 0000 	movt	r0, #0
_ZN3app10app_sensor15get_temperature17h6296b9e58d842b05E():
/Users/Luppy/mynewt/stm32bluepill-mynewt-sensor/rust/app/src/app_sensor.rs:122

            //  Raw temperature data is valid.  Copy and display it.
            return_value.val = SensorValueType::Uint(rawtempdata.strd_temp_raw);  //  Raw Temperature in integer (0 to 4095)
  70:	f8dd a008 	ldr.w	sl, [sp, #8]
_ZN3app8app_base13console_print17h1db64f4bd159062eE():
/Users/Luppy/mynewt/stm32bluepill-mynewt-sensor/rust/app/src/app_base.rs:18
  74:	f7ff fffe 	bl	0 <console_buffer>
/Users/Luppy/mynewt/stm32bluepill-mynewt-sensor/rust/app/src/app_base.rs:19
        console_flush();  //  TODO: Remove this.
  78:	f7ff fffe 	bl	0 <console_flush>
  7c:	2401      	movs	r4, #1
  7e:	e012      	b.n	a6 <app::app_sensor::handle_sensor_data+0xa6>
_ZN3app10app_sensor15get_temperature17h6296b9e58d842b05E():
  80:	2000      	movs	r0, #0
  82:	a902      	add	r1, sp, #8
/Users/Luppy/mynewt/stm32bluepill-mynewt-sensor/rust/app/src/app_sensor.rs:127
            console_print(b"TMP listener got rawtmp \n");  // return_value->int_val);
        },
        SENSOR_TYPE_AMBIENT_TEMPERATURE => {      //  If this is computed temperature...
            //  Interpret the sensor data as a sensor_temp_data struct that contains computed temp.
            let mut tempdata = fill_zero!(sensor_temp_data);
  84:	f88d 000c 	strb.w	r0, [sp, #12]
  88:	9002      	str	r0, [sp, #8]
/Users/Luppy/mynewt/stm32bluepill-mynewt-sensor/rust/app/src/app_sensor.rs:128
            let rc = unsafe { get_temp_data(sensor_data, &mut tempdata) };
  8a:	4620      	mov	r0, r4
  8c:	f7ff fffe 	bl	0 <get_temp_data>
/Users/Luppy/mynewt/stm32bluepill-mynewt-sensor/rust/app/src/app_sensor.rs:129
            assert!(rc == 0);
  90:	2800      	cmp	r0, #0
  92:	f040 80eb 	bne.w	26c <app::app_sensor::handle_sensor_data+0x26c>
  96:	f89d 000c 	ldrb.w	r0, [sp, #12]
/Users/Luppy/mynewt/stm32bluepill-mynewt-sensor/rust/app/src/app_sensor.rs:132

            //  Check that the computed temperature data is valid.
            if tempdata.std_temp_is_valid() == 0 { return return_value; }  //  Exit if data is not valid
  9a:	07c0      	lsls	r0, r0, #31
  9c:	f000 80d8 	beq.w	250 <app::app_sensor::handle_sensor_data+0x250>
/Users/Luppy/mynewt/stm32bluepill-mynewt-sensor/rust/app/src/app_sensor.rs:135

            //  Computed temperature data is valid.  Copy and display it.
            return_value.val = SensorValueType::Float(tempdata.std_temp);  //  Temperature in floating point.
  a0:	f8dd a008 	ldr.w	sl, [sp, #8]
  a4:	2402      	movs	r4, #2
_ZN3app8app_base13console_print17h1db64f4bd159062eE():
/Users/Luppy/mynewt/stm32bluepill-mynewt-sensor/rust/app/src/app_base.rs:18
        console_buffer(msg.as_ptr(), len as u32);
  a6:	f240 0000 	movw	r0, #0
  aa:	2116      	movs	r1, #22
  ac:	f2c0 0000 	movt	r0, #0
  b0:	f7ff fffe 	bl	0 <console_buffer>
/Users/Luppy/mynewt/stm32bluepill-mynewt-sensor/rust/app/src/app_base.rs:19
        console_flush();  //  TODO: Remove this.
  b4:	f7ff fffe 	bl	0 <console_flush>
_ZN3app11app_network16send_sensor_data17h66b8c89222084710E():
/Users/Luppy/mynewt/stm32bluepill-mynewt-sensor/rust/app/src/app_network.rs:76
    if let SensorValueType::None = val.val { assert!(false); }

    //  Start composing the CoAP Server message with the sensor data in the payload.  This will 
    //  block other tasks from composing and posting CoAP messages (through a semaphore).
    //  We only have 1 memory buffer for composing CoAP messages so it needs to be locked.
    let rc = sensor_network::init_server_post(strn!("")) ? ;
  b8:	f240 0000 	movw	r0, #0
  bc:	2101      	movs	r1, #1
  be:	f2c0 0000 	movt	r0, #0
  c2:	f7ff fffe 	bl	0 <mynewt::Strn::new>
  c6:	e9cd 0102 	strd	r0, r1, [sp, #8]
  ca:	a902      	add	r1, sp, #8
  cc:	4668      	mov	r0, sp
  ce:	f7ff fffe 	bl	0 <mynewt::libs::sensor_network::init_server_post>
_ZN73_$LT$core..result..Result$LT$T$C$E$GT$$u20$as$u20$core..ops..try..Try$GT$11into_result17hfc45991b9511dbacE():
/rustc/50a0defd5a93523067ef239936cc2e0755220904/src/libcore/result.rs:1283
  d2:	9800      	ldr	r0, [sp, #0]
  d4:	b2c1      	uxtb	r1, r0
_ZN3app11app_network16send_sensor_data17h66b8c89222084710E():
/Users/Luppy/mynewt/stm32bluepill-mynewt-sensor/rust/app/src/app_network.rs:76
  d6:	2901      	cmp	r1, #1
  d8:	d107      	bne.n	ea <app::app_sensor::handle_sensor_data+0xea>
  da:	9801      	ldr	r0, [sp, #4]
_ZN3app10app_sensor18handle_sensor_data17hce4161ccff29c081E():
/Users/Luppy/mynewt/stm32bluepill-mynewt-sensor/rust/app/src/app_sensor.rs:94
    if let Err(err) = rc {  //  `if let` will assign `err` to the error code inside `rc`
  dc:	3006      	adds	r0, #6
  de:	f000 809d 	beq.w	21c <app::app_sensor::handle_sensor_data+0x21c>
  e2:	2000      	movs	r0, #0
/Users/Luppy/mynewt/stm32bluepill-mynewt-sensor/rust/app/src/app_sensor.rs:102
}
  e4:	b005      	add	sp, #20
  e6:	e8bd 8ff0 	ldmia.w	sp!, {r4, r5, r6, r7, r8, r9, sl, fp, pc}
_ZN3app11app_network16send_sensor_data17h66b8c89222084710E():
/Users/Luppy/mynewt/stm32bluepill-mynewt-sensor/rust/app/src/app_network.rs:77
    if !rc { return Err(MynewtError::SYS_EAGAIN); }  //  If network transport not ready, tell caller (Sensor Listener) to try again later.
  ea:	f410 4f7f 	tst.w	r0, #65280	; 0xff00
  ee:	f000 8095 	beq.w	21c <app::app_sensor::handle_sensor_data+0x21c>
/Users/Luppy/mynewt/stm32bluepill-mynewt-sensor/rust/app/src/app_network.rs:80

    //  Compose the CoAP Payload in JSON using the coap!() macro.
    let _payload = coap!(@json {
  f2:	f7ff fffe 	bl	0 <json_rep_start_root_object>
  f6:	f240 0500 	movw	r5, #0
  fa:	f2c0 0500 	movt	r5, #0
  fe:	4628      	mov	r0, r5
 100:	f7ff fffe 	bl	0 <mynewt::encoding::coap_context::CoapContext::to_void_ptr>
 104:	f240 0100 	movw	r1, #0
 108:	4606      	mov	r6, r0
 10a:	f2c0 0100 	movt	r1, #0
 10e:	4628      	mov	r0, r5
 110:	2207      	movs	r2, #7
 112:	f7ff fffe 	bl	0 <mynewt::encoding::coap_context::CoapContext::key_to_cstr>
 116:	4601      	mov	r1, r0
 118:	4630      	mov	r0, r6
 11a:	f7ff fffe 	bl	0 <json_helper_set_array>
 11e:	2c01      	cmp	r4, #1
 120:	d154      	bne.n	1cc <app::app_sensor::handle_sensor_data+0x1cc>
 122:	f240 0900 	movw	r9, #0
 126:	f240 0800 	movw	r8, #0
 12a:	f2c0 0900 	movt	r9, #0
 12e:	f2c0 0800 	movt	r8, #0
 132:	4648      	mov	r0, r9
 134:	4641      	mov	r1, r8
 136:	220d      	movs	r2, #13
 138:	f7ff fffe 	bl	0 <mynewt::encoding::coap_context::CoapContext::key_to_cstr>
 13c:	f7ff fffe 	bl	0 <json_helper_object_array_start_item>
 140:	f240 0000 	movw	r0, #0
 144:	2103      	movs	r1, #3
 146:	f2c0 0000 	movt	r0, #0
 14a:	f7ff fffe 	bl	0 <<str as mynewt::encoding::coap_context::ToBytesOptionalNull>::to_bytes_optional_nul>
 14e:	4607      	mov	r7, r0
 150:	f240 0000 	movw	r0, #0
 154:	468b      	mov	fp, r1
 156:	f2c0 0000 	movt	r0, #0
 15a:	2101      	movs	r1, #1
 15c:	f7ff fffe 	bl	0 <<str as mynewt::encoding::coap_context::ToBytesOptionalNull>::to_bytes_optional_nul>
 160:	4605      	mov	r5, r0
 162:	4648      	mov	r0, r9
 164:	460c      	mov	r4, r1
 166:	f7ff fffe 	bl	0 <mynewt::encoding::coap_context::CoapContext::to_void_ptr>
 16a:	4606      	mov	r6, r0
 16c:	4648      	mov	r0, r9
 16e:	4639      	mov	r1, r7
 170:	465a      	mov	r2, fp
 172:	f7ff fffe 	bl	0 <mynewt::encoding::coap_context::CoapContext::key_to_cstr>
 176:	4607      	mov	r7, r0
 178:	4648      	mov	r0, r9
 17a:	4629      	mov	r1, r5
 17c:	4622      	mov	r2, r4
 17e:	f7ff fffe 	bl	0 <mynewt::encoding::coap_context::CoapContext::value_to_cstr>
 182:	4602      	mov	r2, r0
 184:	4630      	mov	r0, r6
 186:	4639      	mov	r1, r7
 188:	f7ff fffe 	bl	0 <json_helper_set_text_string>
 18c:	f240 0000 	movw	r0, #0
 190:	2105      	movs	r1, #5
 192:	f2c0 0000 	movt	r0, #0
 196:	f7ff fffe 	bl	0 <<str as mynewt::encoding::coap_context::ToBytesOptionalNull>::to_bytes_optional_nul>
 19a:	4604      	mov	r4, r0
 19c:	4648      	mov	r0, r9
 19e:	460d      	mov	r5, r1
 1a0:	f7ff fffe 	bl	0 <mynewt::encoding::coap_context::CoapContext::to_void_ptr>
 1a4:	4606      	mov	r6, r0
 1a6:	4648      	mov	r0, r9
 1a8:	4621      	mov	r1, r4
 1aa:	462a      	mov	r2, r5
 1ac:	f7ff fffe 	bl	0 <mynewt::encoding::coap_context::CoapContext::key_to_cstr>
 1b0:	4601      	mov	r1, r0
 1b2:	4630      	mov	r0, r6
 1b4:	4652      	mov	r2, sl
 1b6:	2300      	movs	r3, #0
 1b8:	f7ff fffe 	bl	0 <json_helper_set_int>
 1bc:	4648      	mov	r0, r9
 1be:	4641      	mov	r1, r8
 1c0:	220d      	movs	r2, #13
 1c2:	f7ff fffe 	bl	0 <mynewt::encoding::coap_context::CoapContext::key_to_cstr>
 1c6:	f7ff fffe 	bl	0 <json_helper_object_array_end_item>
 1ca:	e006      	b.n	10 <mynewt::encoding::coap_context::COAP_CONTEXT+0x10>
 1cc:	f240 0000 	movw	r0, #0
 1d0:	2101      	movs	r1, #1
 1d2:	f2c0 0000 	movt	r0, #0
 1d6:	f7ff fffe 	bl	0 <mynewt::encoding::coap_context::CoapContext::fail>
 1da:	f240 0400 	movw	r4, #0
 1de:	f2c0 0400 	movt	r4, #0
 1e2:	4620      	mov	r0, r4
 1e4:	f7ff fffe 	bl	0 <mynewt::encoding::coap_context::CoapContext::to_void_ptr>
 1e8:	f240 0100 	movw	r1, #0
 1ec:	4605      	mov	r5, r0
 1ee:	f2c0 0100 	movt	r1, #0
 1f2:	4620      	mov	r0, r4
 1f4:	2207      	movs	r2, #7
 1f6:	f7ff fffe 	bl	0 <mynewt::encoding::coap_context::CoapContext::key_to_cstr>
 1fa:	4601      	mov	r1, r0
 1fc:	4628      	mov	r0, r5
 1fe:	f7ff fffe 	bl	0 <json_helper_close_array>
 202:	f7ff fffe 	bl	0 <json_rep_end_root_object>
 206:	a802      	add	r0, sp, #8
/Users/Luppy/mynewt/stm32bluepill-mynewt-sensor/rust/app/src/app_network.rs:94
    });

    //  Post the CoAP Server message to the CoAP Background Task for transmission.  After posting the
    //  message to the background task, we release a semaphore that unblocks other requests
    //  to compose and post CoAP messages.
    sensor_network::do_server_post() ? ;
 208:	f7ff fffe 	bl	0 <mynewt::libs::sensor_network::do_server_post>
_ZN73_$LT$core..result..Result$LT$T$C$E$GT$$u20$as$u20$core..ops..try..Try$GT$11into_result17hfc45991b9511dbacE():
/rustc/50a0defd5a93523067ef239936cc2e0755220904/src/libcore/result.rs:1283
 20c:	f89d 0008 	ldrb.w	r0, [sp, #8]
_ZN3app11app_network16send_sensor_data17h66b8c89222084710E():
/Users/Luppy/mynewt/stm32bluepill-mynewt-sensor/rust/app/src/app_network.rs:94
 210:	2801      	cmp	r0, #1
 212:	d109      	bne.n	228 <app::app_sensor::handle_sensor_data+0x228>
_ZN3app10app_sensor18handle_sensor_data17hce4161ccff29c081E():
 214:	9803      	ldr	r0, [sp, #12]
/Users/Luppy/mynewt/stm32bluepill-mynewt-sensor/rust/app/src/app_sensor.rs:94
    if let Err(err) = rc {  //  `if let` will assign `err` to the error code inside `rc`
 216:	3006      	adds	r0, #6
 218:	f47f af63 	bne.w	e2 <app::app_sensor::handle_sensor_data+0xe2>
_ZN3app8app_base13console_print17h1db64f4bd159062eE():
/Users/Luppy/mynewt/stm32bluepill-mynewt-sensor/rust/app/src/app_base.rs:18
        console_buffer(msg.as_ptr(), len as u32);
 21c:	f240 0000 	movw	r0, #0
 220:	2116      	movs	r1, #22
 222:	f2c0 0000 	movt	r0, #0
 226:	e004      	b.n	c <app::app_sensor::handle_sensor_data+0xc>
 228:	f240 0000 	movw	r0, #0
 22c:	214b      	movs	r1, #75	; 0x4b
 22e:	f2c0 0000 	movt	r0, #0
_ZN3app10app_sensor18handle_sensor_data17hce4161ccff29c081E():
 232:	f7ff fffe 	bl	0 <console_buffer>
 236:	f7ff fffe 	bl	0 <console_flush>
 23a:	2000      	movs	r0, #0
/Users/Luppy/mynewt/stm32bluepill-mynewt-sensor/rust/app/src/app_sensor.rs:102
}
 23c:	b005      	add	sp, #20
 23e:	e8bd 8ff0 	ldmia.w	sp!, {r4, r5, r6, r7, r8, r9, sl, fp, pc}
/Users/Luppy/mynewt/stm32bluepill-mynewt-sensor/rust/app/src/app_sensor.rs:80
    assert!(unsafe { !is_null_sensor(sensor) });
 242:	f240 0000 	movw	r0, #0
 246:	f2c0 0000 	movt	r0, #0
 24a:	f7ff fffe 	bl	0 <core::panicking::panic>
 24e:	defe      	udf	#254	; 0xfe
/Users/Luppy/mynewt/stm32bluepill-mynewt-sensor/rust/app/src/app_sensor.rs:84
    if let SensorValueType::None = sensor_value.val { assert!(false); }  //  Invalid type
 250:	f240 0000 	movw	r0, #0
 254:	f2c0 0000 	movt	r0, #0
 258:	f7ff fffe 	bl	0 <core::panicking::panic>
 25c:	defe      	udf	#254	; 0xfe
_ZN3app10app_sensor15get_temperature17h6296b9e58d842b05E():
/Users/Luppy/mynewt/stm32bluepill-mynewt-sensor/rust/app/src/app_sensor.rs:116
            assert!(rc == 0);
 25e:	f240 0000 	movw	r0, #0
 262:	f2c0 0000 	movt	r0, #0
 266:	f7ff fffe 	bl	0 <core::panicking::panic>
 26a:	defe      	udf	#254	; 0xfe
/Users/Luppy/mynewt/stm32bluepill-mynewt-sensor/rust/app/src/app_sensor.rs:129
            assert!(rc == 0);
 26c:	f240 0000 	movw	r0, #0
 270:	f2c0 0000 	movt	r0, #0
 274:	f7ff fffe 	bl	0 <core::panicking::panic>
 278:	defe      	udf	#254	; 0xfe

Disassembly of section .text.main:

00000000 <main>:
main():
/Users/Luppy/mynewt/stm32bluepill-mynewt-sensor/rust/app/src/lib.rs:50
use crate::app_base::*;             //  Import `app_base.rs` for common declarations

///  Main program that initialises the sensor, network driver and starts reading and sending sensor data in the background.
///  main() will be called at Mynewt startup. It replaces the C version of the main() function.
#[no_mangle]                     //  Don't mangle the name "main"
extern "C" fn main() -> ! {  //  Declare extern "C" because it will be called by Mynewt
   0:	b086      	sub	sp, #24
/Users/Luppy/mynewt/stm32bluepill-mynewt-sensor/rust/app/src/lib.rs:56
    //  Initialise the Mynewt packages and BME280 / temp_stm32 temperature sensor driver.
    //  Start the CoAP / OIC Background Task to transmit CoAP messages.  Any startup
    //  functions defined in pkg.yml of our custom drivers and libraries will be called by 
    //  sysinit().  Here are the startup functions consolidated by Mynewt:
    //  bin/targets/bluepill_my_sensor/generated/src/bluepill_my_sensor-sysinit-app.c
    unsafe { app_base::rust_sysinit(); console_flush() };
   2:	f7ff fffe 	bl	0 <rust_sysinit>
   6:	f7ff fffe 	bl	0 <console_flush>
_ZN3app8app_base13console_print17h1db64f4bd159062eE():
/Users/Luppy/mynewt/stm32bluepill-mynewt-sensor/rust/app/src/app_base.rs:18
   a:	f240 0000 	movw	r0, #0
   e:	210f      	movs	r1, #15
  10:	f2c0 0000 	movt	r0, #0
  14:	f7ff fffe 	bl	0 <console_buffer>
/Users/Luppy/mynewt/stm32bluepill-mynewt-sensor/rust/app/src/app_base.rs:19
        console_flush();  //  TODO: Remove this.
  18:	f7ff fffe 	bl	0 <console_flush>
_ZN3app10app_sensor21start_sensor_listener17h6305ebcaba950138E():
/Users/Luppy/mynewt/stm32bluepill-mynewt-sensor/rust/app/src/app_sensor.rs:52
    sensor::set_poll_rate_ms(&SENSOR_DEVICE, SENSOR_POLL_TIME) ? ;
  1c:	f240 0000 	movw	r0, #0
  20:	f242 7110 	movw	r1, #10000	; 0x2710
  24:	f2c0 0000 	movt	r0, #0
  28:	f7ff fffe 	bl	0 <mynewt::hw::sensor::bindings::set_poll_rate_ms>
  2c:	2801      	cmp	r0, #1
  2e:	d147      	bne.n	c0 <main+0xc0>
/Users/Luppy/mynewt/stm32bluepill-mynewt-sensor/rust/app/src/app_sensor.rs:55
    let sensor = sensor::mgr_find_next_bydevname(&SENSOR_DEVICE, unsafe { null_sensor() }) ? ;
  30:	f7ff fffe 	bl	0 <null_sensor>
  34:	f240 0100 	movw	r1, #0
  38:	4602      	mov	r2, r0
  3a:	4668      	mov	r0, sp
  3c:	f2c0 0100 	movt	r1, #0
  40:	f7ff fffe 	bl	0 <mynewt::hw::sensor::bindings::mgr_find_next_bydevname>
_ZN73_$LT$core..result..Result$LT$T$C$E$GT$$u20$as$u20$core..ops..try..Try$GT$11into_result17h43143ffffefcd0f1E():
/rustc/50a0defd5a93523067ef239936cc2e0755220904/src/libcore/result.rs:1283
  44:	e9dd 0400 	ldrd	r0, r4, [sp]
_ZN3app10app_sensor21start_sensor_listener17h6305ebcaba950138E():
/Users/Luppy/mynewt/stm32bluepill-mynewt-sensor/rust/app/src/app_sensor.rs:55
  48:	2801      	cmp	r0, #1
  4a:	d017      	beq.n	7c <main+0x7c>
/Users/Luppy/mynewt/stm32bluepill-mynewt-sensor/rust/app/src/app_sensor.rs:56
    assert!(unsafe{ !is_null_sensor(sensor) });
  4c:	4620      	mov	r0, r4
  4e:	f7ff fffe 	bl	0 <is_null_sensor>
  52:	2800      	cmp	r0, #0
  54:	d145      	bne.n	e2 <main+0xe2>
/Users/Luppy/mynewt/stm32bluepill-mynewt-sensor/rust/app/src/app_sensor.rs:61
        sl_func       : sensor::as_untyped(handle_sensor_data),  //  Listener function
  56:	f240 0000 	movw	r0, #0
  5a:	f2c0 0000 	movt	r0, #0
  5e:	f7ff fffe 	bl	0 <mynewt::hw::sensor::as_untyped>
  62:	2100      	movs	r1, #0
  64:	f04f 6280 	mov.w	r2, #67108864	; 0x4000000
/Users/Luppy/mynewt/stm32bluepill-mynewt-sensor/rust/app/src/app_sensor.rs:66
    sensor::register_listener(sensor, listener)?;  //  `?` means in case of error, return error now.
  68:	9101      	str	r1, [sp, #4]
  6a:	9200      	str	r2, [sp, #0]
  6c:	9104      	str	r1, [sp, #16]
  6e:	e9cd 0102 	strd	r0, r1, [sp, #8]
  72:	4669      	mov	r1, sp
  74:	4620      	mov	r0, r4
  76:	f7ff fffe 	bl	0 <mynewt::hw::sensor::register_listener>
  7a:	4604      	mov	r4, r0
_ZN4core6result19Result$LT$T$C$E$GT$6expect17h1415bf1e9cd2cea1E():
/rustc/50a0defd5a93523067ef239936cc2e0755220904/src/libcore/result.rs:826
  7c:	2c01      	cmp	r4, #1
  7e:	d120      	bne.n	c2 <main+0xc2>
main():
/Users/Luppy/mynewt/stm32bluepill-mynewt-sensor/rust/app/src/lib.rs:63
    //  Starting polling the temperature sensor every 10 seconds in the background.
    app_sensor::start_sensor_listener()
        .expect("TMP fail");

    //  Start the Server Transport for sending sensor data to CoAP Server over NB-IoT.
    sensor_network::start_server_transport()
  80:	f7ff fffe 	bl	0 <mynewt::libs::sensor_network::start_server_transport>
_ZN4core6result19Result$LT$T$C$E$GT$6expect17h1415bf1e9cd2cea1E():
/rustc/50a0defd5a93523067ef239936cc2e0755220904/src/libcore/result.rs:826
  84:	2801      	cmp	r0, #1
  86:	d124      	bne.n	d2 <main+0xd2>
main():
  88:	466c      	mov	r4, sp
/Users/Luppy/mynewt/stm32bluepill-mynewt-sensor/rust/app/src/lib.rs:69
        .expect("NET fail");

    //  Main event loop
    loop {                            //  Loop forever...
        os::eventq_run(               //  Processing events...
            os::eventq_dflt_get()     //  From default event queue.
  8a:	4620      	mov	r0, r4
  8c:	f7ff fffe 	bl	0 <mynewt::kernel::os::eventq_dflt_get>
_ZN4core6result19Result$LT$T$C$E$GT$6expect17h7103b9525d683fe6E():
/rustc/50a0defd5a93523067ef239936cc2e0755220904/src/libcore/result.rs:826
  90:	9800      	ldr	r0, [sp, #0]
  92:	2801      	cmp	r0, #1
  94:	d00c      	beq.n	b0 <main+0xb0>
  96:	9801      	ldr	r0, [sp, #4]
main():
/Users/Luppy/mynewt/stm32bluepill-mynewt-sensor/rust/app/src/lib.rs:68
        os::eventq_run(               //  Processing events...
  98:	f7ff fffe 	bl	0 <mynewt::kernel::os::eventq_run>
_ZN4core6result19Result$LT$T$C$E$GT$6expect17h1415bf1e9cd2cea1E():
/rustc/50a0defd5a93523067ef239936cc2e0755220904/src/libcore/result.rs:826
  9c:	2801      	cmp	r0, #1
  9e:	d0f4      	beq.n	8a <main+0x8a>
main():
  a0:	4601      	mov	r1, r0
_ZN4core6result19Result$LT$T$C$E$GT$6expect17h1415bf1e9cd2cea1E():
/rustc/50a0defd5a93523067ef239936cc2e0755220904/src/libcore/result.rs:827
  a2:	f240 0000 	movw	r0, #0
  a6:	f2c0 0000 	movt	r0, #0
  aa:	f7ff fffe 	bl	0 <main>
  ae:	defe      	udf	#254	; 0xfe
_ZN4core6result19Result$LT$T$C$E$GT$6expect17h7103b9525d683fe6E():
/rustc/50a0defd5a93523067ef239936cc2e0755220904/src/libcore/result.rs:827
  b0:	9901      	ldr	r1, [sp, #4]
  b2:	f240 0000 	movw	r0, #0
  b6:	f2c0 0000 	movt	r0, #0
  ba:	f7ff fffe 	bl	0 <main>
  be:	defe      	udf	#254	; 0xfe
main():
  c0:	4604      	mov	r4, r0
_ZN4core6result19Result$LT$T$C$E$GT$6expect17h1415bf1e9cd2cea1E():
/rustc/50a0defd5a93523067ef239936cc2e0755220904/src/libcore/result.rs:827
  c2:	f240 0000 	movw	r0, #0
  c6:	4621      	mov	r1, r4
  c8:	f2c0 0000 	movt	r0, #0
  cc:	f7ff fffe 	bl	0 <main>
  d0:	defe      	udf	#254	; 0xfe
main():
  d2:	4601      	mov	r1, r0
_ZN4core6result19Result$LT$T$C$E$GT$6expect17h1415bf1e9cd2cea1E():
/rustc/50a0defd5a93523067ef239936cc2e0755220904/src/libcore/result.rs:827
  d4:	f240 0000 	movw	r0, #0
  d8:	f2c0 0000 	movt	r0, #0
  dc:	f7ff fffe 	bl	0 <main>
  e0:	defe      	udf	#254	; 0xfe
_ZN3app10app_sensor21start_sensor_listener17h6305ebcaba950138E():
/Users/Luppy/mynewt/stm32bluepill-mynewt-sensor/rust/app/src/app_sensor.rs:56
    assert!(unsafe{ !is_null_sensor(sensor) });
  e2:	f240 0000 	movw	r0, #0
  e6:	f2c0 0000 	movt	r0, #0
  ea:	f7ff fffe 	bl	0 <core::panicking::panic>
  ee:	defe      	udf	#254	; 0xfe

Disassembly of section .text.rust_begin_unwind:

00000000 <rust_begin_unwind>:
rust_begin_unwind():
/Users/Luppy/mynewt/stm32bluepill-mynewt-sensor/rust/app/src/lib.rs:80

///  This function is called on panic, like an assertion failure. We display the filename and line number and pause in the debugger. From https://os.phil-opp.com/freestanding-rust-binary/
#[panic_handler]
fn panic(info: &PanicInfo) -> ! {
    //  Display the filename and line number to the Semihosting Console.
    if let Some(location) = info.location() {
   0:	f7ff fffe 	bl	0 <core::panic::PanicInfo::location>
   4:	b338      	cbz	r0, 56 <rust_begin_unwind+0x56>
   6:	4604      	mov	r4, r0
/Users/Luppy/mynewt/stm32bluepill-mynewt-sensor/rust/app/src/lib.rs:81
        let file = location.file();
   8:	f7ff fffe 	bl	0 <core::panic::Location::file>
   c:	4605      	mov	r5, r0
/Users/Luppy/mynewt/stm32bluepill-mynewt-sensor/rust/app/src/lib.rs:82
        let line = location.line();
   e:	4620      	mov	r0, r4
/Users/Luppy/mynewt/stm32bluepill-mynewt-sensor/rust/app/src/lib.rs:81
        let file = location.file();
  10:	460e      	mov	r6, r1
/Users/Luppy/mynewt/stm32bluepill-mynewt-sensor/rust/app/src/lib.rs:82
        let line = location.line();
  12:	f7ff fffe 	bl	0 <core::panic::Location::line>
  16:	4604      	mov	r4, r0
_ZN3app8app_base13console_print17h1db64f4bd159062eE():
/Users/Luppy/mynewt/stm32bluepill-mynewt-sensor/rust/app/src/app_base.rs:18
        console_buffer(msg.as_ptr(), len as u32);
  18:	f240 0000 	movw	r0, #0
  1c:	f2c0 0000 	movt	r0, #0
  20:	2109      	movs	r1, #9
  22:	f7ff fffe 	bl	0 <console_buffer>
/Users/Luppy/mynewt/stm32bluepill-mynewt-sensor/rust/app/src/app_base.rs:19
        console_flush();  //  TODO: Remove this.
  26:	f7ff fffe 	bl	0 <console_flush>
rust_begin_unwind():
/Users/Luppy/mynewt/stm32bluepill-mynewt-sensor/rust/app/src/lib.rs:84
        console_print(b"panic at ");
        unsafe { console_buffer(file.as_ptr(), file.len() as u32) }
  2a:	4628      	mov	r0, r5
  2c:	4631      	mov	r1, r6
  2e:	f7ff fffe 	bl	0 <console_buffer>
_ZN3app8app_base13console_print17h1db64f4bd159062eE():
/Users/Luppy/mynewt/stm32bluepill-mynewt-sensor/rust/app/src/app_base.rs:18
        console_buffer(msg.as_ptr(), len as u32);
  32:	f240 0000 	movw	r0, #0
  36:	2108      	movs	r1, #8
  38:	f2c0 0000 	movt	r0, #0
  3c:	f7ff fffe 	bl	0 <console_buffer>
/Users/Luppy/mynewt/stm32bluepill-mynewt-sensor/rust/app/src/app_base.rs:19
        console_flush();  //  TODO: Remove this.
  40:	f7ff fffe 	bl	0 <console_flush>
rust_begin_unwind():
/Users/Luppy/mynewt/stm32bluepill-mynewt-sensor/rust/app/src/lib.rs:86
        console_print(b" line 0x");
        unsafe { console_printhex(line as u8) }  //  TODO: Print in decimal not hex. Allow more than 255 lines.
  44:	b2e0      	uxtb	r0, r4
  46:	f7ff fffe 	bl	0 <console_printhex>
_ZN3app8app_base13console_print17h1db64f4bd159062eE():
/Users/Luppy/mynewt/stm32bluepill-mynewt-sensor/rust/app/src/app_base.rs:18
        console_buffer(msg.as_ptr(), len as u32);
  4a:	f240 0000 	movw	r0, #0
  4e:	2101      	movs	r1, #1
  50:	f2c0 0000 	movt	r0, #0
  54:	e004      	b.n	c <rust_begin_unwind+0xc>
  56:	f240 0000 	movw	r0, #0
  5a:	2112      	movs	r1, #18
  5c:	f2c0 0000 	movt	r0, #0
rust_begin_unwind():
  60:	f7ff fffe 	bl	0 <console_buffer>
  64:	f7ff fffe 	bl	0 <console_flush>
  68:	f7ff fffe 	bl	0 <console_flush>
_ZN8cortex_m3asm4bkpt17h756c5667fd4cf09cE():
/Users/Luppy/.cargo/registry/src/github.com-1ecc6299db9ec823/cortex-m-0.6.0/src/asm.rs:19
        () => unsafe {
            extern "C" {
                fn __bkpt();
            }

            __bkpt();
  6c:	f7ff fffe 	bl	0 <__bkpt>
rust_begin_unwind():
/Users/Luppy/mynewt/stm32bluepill-mynewt-sensor/rust/app/src/lib.rs:96
        unsafe { console_flush() }
    }
    //  Pause in the debugger.
    bkpt();
    //  Loop forever so that device won't restart.
    loop {}
  70:	e7fe      	b.n	70 <rust_begin_unwind+0x70>

as_slice-1b2be7b00dce2d1f.as_slice.1ah3y62u-cgu.0.rcgu.o:     file format elf32-littlearm

SYMBOL TABLE:
00000000 l    df *ABS*	00000000 as_slice.1ah3y62u-cgu.0



bare_metal-054f093981ad13a9.bare_metal.agoid89k-cgu.0.rcgu.o:     file format elf32-littlearm

SYMBOL TABLE:
00000000 l    df *ABS*	00000000 bare_metal.agoid89k-cgu.0
00000109 l       .debug_str	00000000 
00000000 l       .debug_str	00000000 
00000041 l       .debug_str	00000000 
0000009a l       .debug_str	00000000 
000000e8 l       .debug_str	00000000 
000000f3 l       .debug_str	00000000 
00000142 l       .debug_str	00000000 
000000f6 l       .debug_str	00000000 
000000f9 l       .debug_str	00000000 
00000000 l    d  .text._ZN10bare_metal15CriticalSection3new17h3a47390f9e9891e0E	00000000 .text._ZN10bare_metal15CriticalSection3new17h3a47390f9e9891e0E
00000000 l    d  .debug_abbrev	00000000 .debug_abbrev
00000000 l    d  .debug_info	00000000 .debug_info
00000000 l    d  .debug_frame	00000000 .debug_frame
00000000 l    d  .debug_line	00000000 .debug_line
00000000 g     F .text._ZN10bare_metal15CriticalSection3new17h3a47390f9e9891e0E	00000002 bare_metal::CriticalSection::new



Disassembly of section .text._ZN10bare_metal15CriticalSection3new17h3a47390f9e9891e0E:

00000000 <bare_metal::CriticalSection::new>:
_ZN10bare_metal15CriticalSection3new17h3a47390f9e9891e0E():
/Users/Luppy/.cargo/registry/src/github.com-1ecc6299db9ec823/bare-metal-0.2.4/src/lib.rs:68
    ///
    /// This method is meant to be used to create safe abstractions rather than
    /// meant to be directly used in applications.
    pub unsafe fn new() -> Self {
        CriticalSection { _0: () }
    }
   0:	4770      	bx	lr

cortex-m-v7.o:     file format elf32-littlearm

SYMBOL TABLE:
00000000 l    d  .text	00000000 .text
00000000 l    d  .data	00000000 .data
00000000 l    d  .bss	00000000 .bss
00000000 l    d  .text.__basepri_max	00000000 .text.__basepri_max
00000000 l    d  .text.__basepri_r	00000000 .text.__basepri_r
00000000 l    d  .text.__basepri_w	00000000 .text.__basepri_w
00000000 l    d  .text.__faultmask	00000000 .text.__faultmask
00000000 l    d  .ARM.attributes	00000000 .ARM.attributes
00000000 g     F .text.__basepri_max	00000000 __basepri_max
00000000 g     F .text.__basepri_r	00000000 __basepri_r
00000000 g     F .text.__basepri_w	00000000 __basepri_w
00000000 g     F .text.__faultmask	00000000 __faultmask



Disassembly of section .text.__basepri_max:

00000000 <__basepri_max>:
__basepri_max():
   0:	f380 8812 	msr	BASEPRI_MAX, r0
   4:	4770      	bx	lr

Disassembly of section .text.__basepri_r:

00000000 <__basepri_r>:
__basepri_r():
   0:	f3ef 8011 	mrs	r0, BASEPRI
   4:	4770      	bx	lr

Disassembly of section .text.__basepri_w:

00000000 <__basepri_w>:
__basepri_w():
   0:	f380 8811 	msr	BASEPRI, r0
   4:	4770      	bx	lr

Disassembly of section .text.__faultmask:

00000000 <__faultmask>:
__faultmask():
   0:	f3ef 8013 	mrs	r0, FAULTMASK
   4:	4770      	bx	lr

cortex-m.o:     file format elf32-littlearm

SYMBOL TABLE:
00000000 l    d  .text	00000000 .text
00000000 l    d  .data	00000000 .data
00000000 l    d  .bss	00000000 .bss
00000000 l    d  .text.__bkpt	00000000 .text.__bkpt
00000000 l    d  .text.__control	00000000 .text.__control
00000000 l    d  .text.__cpsid	00000000 .text.(char, short *, int, double)
00000000 l    d  .text.__cpsie	00000000 .text.(char, short *, int,...)
00000000 l    d  .text.__delay	00000000 .text.__delay
00000000 l    d  .text.__dmb	00000000 .text.__dmb
00000000 l    d  .text.__dsb	00000000 .text.(double, short, bool)
00000000 l    d  .text.__isb	00000000 .text.(int, short, bool)
00000000 l    d  .text.__msp_r	00000000 .text.__msp_r
00000000 l    d  .text.__msp_w	00000000 .text.__msp_w
00000000 l    d  .text.__nop	00000000 .text.__nop
00000000 l    d  .text.__primask	00000000 .text.__primask
00000000 l    d  .text.__psp_r	00000000 .text.__psp_r
00000000 l    d  .text.__psp_w	00000000 .text.__psp_w
00000000 l    d  .text.__sev	00000000 .text.(short,...)(void)
00000000 l    d  .text.__wfe	00000000 .text.(wchar_t, float,...)
00000000 l    d  .text.__wfi	00000000 .text.(wchar_t, float, int)
00000000 l    d  .ARM.attributes	00000000 .ARM.attributes
00000000 g     F .text.__bkpt	00000000 __bkpt
00000000 g     F .text.__control	00000000 __control
00000000 g     F .text.__cpsid	00000000 __cpsid
00000000 g     F .text.__cpsie	00000000 __cpsie
00000000 g     F .text.__delay	00000000 __delay
00000000 g     F .text.__dmb	00000000 __dmb
00000000 g     F .text.__dsb	00000000 __dsb
00000000 g     F .text.__isb	00000000 __isb
00000000 g     F .text.__msp_r	00000000 __msp_r
00000000 g     F .text.__msp_w	00000000 __msp_w
00000000 g     F .text.__nop	00000000 __nop
00000000 g     F .text.__primask	00000000 __primask
00000000 g     F .text.__psp_r	00000000 __psp_r
00000000 g     F .text.__psp_w	00000000 __psp_w
00000000 g     F .text.__sev	00000000 __sev
00000000 g     F .text.__wfe	00000000 __wfe
00000000 g     F .text.__wfi	00000000 __wfi



Disassembly of section .text.__bkpt:

00000000 <__bkpt>:
__bkpt():
   0:	be00      	bkpt	0x0000
   2:	4770      	bx	lr

Disassembly of section .text.__control:

00000000 <__control>:
__control():
   0:	f3ef 8014 	mrs	r0, CONTROL
   4:	4770      	bx	lr

Disassembly of section .text.__cpsid:

00000000 <__cpsid>:
__cpsid():
   0:	b672      	cpsid	i
   2:	4770      	bx	lr

Disassembly of section .text.__cpsie:

00000000 <__cpsie>:
__cpsie():
   0:	b662      	cpsie	i
   2:	4770      	bx	lr

Disassembly of section .text.__delay:

00000000 <__delay>:
__delay():
   0:	bf00      	nop
   2:	3801      	subs	r0, #1
   4:	f47f affe 	bne.w	0 <__delay>
   8:	4770      	bx	lr

Disassembly of section .text.__dmb:

00000000 <__dmb>:
__dmb():
   0:	f3bf 8f5f 	dmb	sy
   4:	4770      	bx	lr

Disassembly of section .text.__dsb:

00000000 <__dsb>:
__dsb():
   0:	f3bf 8f4f 	dsb	sy
   4:	4770      	bx	lr

Disassembly of section .text.__isb:

00000000 <__isb>:
__isb():
   0:	f3bf 8f6f 	isb	sy
   4:	4770      	bx	lr

Disassembly of section .text.__msp_r:

00000000 <__msp_r>:
__msp_r():
   0:	f3ef 8008 	mrs	r0, MSP
   4:	4770      	bx	lr

Disassembly of section .text.__msp_w:

00000000 <__msp_w>:
__msp_w():
   0:	f380 8808 	msr	MSP, r0
   4:	4770      	bx	lr

Disassembly of section .text.__nop:

00000000 <__nop>:
__nop():
   0:	4770      	bx	lr

Disassembly of section .text.__primask:

00000000 <__primask>:
__primask():
   0:	f3ef 8010 	mrs	r0, PRIMASK
   4:	4770      	bx	lr

Disassembly of section .text.__psp_r:

00000000 <__psp_r>:
__psp_r():
   0:	f3ef 8009 	mrs	r0, PSP
   4:	4770      	bx	lr

Disassembly of section .text.__psp_w:

00000000 <__psp_w>:
__psp_w():
   0:	f380 8809 	msr	PSP, r0
   4:	4770      	bx	lr

Disassembly of section .text.__sev:

00000000 <__sev>:
__sev():
   0:	bf40      	sev
   2:	4770      	bx	lr

Disassembly of section .text.__wfe:

00000000 <__wfe>:
__wfe():
   0:	bf20      	wfe
   2:	4770      	bx	lr

Disassembly of section .text.__wfi:

00000000 <__wfi>:
__wfi():
   0:	bf30      	wfi
   2:	4770      	bx	lr

cortex_m-227e1b5697658e5e.cortex_m.7fph9s8g-cgu.0.rcgu.o:     file format elf32-littlearm

SYMBOL TABLE:
00000000 l    df *ABS*	00000000 cortex_m.7fph9s8g-cgu.0
00003102 l       .debug_str	00000000 
00002956 l       .debug_str	00000000 
00002961 l       .debug_str	00000000 
000029d2 l       .debug_str	00000000 
000029e4 l       .debug_str	00000000 
00002a50 l       .debug_str	00000000 
00002a5d l       .debug_str	00000000 
00002ac9 l       .debug_str	00000000 
00002ad6 l       .debug_str	00000000 
00002b42 l       .debug_str	00000000 
00002b4f l       .debug_str	00000000 
00002bbe l       .debug_str	00000000 
00002bcc l       .debug_str	00000000 
00002c3d l       .debug_str	00000000 
00002cb0 l       .debug_str	00000000 
00002d20 l       .debug_str	00000000 
00002d92 l       .debug_str	00000000 
00002e04 l       .debug_str	00000000 
00002e15 l       .debug_str	00000000 
00002e82 l       .debug_str	00000000 
00002e8e l       .debug_str	00000000 
00002efa l       .debug_str	00000000 
00002f05 l       .debug_str	00000000 
00002f79 l       .debug_str	00000000 
00002f8c l       .debug_str	00000000 
00003001 l       .debug_str	00000000 
00003015 l       .debug_str	00000000 
00003082 l       .debug_str	00000000 
0000308e l       .debug_str	00000000 
00003115 l       .debug_str	00000000 
0000318b l       .debug_str	00000000 
000031a0 l       .debug_str	00000000 
0000320c l       .debug_str	00000000 
00003217 l       .debug_str	00000000 
00003289 l       .debug_str	00000000 
0000329a l       .debug_str	00000000 
00003306 l       .debug_str	00000000 
00003311 l       .debug_str	00000000 
00003351 l       .debug_str	00000000 
00003357 l       .debug_str	00000000 
0000338c l       .debug_str	00000000 
00003390 l       .debug_str	00000000 
000033c5 l       .debug_str	00000000 
000033c9 l       .debug_str	00000000 
000033d1 l       .debug_str	00000000 
000033d9 l       .debug_str	00000000 
000033e3 l       .debug_str	00000000 
000033eb l       .debug_str	00000000 
000033f3 l       .debug_str	00000000 
000033f9 l       .debug_str	00000000 
00003401 l       .debug_str	00000000 
00003409 l       .debug_str	00000000 
0000340f l       .debug_str	00000000 
00003418 l       .debug_str	00000000 
0000341f l       .debug_str	00000000 
00003426 l       .debug_str	00000000 
00003434 l       .debug_str	00000000 
00003464 l       .debug_str	00000000 
000034c9 l       .debug_str	00000000 
000034cf l       .debug_str	00000000 
000034f9 l       .debug_str	00000000 
00003530 l       .debug_str	00000000 
00003535 l       .debug_str	00000000 
00003540 l       .debug_str	00000000 
00003544 l       .debug_str	00000000 
00003548 l       .debug_str	00000000 
0000354c l       .debug_str	00000000 
00003551 l       .debug_str	00000000 
00003556 l       .debug_str	00000000 
00003561 l       .debug_str	00000000 
00003567 l       .debug_str	00000000 
0000356b l       .debug_str	00000000 
00003572 l       .debug_str	00000000 
00003579 l       .debug_str	00000000 
000035ab l       .debug_str	00000000 
00003612 l       .debug_str	00000000 
0000363e l       .debug_str	00000000 
00003673 l       .debug_str	00000000 
00003679 l       .debug_str	00000000 
0000367f l       .debug_str	00000000 
00003685 l       .debug_str	00000000 
0000368b l       .debug_str	00000000 
000036bb l       .debug_str	00000000 
00003720 l       .debug_str	00000000 
0000374a l       .debug_str	00000000 
0000377f l       .debug_str	00000000 
00003784 l       .debug_str	00000000 
0000378b l       .debug_str	00000000 
00003792 l       .debug_str	00000000 
00003799 l       .debug_str	00000000 
000037a2 l       .debug_str	00000000 
000037a9 l       .debug_str	00000000 
000037b1 l       .debug_str	00000000 
000037b6 l       .debug_str	00000000 
000037bb l       .debug_str	00000000 
000037c0 l       .debug_str	00000000 
000037c9 l       .debug_str	00000000 
000037d4 l       .debug_str	00000000 
000037d8 l       .debug_str	00000000 
000037dc l       .debug_str	00000000 
0000380c l       .debug_str	00000000 
00003871 l       .debug_str	00000000 
0000389b l       .debug_str	00000000 
000038d0 l       .debug_str	00000000 
000038d4 l       .debug_str	00000000 
000038da l       .debug_str	00000000 
0000390a l       .debug_str	00000000 
0000396f l       .debug_str	00000000 
00003999 l       .debug_str	00000000 
000039ce l       .debug_str	00000000 
000039d2 l       .debug_str	00000000 
000039dc l       .debug_str	00000000 
000039e0 l       .debug_str	00000000 
000039ea l       .debug_str	00000000 
000039ee l       .debug_str	00000000 
000039f8 l       .debug_str	00000000 
00003a26 l       .debug_str	00000000 
00003a8b l       .debug_str	00000000 
00003ab5 l       .debug_str	00000000 
00003b21 l       .debug_str	00000000 
00003b2b l       .debug_str	00000000 
00003b59 l       .debug_str	00000000 
00003b8e l       .debug_str	00000000 
00003b92 l       .debug_str	00000000 
00003b98 l       .debug_str	00000000 
00003b9c l       .debug_str	00000000 
00003ba1 l       .debug_str	00000000 
00003ba6 l       .debug_str	00000000 
00003bae l       .debug_str	00000000 
00003bb6 l       .debug_str	00000000 
00003bbe l       .debug_str	00000000 
00003bc6 l       .debug_str	00000000 
00003bce l       .debug_str	00000000 
00003bd6 l       .debug_str	00000000 
00003c06 l       .debug_str	00000000 
00003c6b l       .debug_str	00000000 
00003c95 l       .debug_str	00000000 
00003ccb l       .debug_str	00000000 
00003cd0 l       .debug_str	00000000 
00003cd5 l       .debug_str	00000000 
00003cda l       .debug_str	00000000 
00003ce5 l       .debug_str	00000000 
00003cea l       .debug_str	00000000 
00003cf5 l       .debug_str	00000000 
00003cfa l       .debug_str	00000000 
00003d05 l       .debug_str	00000000 
00003d0a l       .debug_str	00000000 
00003d15 l       .debug_str	00000000 
00003d19 l       .debug_str	00000000 
00003d1e l       .debug_str	00000000 
00003d4f l       .debug_str	00000000 
00003db5 l       .debug_str	00000000 
00003de0 l       .debug_str	00000000 
00003e15 l       .debug_str	00000000 
00003e1a l       .debug_str	00000000 
00003e1f l       .debug_str	00000000 
00003e25 l       .debug_str	00000000 
00003e29 l       .debug_str	00000000 
00003e2e l       .debug_str	00000000 
00003e34 l       .debug_str	00000000 
00003e39 l       .debug_str	00000000 
00003e3e l       .debug_str	00000000 
00003e43 l       .debug_str	00000000 
00003e49 l       .debug_str	00000000 
00003e4e l       .debug_str	00000000 
00003e53 l       .debug_str	00000000 
00003e5e l       .debug_str	00000000 
00003e64 l       .debug_str	00000000 
00003e94 l       .debug_str	00000000 
00003ef9 l       .debug_str	00000000 
00003f23 l       .debug_str	00000000 
00003f59 l       .debug_str	00000000 
00003f5d l       .debug_str	00000000 
00003f61 l       .debug_str	00000000 
00003f65 l       .debug_str	00000000 
00003f6b l       .debug_str	00000000 
00003f9c l       .debug_str	00000000 
00004002 l       .debug_str	00000000 
0000402d l       .debug_str	00000000 
00004063 l       .debug_str	00000000 
00004068 l       .debug_str	00000000 
0000406e l       .debug_str	00000000 
00004074 l       .debug_str	00000000 
00004079 l       .debug_str	00000000 
0000407e l       .debug_str	00000000 
00004083 l       .debug_str	00000000 
0000408d l       .debug_str	00000000 
000040be l       .debug_str	00000000 
00004124 l       .debug_str	00000000 
0000414f l       .debug_str	00000000 
0000418e l       .debug_str	00000000 
000041ce l       .debug_str	00000000 
000041d4 l       .debug_str	00000000 
00004214 l       .debug_str	00000000 
0000421a l       .debug_str	00000000 
00004259 l       .debug_str	00000000 
0000425e l       .debug_str	00000000 
0000429f l       .debug_str	00000000 
000042a9 l       .debug_str	00000000 
000042ef l       .debug_str	00000000 
000042fd l       .debug_str	00000000 
00004364 l       .debug_str	00000000 
000043cc l       .debug_str	00000000 
00004437 l       .debug_str	00000000 
000044a3 l       .debug_str	00000000 
0000450a l       .debug_str	00000000 
0000456f l       .debug_str	00000000 
000045d4 l       .debug_str	00000000 
00004638 l       .debug_str	00000000 
0000469f l       .debug_str	00000000 
000046a5 l       .debug_str	00000000 
000046cc l       .debug_str	00000000 
000046d1 l       .debug_str	00000000 
000046ef l       .debug_str	00000000 
000046f6 l       .debug_str	00000000 
00004715 l       .debug_str	00000000 
00004734 l       .debug_str	00000000 
00004753 l       .debug_str	00000000 
00004762 l       .debug_str	00000000 
00004767 l       .debug_str	00000000 
00004787 l       .debug_str	00000000 
00004792 l       .debug_str	00000000 
000047ad l       .debug_str	00000000 
000047ca l       .debug_str	00000000 
000047e5 l       .debug_str	00000000 
00004800 l       .debug_str	00000000 
0000481b l       .debug_str	00000000 
00004836 l       .debug_str	00000000 
00004855 l       .debug_str	00000000 
00004870 l       .debug_str	00000000 
0000488c l       .debug_str	00000000 
000048a7 l       .debug_str	00000000 
000048c3 l       .debug_str	00000000 
000048df l       .debug_str	00000000 
00004905 l       .debug_str	00000000 
0000492c l       .debug_str	00000000 
00004935 l       .debug_str	00000000 
00004960 l       .debug_str	00000000 
0000496b l       .debug_str	00000000 
0000498f l       .debug_str	00000000 
000049b3 l       .debug_str	00000000 
00000000 l       .debug_str	00000000 
00000041 l       .debug_str	00000000 
00000098 l       .debug_str	00000000 
000000e4 l       .debug_str	00000000 
000000eb l       .debug_str	00000000 
000000f4 l       .debug_str	00000000 
000000f8 l       .debug_str	00000000 
000000fc l       .debug_str	00000000 
00000107 l       .debug_str	00000000 
00000110 l       .debug_str	00000000 
00000115 l       .debug_str	00000000 
0000011a l       .debug_str	00000000 
00000120 l       .debug_str	00000000 
00000124 l       .debug_str	00000000 
00000126 l       .debug_str	00000000 
00000136 l       .debug_str	00000000 
0000013b l       .debug_str	00000000 
00000160 l       .debug_str	00000000 
00000165 l       .debug_str	00000000 
0000017e l       .debug_str	00000000 
0000018f l       .debug_str	00000000 
00000194 l       .debug_str	00000000 
00000197 l       .debug_str	00000000 
0000019b l       .debug_str	00000000 
0000019f l       .debug_str	00000000 
000001ae l       .debug_str	00000000 
000001b8 l       .debug_str	00000000 
000001c9 l       .debug_str	00000000 
000001d2 l       .debug_str	00000000 
000001dd l       .debug_str	00000000 
000001e4 l       .debug_str	00000000 
000001f1 l       .debug_str	00000000 
000001f8 l       .debug_str	00000000 
00000200 l       .debug_str	00000000 
0000020a l       .debug_str	00000000 
00000230 l       .debug_str	00000000 
00000235 l       .debug_str	00000000 
0000023c l       .debug_str	00000000 
0000023f l       .debug_str	00000000 
00000243 l       .debug_str	00000000 
0000024a l       .debug_str	00000000 
0000024e l       .debug_str	00000000 
00000251 l       .debug_str	00000000 
00000254 l       .debug_str	00000000 
00000259 l       .debug_str	00000000 
0000025f l       .debug_str	00000000 
00000266 l       .debug_str	00000000 
0000026e l       .debug_str	00000000 
00000278 l       .debug_str	00000000 
0000027f l       .debug_str	00000000 
00000284 l       .debug_str	00000000 
00000289 l       .debug_str	00000000 
00000290 l       .debug_str	00000000 
00000296 l       .debug_str	00000000 
000002a4 l       .debug_str	00000000 
000002b0 l       .debug_str	00000000 
000002c0 l       .debug_str	00000000 
000002ce l       .debug_str	00000000 
000002d3 l       .debug_str	00000000 
000002d8 l       .debug_str	00000000 
000002e1 l       .debug_str	00000000 
000002ef l       .debug_str	00000000 
000002f7 l       .debug_str	00000000 
00000302 l       .debug_str	00000000 
0000030f l       .debug_str	00000000 
00000315 l       .debug_str	00000000 
00000319 l       .debug_str	00000000 
0000031d l       .debug_str	00000000 
00000323 l       .debug_str	00000000 
0000032a l       .debug_str	00000000 
00000334 l       .debug_str	00000000 
00000339 l       .debug_str	00000000 
00000343 l       .debug_str	00000000 
0000034c l       .debug_str	00000000 
00000356 l       .debug_str	00000000 
0000035e l       .debug_str	00000000 
00000366 l       .debug_str	00000000 
0000036a l       .debug_str	00000000 
00000373 l       .debug_str	00000000 
000003d0 l       .debug_str	00000000 
000003d5 l       .debug_str	00000000 
000003d7 l       .debug_str	00000000 
000003dd l       .debug_str	00000000 
000003e2 l       .debug_str	00000000 
000003e7 l       .debug_str	00000000 
000003ed l       .debug_str	00000000 
000003f3 l       .debug_str	00000000 
000003f9 l       .debug_str	00000000 
00000407 l       .debug_str	00000000 
00000411 l       .debug_str	00000000 
00000415 l       .debug_str	00000000 
0000041d l       .debug_str	00000000 
00000425 l       .debug_str	00000000 
00000439 l       .debug_str	00000000 
00000445 l       .debug_str	00000000 
00000450 l       .debug_str	00000000 
00000457 l       .debug_str	00000000 
0000045d l       .debug_str	00000000 
00000461 l       .debug_str	00000000 
00000467 l       .debug_str	00000000 
0000046a l       .debug_str	00000000 
00000479 l       .debug_str	00000000 
00000480 l       .debug_str	00000000 
00000484 l       .debug_str	00000000 
0000048d l       .debug_str	00000000 
00000499 l       .debug_str	00000000 
000004b2 l       .debug_str	00000000 
000004b7 l       .debug_str	00000000 
000004c8 l       .debug_str	00000000 
000004d2 l       .debug_str	00000000 
00000530 l       .debug_str	00000000 
0000053b l       .debug_str	00000000 
00000558 l       .debug_str	00000000 
0000055c l       .debug_str	00000000 
00000564 l       .debug_str	00000000 
0000057b l       .debug_str	00000000 
0000059f l       .debug_str	00000000 
000005bb l       .debug_str	00000000 
000005c0 l       .debug_str	00000000 
000005c9 l       .debug_str	00000000 
000005d0 l       .debug_str	00000000 
000005e9 l       .debug_str	00000000 
000005f3 l       .debug_str	00000000 
0000060d l       .debug_str	00000000 
00000669 l       .debug_str	00000000 
00000671 l       .debug_str	00000000 
000006c0 l       .debug_str	00000000 
000006cc l       .debug_str	00000000 
000006d6 l       .debug_str	00000000 
000006df l       .debug_str	00000000 
000006e3 l       .debug_str	00000000 
000006ed l       .debug_str	00000000 
000006f2 l       .debug_str	00000000 
000006f6 l       .debug_str	00000000 
000006fb l       .debug_str	00000000 
00000702 l       .debug_str	00000000 
00000707 l       .debug_str	00000000 
0000070c l       .debug_str	00000000 
00000712 l       .debug_str	00000000 
00000717 l       .debug_str	00000000 
0000074a l       .debug_str	00000000 
0000076a l       .debug_str	00000000 
0000076c l       .debug_str	00000000 
000007c8 l       .debug_str	00000000 
000007d2 l       .debug_str	00000000 
000007d4 l       .debug_str	00000000 
000007d9 l       .debug_str	00000000 
00000809 l       .debug_str	00000000 
0000081c l       .debug_str	00000000 
00000820 l       .debug_str	00000000 
0000082b l       .debug_str	00000000 
00000870 l       .debug_str	00000000 
0000087e l       .debug_str	00000000 
0000089f l       .debug_str	00000000 
000008d3 l       .debug_str	00000000 
000008e1 l       .debug_str	00000000 
000008e6 l       .debug_str	00000000 
000008ed l       .debug_str	00000000 
000008f5 l       .debug_str	00000000 
00000900 l       .debug_str	00000000 
00000903 l       .debug_str	00000000 
00000905 l       .debug_str	00000000 
00000920 l       .debug_str	00000000 
00000945 l       .debug_str	00000000 
0000094b l       .debug_str	00000000 
00000950 l       .debug_str	00000000 
0000097f l       .debug_str	00000000 
00000989 l       .debug_str	00000000 
0000098f l       .debug_str	00000000 
00000993 l       .debug_str	00000000 
000009c4 l       .debug_str	00000000 
000009d8 l       .debug_str	00000000 
000009e1 l       .debug_str	00000000 
00000a21 l       .debug_str	00000000 
00000a2b l       .debug_str	00000000 
00000a5c l       .debug_str	00000000 
00000a6f l       .debug_str	00000000 
00000aae l       .debug_str	00000000 
00000ab7 l       .debug_str	00000000 
00000ae9 l       .debug_str	00000000 
00000af5 l       .debug_str	00000000 
00000afa l       .debug_str	00000000 
00000b00 l       .debug_str	00000000 
00000b07 l       .debug_str	00000000 
00000b09 l       .debug_str	00000000 
00000b0e l       .debug_str	00000000 
00000b14 l       .debug_str	00000000 
00000b1a l       .debug_str	00000000 
00000b1e l       .debug_str	00000000 
00000b2b l       .debug_str	00000000 
00000b32 l       .debug_str	00000000 
00000b36 l       .debug_str	00000000 
00000b67 l       .debug_str	00000000 
00000b7b l       .debug_str	00000000 
00000b84 l       .debug_str	00000000 
00000bc4 l       .debug_str	00000000 
00000bce l       .debug_str	00000000 
00000bff l       .debug_str	00000000 
00000c1e l       .debug_str	00000000 
00000c25 l       .debug_str	00000000 
00000c31 l       .debug_str	00000000 
00000c39 l       .debug_str	00000000 
00000c42 l       .debug_str	00000000 
00000c47 l       .debug_str	00000000 
00000c4a l       .debug_str	00000000 
00000c53 l       .debug_str	00000000 
00000c5a l       .debug_str	00000000 
00000c5d l       .debug_str	00000000 
00000c63 l       .debug_str	00000000 
00000c6d l       .debug_str	00000000 
00000c75 l       .debug_str	00000000 
00000c7b l       .debug_str	00000000 
00000c86 l       .debug_str	00000000 
00000c8f l       .debug_str	00000000 
00000cb2 l       .debug_str	00000000 
00000cd1 l       .debug_str	00000000 
00000cf8 l       .debug_str	00000000 
00000d02 l       .debug_str	00000000 
00000d97 l       .debug_str	00000000 
00000da3 l       .debug_str	00000000 
00000dc7 l       .debug_str	00000000 
00000dc9 l       .debug_str	00000000 
00000e14 l       .debug_str	00000000 
00000e24 l       .debug_str	00000000 
00000e28 l       .debug_str	00000000 
00000e36 l       .debug_str	00000000 
00000e3a l       .debug_str	00000000 
00000e3c l       .debug_str	00000000 
00000e3e l       .debug_str	00000000 
00000e85 l       .debug_str	00000000 
00000e91 l       .debug_str	00000000 
00000ee6 l       .debug_str	00000000 
00000ef0 l       .debug_str	00000000 
00000ef7 l       .debug_str	00000000 
00000f42 l       .debug_str	00000000 
00000f4d l       .debug_str	00000000 
00000f53 l       .debug_str	00000000 
00000f59 l       .debug_str	00000000 
00000f5f l       .debug_str	00000000 
00000f71 l       .debug_str	00000000 
00000faa l       .debug_str	00000000 
00000fb3 l       .debug_str	00000000 
00000fcd l       .debug_str	00000000 
00000fdf l       .debug_str	00000000 
00000fe7 l       .debug_str	00000000 
00001025 l       .debug_str	00000000 
00001030 l       .debug_str	00000000 
0000104c l       .debug_str	00000000 
00001056 l       .debug_str	00000000 
0000106d l       .debug_str	00000000 
00001073 l       .debug_str	00000000 
000010e3 l       .debug_str	00000000 
000010f0 l       .debug_str	00000000 
00001111 l       .debug_str	00000000 
00001117 l       .debug_str	00000000 
0000111b l       .debug_str	00000000 
0000111f l       .debug_str	00000000 
00001148 l       .debug_str	00000000 
0000114c l       .debug_str	00000000 
00001185 l       .debug_str	00000000 
0000118e l       .debug_str	00000000 
00001196 l       .debug_str	00000000 
000011d3 l       .debug_str	00000000 
000011dd l       .debug_str	00000000 
000011f9 l       .debug_str	00000000 
00001201 l       .debug_str	00000000 
00001203 l       .debug_str	00000000 
00001242 l       .debug_str	00000000 
00001256 l       .debug_str	00000000 
0000125a l       .debug_str	00000000 
00001267 l       .debug_str	00000000 
000012f1 l       .debug_str	00000000 
000012fd l       .debug_str	00000000 
000012ff l       .debug_str	00000000 
00001303 l       .debug_str	00000000 
00001342 l       .debug_str	00000000 
00001350 l       .debug_str	00000000 
000013db l       .debug_str	00000000 
0000140b l       .debug_str	00000000 
0000141d l       .debug_str	00000000 
0000145c l       .debug_str	00000000 
00001460 l       .debug_str	00000000 
00001475 l       .debug_str	00000000 
00001507 l       .debug_str	00000000 
00001509 l       .debug_str	00000000 
0000150d l       .debug_str	00000000 
0000154a l       .debug_str	00000000 
0000154e l       .debug_str	00000000 
00001559 l       .debug_str	00000000 
00001563 l       .debug_str	00000000 
00001568 l       .debug_str	00000000 
00001573 l       .debug_str	00000000 
000015b2 l       .debug_str	00000000 
000015c0 l       .debug_str	00000000 
0000164b l       .debug_str	00000000 
0000164f l       .debug_str	00000000 
0000168e l       .debug_str	00000000 
0000169e l       .debug_str	00000000 
0000172b l       .debug_str	00000000 
0000176a l       .debug_str	00000000 
0000177a l       .debug_str	00000000 
00001807 l       .debug_str	00000000 
00001846 l       .debug_str	00000000 
00001858 l       .debug_str	00000000 
000018e7 l       .debug_str	00000000 
00001926 l       .debug_str	00000000 
00001933 l       .debug_str	00000000 
000019bd l       .debug_str	00000000 
000019e6 l       .debug_str	00000000 
000019ea l       .debug_str	00000000 
00001a30 l       .debug_str	00000000 
00001a36 l       .debug_str	00000000 
00001a60 l       .debug_str	00000000 
00001a6f l       .debug_str	00000000 
00001a80 l       .debug_str	00000000 
00001ab9 l       .debug_str	00000000 
00001ac1 l       .debug_str	00000000 
00001ada l       .debug_str	00000000 
00001ae1 l       .debug_str	00000000 
00001b1f l       .debug_str	00000000 
00001b29 l       .debug_str	00000000 
00001b44 l       .debug_str	00000000 
00001b49 l       .debug_str	00000000 
00001b88 l       .debug_str	00000000 
00001b98 l       .debug_str	00000000 
00001c27 l       .debug_str	00000000 
00001c29 l       .debug_str	00000000 
00001c68 l       .debug_str	00000000 
00001c7a l       .debug_str	00000000 
00001d0b l       .debug_str	00000000 
00001d4a l       .debug_str	00000000 
00001d59 l       .debug_str	00000000 
00001de7 l       .debug_str	00000000 
00001e26 l       .debug_str	00000000 
00001e37 l       .debug_str	00000000 
00001ec7 l       .debug_str	00000000 
00001ecb l       .debug_str	00000000 
00001ecf l       .debug_str	00000000 
00001ed3 l       .debug_str	00000000 
00001ed7 l       .debug_str	00000000 
00001edb l       .debug_str	00000000 
00001ee0 l       .debug_str	00000000 
00001ee5 l       .debug_str	00000000 
00001ef1 l       .debug_str	00000000 
00001ef6 l       .debug_str	00000000 
00001efe l       .debug_str	00000000 
00001f65 l       .debug_str	00000000 
00001f68 l       .debug_str	00000000 
00001f8b l       .debug_str	00000000 
00001f91 l       .debug_str	00000000 
00001f9b l       .debug_str	00000000 
00001fa6 l       .debug_str	00000000 
00001fee l       .debug_str	00000000 
00001ff7 l       .debug_str	00000000 
0000203f l       .debug_str	00000000 
00002069 l       .debug_str	00000000 
000020b1 l       .debug_str	00000000 
000020b9 l       .debug_str	00000000 
000020ee l       .debug_str	00000000 
0000211b l       .debug_str	00000000 
0000211d l       .debug_str	00000000 
00002175 l       .debug_str	00000000 
000021cb l       .debug_str	00000000 
00002221 l       .debug_str	00000000 
00002240 l       .debug_str	00000000 
0000226f l       .debug_str	00000000 
00002279 l       .debug_str	00000000 
000022a8 l       .debug_str	00000000 
0000231f l       .debug_str	00000000 
00002333 l       .debug_str	00000000 
0000233e l       .debug_str	00000000 
000023aa l       .debug_str	00000000 
00002417 l       .debug_str	00000000 
0000248b l       .debug_str	00000000 
000024a0 l       .debug_str	00000000 
00002514 l       .debug_str	00000000 
00002583 l       .debug_str	00000000 
00002593 l       .debug_str	00000000 
000025fe l       .debug_str	00000000 
0000260a l       .debug_str	00000000 
0000264a l       .debug_str	00000000 
0000264d l       .debug_str	00000000 
0000268f l       .debug_str	00000000 
00002694 l       .debug_str	00000000 
000026c2 l       .debug_str	00000000 
0000272f l       .debug_str	00000000 
0000279e l       .debug_str	00000000 
0000280d l       .debug_str	00000000 
0000287e l       .debug_str	00000000 
000028ea l       .debug_str	00000000 
000028ec l       .debug_str	00000000 
00000000 l     O .rodata..Lanon.140d0f48ceba58ab409392c70bb4580d.0	00000018 .Lanon.140d0f48ceba58ab409392c70bb4580d.0
00000000 l     O .rodata..Lanon.140d0f48ceba58ab409392c70bb4580d.1	00000007 .Lanon.140d0f48ceba58ab409392c70bb4580d.1
00000000 l     O .rodata..Lanon.140d0f48ceba58ab409392c70bb4580d.10	00000009 .Lanon.140d0f48ceba58ab409392c70bb4580d.10
00000000 l     O .rodata.cst4	00000004 .Lanon.140d0f48ceba58ab409392c70bb4580d.11
00000000 l     O .rodata..Lanon.140d0f48ceba58ab409392c70bb4580d.12	00000010 .Lanon.140d0f48ceba58ab409392c70bb4580d.12
00000000 l     O .rodata..Lanon.140d0f48ceba58ab409392c70bb4580d.13	00000009 .Lanon.140d0f48ceba58ab409392c70bb4580d.13
00000000 l     O .rodata..Lanon.140d0f48ceba58ab409392c70bb4580d.14	00000010 .Lanon.140d0f48ceba58ab409392c70bb4580d.14
00000000 l     O .rodata..Lanon.140d0f48ceba58ab409392c70bb4580d.15	0000000a .Lanon.140d0f48ceba58ab409392c70bb4580d.15
00000008 l     O .rodata.cst8	00000008 .Lanon.140d0f48ceba58ab409392c70bb4580d.16
00000004 l     O .rodata.cst4	00000004 .Lanon.140d0f48ceba58ab409392c70bb4580d.17
00000000 l     O .rodata..Lanon.140d0f48ceba58ab409392c70bb4580d.18	00000007 .Lanon.140d0f48ceba58ab409392c70bb4580d.18
00000008 l     O .rodata.cst4	00000004 .Lanon.140d0f48ceba58ab409392c70bb4580d.19
00000000 l     O .rodata..Lanon.140d0f48ceba58ab409392c70bb4580d.2	00000006 .Lanon.140d0f48ceba58ab409392c70bb4580d.2
00000000 l     O .rodata..Lanon.140d0f48ceba58ab409392c70bb4580d.20	00000010 .Lanon.140d0f48ceba58ab409392c70bb4580d.20
00000000 l     O .rodata..Lanon.140d0f48ceba58ab409392c70bb4580d.21	0000000c .Lanon.140d0f48ceba58ab409392c70bb4580d.21
00000000 l     O .rodata..Lanon.140d0f48ceba58ab409392c70bb4580d.22	0000000a .Lanon.140d0f48ceba58ab409392c70bb4580d.22
00000000 l     O .rodata..Lanon.140d0f48ceba58ab409392c70bb4580d.23	00000003 .Lanon.140d0f48ceba58ab409392c70bb4580d.23
00000000 l     O .rodata..Lanon.140d0f48ceba58ab409392c70bb4580d.24	00000003 .Lanon.140d0f48ceba58ab409392c70bb4580d.24
00000000 l     O .rodata..Lanon.140d0f48ceba58ab409392c70bb4580d.25	00000009 .Lanon.140d0f48ceba58ab409392c70bb4580d.25
00000000 l     O .rodata..Lanon.140d0f48ceba58ab409392c70bb4580d.26	00000006 .Lanon.140d0f48ceba58ab409392c70bb4580d.26
00000010 l     O .rodata.cst8	00000008 .Lanon.140d0f48ceba58ab409392c70bb4580d.27
00000000 l     O .rodata..Lanon.140d0f48ceba58ab409392c70bb4580d.3	0000000c .Lanon.140d0f48ceba58ab409392c70bb4580d.3
00000000 l     O .rodata..Lanon.140d0f48ceba58ab409392c70bb4580d.4	00000006 .Lanon.140d0f48ceba58ab409392c70bb4580d.4
00000000 l     O .rodata..Lanon.140d0f48ceba58ab409392c70bb4580d.5	0000000a .Lanon.140d0f48ceba58ab409392c70bb4580d.5
00000000 l     O .rodata.cst8	00000008 .Lanon.140d0f48ceba58ab409392c70bb4580d.6
00000000 l     O .rodata.cst16	00000010 .Lanon.140d0f48ceba58ab409392c70bb4580d.7
00000000 l     O .rodata..Lanon.140d0f48ceba58ab409392c70bb4580d.8	00000009 .Lanon.140d0f48ceba58ab409392c70bb4580d.8
00000000 l     O .rodata..Lanon.140d0f48ceba58ab409392c70bb4580d.9	0000000e .Lanon.140d0f48ceba58ab409392c70bb4580d.9
00000000 l     O .rodata..Lswitch.table._ZN8cortex_m10peripheral3scb43_$LT$impl$u20$cortex_m..peripheral..SCB$GT$12set_priority17h00c7a093c9c63b47E	0000001c .Lswitch.table._ZN8cortex_m10peripheral3scb43_$LT$impl$u20$cortex_m..peripheral..SCB$GT$12set_priority17h00c7a093c9c63b47E
00000000 l     F .text._ZN42_$LT$$RF$T$u20$as$u20$core..fmt..Debug$GT$3fmt17h62fc6c6e8aac17fcE	0000003a <&T as core::fmt::Debug>::fmt
00000000 l     F .text._ZN42_$LT$$RF$T$u20$as$u20$core..fmt..Debug$GT$3fmt17h9f2de2a72af09cc6E	00000006 <&T as core::fmt::Debug>::fmt
00000000 l     F .text._ZN42_$LT$$RF$T$u20$as$u20$core..fmt..Debug$GT$3fmt17hca839ad35b02dd71E	0000003a <&T as core::fmt::Debug>::fmt
00000000 l     F .text._ZN4core3ptr18real_drop_in_place17h06ade1b2fea2f8f8E	00000002 core::ptr::real_drop_in_place
00000000 l     F .text._ZN50_$LT$$RF$mut$u20$W$u20$as$u20$core..fmt..Write$GT$10write_char17h9a348e3076f9729bE	0000010c <&mut W as core::fmt::Write>::write_char
00000000 l     F .text._ZN50_$LT$$RF$mut$u20$W$u20$as$u20$core..fmt..Write$GT$9write_fmt17h12100dae57348505E	00000026 <&mut W as core::fmt::Write>::write_fmt
00000000 l     F .text._ZN50_$LT$$RF$mut$u20$W$u20$as$u20$core..fmt..Write$GT$9write_str17hd2e314001924b83dE	00000106 <&mut W as core::fmt::Write>::write_str
00000000 l    d  .text._ZN42_$LT$$RF$T$u20$as$u20$core..fmt..Debug$GT$3fmt17h62fc6c6e8aac17fcE	00000000 .text._ZN42_$LT$$RF$T$u20$as$u20$core..fmt..Debug$GT$3fmt17h62fc6c6e8aac17fcE
00000000 l    d  .text._ZN42_$LT$$RF$T$u20$as$u20$core..fmt..Debug$GT$3fmt17h9f2de2a72af09cc6E	00000000 .text._ZN42_$LT$$RF$T$u20$as$u20$core..fmt..Debug$GT$3fmt17h9f2de2a72af09cc6E
00000000 l    d  .text._ZN42_$LT$$RF$T$u20$as$u20$core..fmt..Debug$GT$3fmt17hca839ad35b02dd71E	00000000 .text._ZN42_$LT$$RF$T$u20$as$u20$core..fmt..Debug$GT$3fmt17hca839ad35b02dd71E
00000000 l    d  .text._ZN4core3ptr18real_drop_in_place17h06ade1b2fea2f8f8E	00000000 .text._ZN4core3ptr18real_drop_in_place17h06ade1b2fea2f8f8E
00000000 l    d  .text._ZN50_$LT$$RF$mut$u20$W$u20$as$u20$core..fmt..Write$GT$10write_char17h9a348e3076f9729bE	00000000 .text._ZN50_$LT$$RF$mut$u20$W$u20$as$u20$core..fmt..Write$GT$10write_char17h9a348e3076f9729bE
00000000 l    d  .text._ZN50_$LT$$RF$mut$u20$W$u20$as$u20$core..fmt..Write$GT$9write_fmt17h12100dae57348505E	00000000 .text._ZN50_$LT$$RF$mut$u20$W$u20$as$u20$core..fmt..Write$GT$9write_fmt17h12100dae57348505E
00000000 l    d  .text._ZN50_$LT$$RF$mut$u20$W$u20$as$u20$core..fmt..Write$GT$9write_str17hd2e314001924b83dE	00000000 .text._ZN50_$LT$$RF$mut$u20$W$u20$as$u20$core..fmt..Write$GT$9write_str17hd2e314001924b83dE
00000000 l    d  .text._ZN56_$LT$cortex_m..itm..Port$u20$as$u20$core..fmt..Write$GT$9write_str17h0b3c3d462ec4cc2cE	00000000 .text._ZN56_$LT$cortex_m..itm..Port$u20$as$u20$core..fmt..Write$GT$9write_str17h0b3c3d462ec4cc2cE
00000000 l    d  .text._ZN8cortex_m3itm9write_all17h34ed86ddbf0ecd73E	00000000 .text._ZN8cortex_m3itm9write_all17h34ed86ddbf0ecd73E
00000000 l    d  .text._ZN8cortex_m3itm13write_aligned17h5db71ed7835f4618E	00000000 .text._ZN8cortex_m3itm13write_aligned17h5db71ed7835f4618E
00000000 l    d  .text._ZN8cortex_m3itm9write_fmt17h4a4fd729f2c66829E	00000000 .text._ZN8cortex_m3itm9write_fmt17h4a4fd729f2c66829E
00000000 l    d  .text._ZN8cortex_m3itm9write_str17h8d8e10b4c67e43c3E	00000000 .text._ZN8cortex_m3itm9write_str17h8d8e10b4c67e43c3E
00000000 l    d  .text._ZN8cortex_m10peripheral5cpuid45_$LT$impl$u20$cortex_m..peripheral..CPUID$GT$12select_cache17hd2c8f4872fa24111E	00000000 .text._ZN8cortex_m10peripheral5cpuid45_$LT$impl$u20$cortex_m..peripheral..CPUID$GT$12select_cache17hd2c8f4872fa24111E
00000000 l    d  .text._ZN8cortex_m10peripheral5cpuid45_$LT$impl$u20$cortex_m..peripheral..CPUID$GT$19cache_num_sets_ways17h7f385fb6ecf7b553E	00000000 .text._ZN8cortex_m10peripheral5cpuid45_$LT$impl$u20$cortex_m..peripheral..CPUID$GT$19cache_num_sets_ways17h7f385fb6ecf7b553E
00000000 l    d  .text._ZN8cortex_m10peripheral3dcb43_$LT$impl$u20$cortex_m..peripheral..DCB$GT$12enable_trace17h9d180040a4a4dd30E	00000000 .text._ZN8cortex_m10peripheral3dcb43_$LT$impl$u20$cortex_m..peripheral..DCB$GT$12enable_trace17h9d180040a4a4dd30E
00000000 l    d  .text._ZN8cortex_m10peripheral3dcb43_$LT$impl$u20$cortex_m..peripheral..DCB$GT$13disable_trace17ha27e1406b2ee98b9E	00000000 .text._ZN8cortex_m10peripheral3dcb43_$LT$impl$u20$cortex_m..peripheral..DCB$GT$13disable_trace17ha27e1406b2ee98b9E
00000000 l    d  .text._ZN8cortex_m10peripheral3dcb43_$LT$impl$u20$cortex_m..peripheral..DCB$GT$20is_debugger_attached17h823c0cdb8fd92d53E	00000000 .text._ZN8cortex_m10peripheral3dcb43_$LT$impl$u20$cortex_m..peripheral..DCB$GT$20is_debugger_attached17h823c0cdb8fd92d53E
00000000 l    d  .text._ZN8cortex_m10peripheral3dwt43_$LT$impl$u20$cortex_m..peripheral..DWT$GT$20enable_cycle_counter17ha33db9ec02bcf5d7E	00000000 .text._ZN8cortex_m10peripheral3dwt43_$LT$impl$u20$cortex_m..peripheral..DWT$GT$20enable_cycle_counter17ha33db9ec02bcf5d7E
00000000 l    d  .text._ZN8cortex_m10peripheral3dwt43_$LT$impl$u20$cortex_m..peripheral..DWT$GT$15get_cycle_count17h16061290493404a9E	00000000 .text._ZN8cortex_m10peripheral3dwt43_$LT$impl$u20$cortex_m..peripheral..DWT$GT$15get_cycle_count17h16061290493404a9E
00000000 l    d  .text._ZN8cortex_m10peripheral3itm4Stim8write_u817hf5984d6404aaf636E	00000000 .text._ZN8cortex_m10peripheral3itm4Stim8write_u817hf5984d6404aaf636E
00000000 l    d  .text._ZN8cortex_m10peripheral3itm4Stim9write_u1617h53c21ff7f354a014E	00000000 .text._ZN8cortex_m10peripheral3itm4Stim9write_u1617h53c21ff7f354a014E
00000000 l    d  .text._ZN8cortex_m10peripheral3itm4Stim9write_u3217h126976650e7975aaE	00000000 .text._ZN8cortex_m10peripheral3itm4Stim9write_u3217h126976650e7975aaE
00000000 l    d  .text._ZN8cortex_m10peripheral3itm4Stim13is_fifo_ready17hdbd890bb34216f11E	00000000 .text._ZN8cortex_m10peripheral3itm4Stim13is_fifo_ready17hdbd890bb34216f11E
00000000 l    d  .text._ZN8cortex_m10peripheral3scb43_$LT$impl$u20$cortex_m..peripheral..SCB$GT$11vect_active17h109b59719ddbbca6E	00000000 .text._ZN8cortex_m10peripheral3scb43_$LT$impl$u20$cortex_m..peripheral..SCB$GT$11vect_active17h109b59719ddbbca6E
00000000 l    d  .text._ZN8cortex_m10peripheral3scb9Exception4irqn17h4332944dc5fc4d4dE	00000000 .text._ZN8cortex_m10peripheral3scb9Exception4irqn17h4332944dc5fc4d4dE
00000000 l    d  .text._ZN8cortex_m10peripheral3scb10VectActive4from17h239dc07ce3e3af2cE	00000000 .text._ZN8cortex_m10peripheral3scb10VectActive4from17h239dc07ce3e3af2cE
00000000 l    d  .text._ZN8cortex_m10peripheral3scb43_$LT$impl$u20$cortex_m..peripheral..SCB$GT$13set_sleepdeep17ha5e8a57d669133feE	00000000 .text._ZN8cortex_m10peripheral3scb43_$LT$impl$u20$cortex_m..peripheral..SCB$GT$13set_sleepdeep17ha5e8a57d669133feE
00000000 l    d  .text._ZN8cortex_m10peripheral3scb43_$LT$impl$u20$cortex_m..peripheral..SCB$GT$15clear_sleepdeep17haeaf3c4b463d2e9bE	00000000 .text._ZN8cortex_m10peripheral3scb43_$LT$impl$u20$cortex_m..peripheral..SCB$GT$15clear_sleepdeep17haeaf3c4b463d2e9bE
00000000 l    d  .text._ZN8cortex_m10peripheral3scb43_$LT$impl$u20$cortex_m..peripheral..SCB$GT$15set_sleeponexit17he4ee4906044a2eb9E	00000000 .text._ZN8cortex_m10peripheral3scb43_$LT$impl$u20$cortex_m..peripheral..SCB$GT$15set_sleeponexit17he4ee4906044a2eb9E
00000000 l    d  .text._ZN8cortex_m10peripheral3scb43_$LT$impl$u20$cortex_m..peripheral..SCB$GT$17clear_sleeponexit17h11eb33d8595df8d0E	00000000 .text._ZN8cortex_m10peripheral3scb43_$LT$impl$u20$cortex_m..peripheral..SCB$GT$17clear_sleeponexit17h11eb33d8595df8d0E
00000000 l    d  .text._ZN8cortex_m10peripheral3scb43_$LT$impl$u20$cortex_m..peripheral..SCB$GT$12system_reset17h442986c9e1b256f7E	00000000 .text._ZN8cortex_m10peripheral3scb43_$LT$impl$u20$cortex_m..peripheral..SCB$GT$12system_reset17h442986c9e1b256f7E
00000000 l    d  .text._ZN8cortex_m10peripheral3scb43_$LT$impl$u20$cortex_m..peripheral..SCB$GT$10set_pendsv17head1e6a94d2cd79fE	00000000 .text._ZN8cortex_m10peripheral3scb43_$LT$impl$u20$cortex_m..peripheral..SCB$GT$10set_pendsv17head1e6a94d2cd79fE
00000000 l    d  .text._ZN8cortex_m10peripheral3scb43_$LT$impl$u20$cortex_m..peripheral..SCB$GT$17is_pendsv_pending17h57c5694c386b70deE	00000000 .text._ZN8cortex_m10peripheral3scb43_$LT$impl$u20$cortex_m..peripheral..SCB$GT$17is_pendsv_pending17h57c5694c386b70deE
00000000 l    d  .text._ZN8cortex_m10peripheral3scb43_$LT$impl$u20$cortex_m..peripheral..SCB$GT$12clear_pendsv17h5b46a3b5158c4e6dE	00000000 .text._ZN8cortex_m10peripheral3scb43_$LT$impl$u20$cortex_m..peripheral..SCB$GT$12clear_pendsv17h5b46a3b5158c4e6dE
00000000 l    d  .text._ZN8cortex_m10peripheral3scb43_$LT$impl$u20$cortex_m..peripheral..SCB$GT$12get_priority17h87f5530121b472c5E	00000000 .text._ZN8cortex_m10peripheral3scb43_$LT$impl$u20$cortex_m..peripheral..SCB$GT$12get_priority17h87f5530121b472c5E
00000000 l    d  .text._ZN8cortex_m10peripheral3scb43_$LT$impl$u20$cortex_m..peripheral..SCB$GT$12set_priority17h00c7a093c9c63b47E	00000000 .text._ZN8cortex_m10peripheral3scb43_$LT$impl$u20$cortex_m..peripheral..SCB$GT$12set_priority17h00c7a093c9c63b47E
00000000 l    d  .text._ZN8cortex_m10peripheral4syst44_$LT$impl$u20$cortex_m..peripheral..SYST$GT$13clear_current17h3b55d81d22aacfceE	00000000 .text._ZN8cortex_m10peripheral4syst44_$LT$impl$u20$cortex_m..peripheral..SYST$GT$13clear_current17h3b55d81d22aacfceE
00000000 l    d  .text._ZN8cortex_m10peripheral4syst44_$LT$impl$u20$cortex_m..peripheral..SYST$GT$15disable_counter17h07638ebc2d6e7388E	00000000 .text._ZN8cortex_m10peripheral4syst44_$LT$impl$u20$cortex_m..peripheral..SYST$GT$15disable_counter17h07638ebc2d6e7388E
00000000 l    d  .text._ZN8cortex_m10peripheral4syst44_$LT$impl$u20$cortex_m..peripheral..SYST$GT$17disable_interrupt17h083578f28bfd56a8E	00000000 .text._ZN8cortex_m10peripheral4syst44_$LT$impl$u20$cortex_m..peripheral..SYST$GT$17disable_interrupt17h083578f28bfd56a8E
00000000 l    d  .text._ZN8cortex_m10peripheral4syst44_$LT$impl$u20$cortex_m..peripheral..SYST$GT$14enable_counter17h025ea95e34767598E	00000000 .text._ZN8cortex_m10peripheral4syst44_$LT$impl$u20$cortex_m..peripheral..SYST$GT$14enable_counter17h025ea95e34767598E
00000000 l    d  .text._ZN8cortex_m10peripheral4syst44_$LT$impl$u20$cortex_m..peripheral..SYST$GT$16enable_interrupt17h5e71118e8d2fde3aE	00000000 .text._ZN8cortex_m10peripheral4syst44_$LT$impl$u20$cortex_m..peripheral..SYST$GT$16enable_interrupt17h5e71118e8d2fde3aE
00000000 l    d  .text._ZN8cortex_m10peripheral4syst44_$LT$impl$u20$cortex_m..peripheral..SYST$GT$16get_clock_source17h576d368d43939080E	00000000 .text._ZN8cortex_m10peripheral4syst44_$LT$impl$u20$cortex_m..peripheral..SYST$GT$16get_clock_source17h576d368d43939080E
00000000 l    d  .text._ZN8cortex_m10peripheral4syst44_$LT$impl$u20$cortex_m..peripheral..SYST$GT$11get_current17hb54b375ce80e811fE	00000000 .text._ZN8cortex_m10peripheral4syst44_$LT$impl$u20$cortex_m..peripheral..SYST$GT$11get_current17hb54b375ce80e811fE
00000000 l    d  .text._ZN8cortex_m10peripheral4syst44_$LT$impl$u20$cortex_m..peripheral..SYST$GT$10get_reload17h05c06a007858d85dE	00000000 .text._ZN8cortex_m10peripheral4syst44_$LT$impl$u20$cortex_m..peripheral..SYST$GT$10get_reload17h05c06a007858d85dE
00000000 l    d  .text._ZN8cortex_m10peripheral4syst44_$LT$impl$u20$cortex_m..peripheral..SYST$GT$18get_ticks_per_10ms17h333fe7dea2dde9a3E	00000000 .text._ZN8cortex_m10peripheral4syst44_$LT$impl$u20$cortex_m..peripheral..SYST$GT$18get_ticks_per_10ms17h333fe7dea2dde9a3E
00000000 l    d  .text._ZN8cortex_m10peripheral4syst44_$LT$impl$u20$cortex_m..peripheral..SYST$GT$19has_reference_clock17h4587b661ba004f43E	00000000 .text._ZN8cortex_m10peripheral4syst44_$LT$impl$u20$cortex_m..peripheral..SYST$GT$19has_reference_clock17h4587b661ba004f43E
00000000 l    d  .text._ZN8cortex_m10peripheral4syst44_$LT$impl$u20$cortex_m..peripheral..SYST$GT$11has_wrapped17hef57ab6262d167d3E	00000000 .text._ZN8cortex_m10peripheral4syst44_$LT$impl$u20$cortex_m..peripheral..SYST$GT$11has_wrapped17hef57ab6262d167d3E
00000000 l    d  .text._ZN8cortex_m10peripheral4syst44_$LT$impl$u20$cortex_m..peripheral..SYST$GT$18is_counter_enabled17h12dd47db4b75d7cdE	00000000 .text._ZN8cortex_m10peripheral4syst44_$LT$impl$u20$cortex_m..peripheral..SYST$GT$18is_counter_enabled17h12dd47db4b75d7cdE
00000000 l    d  .text._ZN8cortex_m10peripheral4syst44_$LT$impl$u20$cortex_m..peripheral..SYST$GT$20is_interrupt_enabled17h8c697bbd39741eddE	00000000 .text._ZN8cortex_m10peripheral4syst44_$LT$impl$u20$cortex_m..peripheral..SYST$GT$20is_interrupt_enabled17h8c697bbd39741eddE
00000000 l    d  .text._ZN8cortex_m10peripheral4syst44_$LT$impl$u20$cortex_m..peripheral..SYST$GT$10is_precise17hdf6c267ff359ed39E	00000000 .text._ZN8cortex_m10peripheral4syst44_$LT$impl$u20$cortex_m..peripheral..SYST$GT$10is_precise17hdf6c267ff359ed39E
00000000 l    d  .text._ZN8cortex_m10peripheral4syst44_$LT$impl$u20$cortex_m..peripheral..SYST$GT$16set_clock_source17hc7bec0914fd76b22E	00000000 .text._ZN8cortex_m10peripheral4syst44_$LT$impl$u20$cortex_m..peripheral..SYST$GT$16set_clock_source17hc7bec0914fd76b22E
00000000 l    d  .text._ZN8cortex_m10peripheral4syst44_$LT$impl$u20$cortex_m..peripheral..SYST$GT$10set_reload17h8e509ef18931a6ceE	00000000 .text._ZN8cortex_m10peripheral4syst44_$LT$impl$u20$cortex_m..peripheral..SYST$GT$10set_reload17h8e509ef18931a6ceE
00000000 l    d  .text._ZN8cortex_m10peripheral11Peripherals5steal17hf8f26c82adefb6b6E	00000000 .text._ZN8cortex_m10peripheral11Peripherals5steal17hf8f26c82adefb6b6E
00000000 l    d  .text._ZN8cortex_m10peripheral3CBP3new17hf231e52218bcfb76E	00000000 .text._ZN8cortex_m10peripheral3CBP3new17hf231e52218bcfb76E
00000000 l    d  .text._ZN8cortex_m10peripheral3CBP3ptr17hf03eb2bbd0975c01E	00000000 .text._ZN8cortex_m10peripheral3CBP3ptr17hf03eb2bbd0975c01E
00000000 l    d  .text._ZN69_$LT$cortex_m..peripheral..CBP$u20$as$u20$core..ops..deref..Deref$GT$5deref17hd03c2ca1e0c023b5E	00000000 .text._ZN69_$LT$cortex_m..peripheral..CBP$u20$as$u20$core..ops..deref..Deref$GT$5deref17hd03c2ca1e0c023b5E
00000000 l    d  .text._ZN8cortex_m10peripheral5CPUID3ptr17ha27566c578b7be02E	00000000 .text._ZN8cortex_m10peripheral5CPUID3ptr17ha27566c578b7be02E
00000000 l    d  .text._ZN71_$LT$cortex_m..peripheral..CPUID$u20$as$u20$core..ops..deref..Deref$GT$5deref17hbec086371c1bb4ccE	00000000 .text._ZN71_$LT$cortex_m..peripheral..CPUID$u20$as$u20$core..ops..deref..Deref$GT$5deref17hbec086371c1bb4ccE
00000000 l    d  .text._ZN8cortex_m10peripheral3DCB3ptr17h1ad1321cd9b3358fE	00000000 .text._ZN8cortex_m10peripheral3DCB3ptr17h1ad1321cd9b3358fE
00000000 l    d  .text._ZN69_$LT$cortex_m..peripheral..DCB$u20$as$u20$core..ops..deref..Deref$GT$5deref17h55bde78de4329ed7E	00000000 .text._ZN69_$LT$cortex_m..peripheral..DCB$u20$as$u20$core..ops..deref..Deref$GT$5deref17h55bde78de4329ed7E
00000000 l    d  .text._ZN8cortex_m10peripheral3DWT3ptr17h43afe1d569358c54E	00000000 .text._ZN8cortex_m10peripheral3DWT3ptr17h43afe1d569358c54E
00000000 l    d  .text._ZN69_$LT$cortex_m..peripheral..DWT$u20$as$u20$core..ops..deref..Deref$GT$5deref17ha8cad503d33939eeE	00000000 .text._ZN69_$LT$cortex_m..peripheral..DWT$u20$as$u20$core..ops..deref..Deref$GT$5deref17ha8cad503d33939eeE
00000000 l    d  .text._ZN8cortex_m10peripheral3FPB3ptr17h671ce5b0bdda4077E	00000000 .text._ZN8cortex_m10peripheral3FPB3ptr17h671ce5b0bdda4077E
00000000 l    d  .text._ZN69_$LT$cortex_m..peripheral..FPB$u20$as$u20$core..ops..deref..Deref$GT$5deref17ha9d4023ec4f9a8a5E	00000000 .text._ZN69_$LT$cortex_m..peripheral..FPB$u20$as$u20$core..ops..deref..Deref$GT$5deref17ha9d4023ec4f9a8a5E
00000000 l    d  .text._ZN8cortex_m10peripheral3ITM3ptr17h0a2de636a7f65aadE	00000000 .text._ZN8cortex_m10peripheral3ITM3ptr17h0a2de636a7f65aadE
00000000 l    d  .text._ZN69_$LT$cortex_m..peripheral..ITM$u20$as$u20$core..ops..deref..Deref$GT$5deref17h031fda693d13bc5dE	00000000 .text._ZN69_$LT$cortex_m..peripheral..ITM$u20$as$u20$core..ops..deref..Deref$GT$5deref17h031fda693d13bc5dE
00000000 l    d  .text._ZN72_$LT$cortex_m..peripheral..ITM$u20$as$u20$core..ops..deref..DerefMut$GT$9deref_mut17h9cbb5749fa25a00eE	00000000 .text._ZN72_$LT$cortex_m..peripheral..ITM$u20$as$u20$core..ops..deref..DerefMut$GT$9deref_mut17h9cbb5749fa25a00eE
00000000 l    d  .text._ZN8cortex_m10peripheral3MPU3ptr17h12d778228a56fb49E	00000000 .text._ZN8cortex_m10peripheral3MPU3ptr17h12d778228a56fb49E
00000000 l    d  .text._ZN69_$LT$cortex_m..peripheral..MPU$u20$as$u20$core..ops..deref..Deref$GT$5deref17h9a5f0f3cf0b6c4abE	00000000 .text._ZN69_$LT$cortex_m..peripheral..MPU$u20$as$u20$core..ops..deref..Deref$GT$5deref17h9a5f0f3cf0b6c4abE
00000000 l    d  .text._ZN8cortex_m10peripheral4NVIC3ptr17hde76b9f317c18ee1E	00000000 .text._ZN8cortex_m10peripheral4NVIC3ptr17hde76b9f317c18ee1E
00000000 l    d  .text._ZN70_$LT$cortex_m..peripheral..NVIC$u20$as$u20$core..ops..deref..Deref$GT$5deref17he51759cc6e244771E	00000000 .text._ZN70_$LT$cortex_m..peripheral..NVIC$u20$as$u20$core..ops..deref..Deref$GT$5deref17he51759cc6e244771E
00000000 l    d  .text._ZN8cortex_m10peripheral3SCB3ptr17h65ddcefb56d56f18E	00000000 .text._ZN8cortex_m10peripheral3SCB3ptr17h65ddcefb56d56f18E
00000000 l    d  .text._ZN69_$LT$cortex_m..peripheral..SCB$u20$as$u20$core..ops..deref..Deref$GT$5deref17ha96740f0e126291aE	00000000 .text._ZN69_$LT$cortex_m..peripheral..SCB$u20$as$u20$core..ops..deref..Deref$GT$5deref17ha96740f0e126291aE
00000000 l    d  .text._ZN8cortex_m10peripheral4SYST3ptr17hd9ee883576d923e3E	00000000 .text._ZN8cortex_m10peripheral4SYST3ptr17hd9ee883576d923e3E
00000000 l    d  .text._ZN70_$LT$cortex_m..peripheral..SYST$u20$as$u20$core..ops..deref..Deref$GT$5deref17hb77f44de12cdb2f2E	00000000 .text._ZN70_$LT$cortex_m..peripheral..SYST$u20$as$u20$core..ops..deref..Deref$GT$5deref17hb77f44de12cdb2f2E
00000000 l    d  .text._ZN8cortex_m10peripheral4TPIU3ptr17h95803cdf51a2d107E	00000000 .text._ZN8cortex_m10peripheral4TPIU3ptr17h95803cdf51a2d107E
00000000 l    d  .text._ZN70_$LT$cortex_m..peripheral..TPIU$u20$as$u20$core..ops..deref..Deref$GT$5deref17h881fa450975a5772E	00000000 .text._ZN70_$LT$cortex_m..peripheral..TPIU$u20$as$u20$core..ops..deref..Deref$GT$5deref17h881fa450975a5772E
00000000 l    d  .text._ZN8cortex_m8register7control7Control4bits17h18bc9932c0720048E	00000000 .text._ZN8cortex_m8register7control7Control4bits17h18bc9932c0720048E
00000000 l    d  .text._ZN8cortex_m8register7control7Control5npriv17h16ec04b89492bec0E	00000000 .text._ZN8cortex_m8register7control7Control5npriv17h16ec04b89492bec0E
00000000 l    d  .text._ZN8cortex_m8register7control7Control5spsel17h3deccecf735c6c04E	00000000 .text._ZN8cortex_m8register7control7Control5spsel17h3deccecf735c6c04E
00000000 l    d  .text._ZN8cortex_m8register7control7Control4fpca17h6f1ef6142bf128f5E	00000000 .text._ZN8cortex_m8register7control7Control4fpca17h6f1ef6142bf128f5E
00000000 l    d  .text._ZN8cortex_m8register7control4Fpca9is_active17h20782a2018fe82f3E	00000000 .text._ZN8cortex_m8register7control4Fpca9is_active17h20782a2018fe82f3E
00000000 l    d  .text._ZN8cortex_m8register7control4Fpca13is_not_active17hbced988fe1c63557E	00000000 .text._ZN8cortex_m8register7control4Fpca13is_not_active17hbced988fe1c63557E
00000000 l    d  .text._ZN73_$LT$cortex_m..peripheral..scb..Exception$u20$as$u20$core..fmt..Debug$GT$3fmt17hedb88d624423cbf1E	00000000 .text._ZN73_$LT$cortex_m..peripheral..scb..Exception$u20$as$u20$core..fmt..Debug$GT$3fmt17hedb88d624423cbf1E
00000000 l    d  .text._ZN74_$LT$cortex_m..peripheral..scb..VectActive$u20$as$u20$core..fmt..Debug$GT$3fmt17h89b7c6284a21e754E	00000000 .text._ZN74_$LT$cortex_m..peripheral..scb..VectActive$u20$as$u20$core..fmt..Debug$GT$3fmt17h89b7c6284a21e754E
00000000 l    d  .text._ZN77_$LT$cortex_m..peripheral..scb..SystemHandler$u20$as$u20$core..fmt..Debug$GT$3fmt17h49448ef5a705b979E	00000000 .text._ZN77_$LT$cortex_m..peripheral..scb..SystemHandler$u20$as$u20$core..fmt..Debug$GT$3fmt17h49448ef5a705b979E
00000000 l    d  .text._ZN78_$LT$cortex_m..peripheral..syst..SystClkSource$u20$as$u20$core..fmt..Debug$GT$3fmt17h8bacbfbb734dd2c3E	00000000 .text._ZN78_$LT$cortex_m..peripheral..syst..SystClkSource$u20$as$u20$core..fmt..Debug$GT$3fmt17h8bacbfbb734dd2c3E
00000000 l    d  .text._ZN73_$LT$cortex_m..register..control..Control$u20$as$u20$core..fmt..Debug$GT$3fmt17hc7a50642d23399daE	00000000 .text._ZN73_$LT$cortex_m..register..control..Control$u20$as$u20$core..fmt..Debug$GT$3fmt17hc7a50642d23399daE
00000000 l    d  .text._ZN71_$LT$cortex_m..register..control..Npriv$u20$as$u20$core..fmt..Debug$GT$3fmt17hafbcd44c4020124fE	00000000 .text._ZN71_$LT$cortex_m..register..control..Npriv$u20$as$u20$core..fmt..Debug$GT$3fmt17hafbcd44c4020124fE
00000000 l    d  .text._ZN71_$LT$cortex_m..register..control..Spsel$u20$as$u20$core..fmt..Debug$GT$3fmt17h47199d686fdaa245E	00000000 .text._ZN71_$LT$cortex_m..register..control..Spsel$u20$as$u20$core..fmt..Debug$GT$3fmt17h47199d686fdaa245E
00000000 l    d  .text._ZN70_$LT$cortex_m..register..control..Fpca$u20$as$u20$core..fmt..Debug$GT$3fmt17hdcd59b25a4810f41E	00000000 .text._ZN70_$LT$cortex_m..register..control..Fpca$u20$as$u20$core..fmt..Debug$GT$3fmt17hdcd59b25a4810f41E
00000000 l    d  .text._ZN73_$LT$cortex_m..register..primask..Primask$u20$as$u20$core..fmt..Debug$GT$3fmt17hb3942e9de531228bE	00000000 .text._ZN73_$LT$cortex_m..register..primask..Primask$u20$as$u20$core..fmt..Debug$GT$3fmt17hb3942e9de531228bE
00000000 l    d  .rodata..Lanon.140d0f48ceba58ab409392c70bb4580d.0	00000000 .rodata..Lanon.140d0f48ceba58ab409392c70bb4580d.0
00000000 l    d  .rodata..Lanon.140d0f48ceba58ab409392c70bb4580d.12	00000000 .rodata..Lanon.140d0f48ceba58ab409392c70bb4580d.12
00000000 l    d  .rodata..Lanon.140d0f48ceba58ab409392c70bb4580d.14	00000000 .rodata..Lanon.140d0f48ceba58ab409392c70bb4580d.14
00000000 l    d  .rodata..Lanon.140d0f48ceba58ab409392c70bb4580d.20	00000000 .rodata..Lanon.140d0f48ceba58ab409392c70bb4580d.20
00000000 l    d  .debug_loc	00000000 .debug_loc
00000000 l    d  .debug_abbrev	00000000 .debug_abbrev
00000000 l    d  .debug_info	00000000 .debug_info
00000000 l    d  .debug_ranges	00000000 .debug_ranges
00000000 l    d  .debug_frame	00000000 .debug_frame
00000000 l    d  .debug_line	00000000 .debug_line
00000000 g     O .bss.CORE_PERIPHERALS	00000001 CORE_PERIPHERALS
00000000         *UND*	00000000 core::fmt::num::imp::<impl core::fmt::Display for u8>::fmt
00000000         *UND*	00000000 core::fmt::num::imp::<impl core::fmt::Display for u32>::fmt
00000000         *UND*	00000000 core::fmt::num::<impl core::fmt::LowerHex for u8>::fmt
00000000         *UND*	00000000 core::fmt::num::<impl core::fmt::UpperHex for u8>::fmt
00000000         *UND*	00000000 core::fmt::num::<impl core::fmt::LowerHex for u32>::fmt
00000000         *UND*	00000000 core::fmt::num::<impl core::fmt::UpperHex for u32>::fmt
00000000         *UND*	00000000 core::fmt::write
00000000         *UND*	00000000 core::fmt::builders::DebugTuple::field
00000000         *UND*	00000000 core::fmt::builders::DebugTuple::finish
00000000         *UND*	00000000 core::fmt::builders::DebugStruct::field
00000000         *UND*	00000000 core::fmt::builders::DebugStruct::finish
00000000         *UND*	00000000 core::fmt::Formatter::debug_tuple
00000000         *UND*	00000000 core::fmt::Formatter::debug_struct
00000000         *UND*	00000000 core::fmt::Formatter::debug_lower_hex
00000000         *UND*	00000000 core::fmt::Formatter::debug_upper_hex
00000000 g     F .text._ZN56_$LT$cortex_m..itm..Port$u20$as$u20$core..fmt..Write$GT$9write_str17h0b3c3d462ec4cc2cE	00000104 <cortex_m::itm::Port as core::fmt::Write>::write_str
00000000 g     F .text._ZN69_$LT$cortex_m..peripheral..CBP$u20$as$u20$core..ops..deref..Deref$GT$5deref17hd03c2ca1e0c023b5E	0000000a <cortex_m::peripheral::CBP as core::ops::deref::Deref>::deref
00000000 g     F .text._ZN69_$LT$cortex_m..peripheral..DCB$u20$as$u20$core..ops..deref..Deref$GT$5deref17h55bde78de4329ed7E	0000000a <cortex_m::peripheral::DCB as core::ops::deref::Deref>::deref
00000000 g     F .text._ZN69_$LT$cortex_m..peripheral..DWT$u20$as$u20$core..ops..deref..Deref$GT$5deref17ha8cad503d33939eeE	0000000a <cortex_m::peripheral::DWT as core::ops::deref::Deref>::deref
00000000 g     F .text._ZN69_$LT$cortex_m..peripheral..FPB$u20$as$u20$core..ops..deref..Deref$GT$5deref17ha9d4023ec4f9a8a5E	0000000a <cortex_m::peripheral::FPB as core::ops::deref::Deref>::deref
00000000 g     F .text._ZN69_$LT$cortex_m..peripheral..ITM$u20$as$u20$core..ops..deref..Deref$GT$5deref17h031fda693d13bc5dE	00000006 <cortex_m::peripheral::ITM as core::ops::deref::Deref>::deref
00000000 g     F .text._ZN69_$LT$cortex_m..peripheral..MPU$u20$as$u20$core..ops..deref..Deref$GT$5deref17h9a5f0f3cf0b6c4abE	0000000a <cortex_m::peripheral::MPU as core::ops::deref::Deref>::deref
00000000 g     F .text._ZN69_$LT$cortex_m..peripheral..SCB$u20$as$u20$core..ops..deref..Deref$GT$5deref17ha96740f0e126291aE	0000000a <cortex_m::peripheral::SCB as core::ops::deref::Deref>::deref
00000000 g     F .text._ZN70_$LT$cortex_m..peripheral..NVIC$u20$as$u20$core..ops..deref..Deref$GT$5deref17he51759cc6e244771E	0000000a <cortex_m::peripheral::NVIC as core::ops::deref::Deref>::deref
00000000 g     F .text._ZN70_$LT$cortex_m..peripheral..SYST$u20$as$u20$core..ops..deref..Deref$GT$5deref17hb77f44de12cdb2f2E	0000000a <cortex_m::peripheral::SYST as core::ops::deref::Deref>::deref
00000000 g     F .text._ZN70_$LT$cortex_m..peripheral..TPIU$u20$as$u20$core..ops..deref..Deref$GT$5deref17h881fa450975a5772E	00000008 <cortex_m::peripheral::TPIU as core::ops::deref::Deref>::deref
00000000 g     F .text._ZN70_$LT$cortex_m..register..control..Fpca$u20$as$u20$core..fmt..Debug$GT$3fmt17hdcd59b25a4810f41E	00000034 <cortex_m::register::control::Fpca as core::fmt::Debug>::fmt
00000000 g     F .text._ZN71_$LT$cortex_m..peripheral..CPUID$u20$as$u20$core..ops..deref..Deref$GT$5deref17hbec086371c1bb4ccE	0000000a <cortex_m::peripheral::CPUID as core::ops::deref::Deref>::deref
00000000 g     F .text._ZN71_$LT$cortex_m..register..control..Npriv$u20$as$u20$core..fmt..Debug$GT$3fmt17hafbcd44c4020124fE	00000034 <cortex_m::register::control::Npriv as core::fmt::Debug>::fmt
00000000 g     F .text._ZN71_$LT$cortex_m..register..control..Spsel$u20$as$u20$core..fmt..Debug$GT$3fmt17h47199d686fdaa245E	00000030 <cortex_m::register::control::Spsel as core::fmt::Debug>::fmt
00000000 g     F .text._ZN72_$LT$cortex_m..peripheral..ITM$u20$as$u20$core..ops..deref..DerefMut$GT$9deref_mut17h9cbb5749fa25a00eE	00000006 <cortex_m::peripheral::ITM as core::ops::deref::DerefMut>::deref_mut
00000000 g     F .text._ZN73_$LT$cortex_m..peripheral..scb..Exception$u20$as$u20$core..fmt..Debug$GT$3fmt17hedb88d624423cbf1E	000000a4 <cortex_m::peripheral::scb::Exception as core::fmt::Debug>::fmt
00000000 g     F .text._ZN73_$LT$cortex_m..register..control..Control$u20$as$u20$core..fmt..Debug$GT$3fmt17hc7a50642d23399daE	00000040 <cortex_m::register::control::Control as core::fmt::Debug>::fmt
00000000 g     F .text._ZN73_$LT$cortex_m..register..primask..Primask$u20$as$u20$core..fmt..Debug$GT$3fmt17hb3942e9de531228bE	00000034 <cortex_m::register::primask::Primask as core::fmt::Debug>::fmt
00000000 g     F .text._ZN74_$LT$cortex_m..peripheral..scb..VectActive$u20$as$u20$core..fmt..Debug$GT$3fmt17h89b7c6284a21e754E	00000098 <cortex_m::peripheral::scb::VectActive as core::fmt::Debug>::fmt
00000000 g     F .text._ZN77_$LT$cortex_m..peripheral..scb..SystemHandler$u20$as$u20$core..fmt..Debug$GT$3fmt17h49448ef5a705b979E	00000086 <cortex_m::peripheral::scb::SystemHandler as core::fmt::Debug>::fmt
00000000 g     F .text._ZN73_$LT$cortex_m..register..primask..Primask$u20$as$u20$core..fmt..Debug$GT$3fmt17hb3942e9de531228bE	00000034 <cortex_m::register::faultmask::Faultmask as core::fmt::Debug>::fmt
00000000 g     F .text._ZN78_$LT$cortex_m..peripheral..syst..SystClkSource$u20$as$u20$core..fmt..Debug$GT$3fmt17h8bacbfbb734dd2c3E	00000034 <cortex_m::peripheral::syst::SystClkSource as core::fmt::Debug>::fmt
00000000 g     F .text._ZN8cortex_m10peripheral11Peripherals5steal17hf8f26c82adefb6b6E	0000000e cortex_m::peripheral::Peripherals::steal
00000000 g     F .text._ZN8cortex_m10peripheral3CBP3new17hf231e52218bcfb76E	00000002 cortex_m::peripheral::CBP::new
00000000 g     F .text._ZN8cortex_m10peripheral3CBP3ptr17hf03eb2bbd0975c01E	0000000a cortex_m::peripheral::CBP::ptr
00000000 g     F .text._ZN8cortex_m10peripheral3DCB3ptr17h1ad1321cd9b3358fE	0000000a cortex_m::peripheral::DCB::ptr
00000000 g     F .text._ZN8cortex_m10peripheral3DWT3ptr17h43afe1d569358c54E	0000000a cortex_m::peripheral::DWT::ptr
00000000 g     F .text._ZN8cortex_m10peripheral3FPB3ptr17h671ce5b0bdda4077E	0000000a cortex_m::peripheral::FPB::ptr
00000000 g     F .text._ZN8cortex_m10peripheral3ITM3ptr17h0a2de636a7f65aadE	00000006 cortex_m::peripheral::ITM::ptr
00000000 g     F .text._ZN8cortex_m10peripheral3MPU3ptr17h12d778228a56fb49E	0000000a cortex_m::peripheral::MPU::ptr
00000000 g     F .text._ZN8cortex_m10peripheral3SCB3ptr17h65ddcefb56d56f18E	0000000a cortex_m::peripheral::SCB::ptr
00000000 g     F .text._ZN8cortex_m10peripheral3dcb43_$LT$impl$u20$cortex_m..peripheral..DCB$GT$12enable_trace17h9d180040a4a4dd30E	00000012 cortex_m::peripheral::dcb::<impl cortex_m::peripheral::DCB>::enable_trace
00000000 g     F .text._ZN8cortex_m10peripheral3dcb43_$LT$impl$u20$cortex_m..peripheral..DCB$GT$13disable_trace17ha27e1406b2ee98b9E	00000012 cortex_m::peripheral::dcb::<impl cortex_m::peripheral::DCB>::disable_trace
00000000 g     F .text._ZN8cortex_m10peripheral3dcb43_$LT$impl$u20$cortex_m..peripheral..DCB$GT$20is_debugger_attached17h823c0cdb8fd92d53E	00000010 cortex_m::peripheral::dcb::<impl cortex_m::peripheral::DCB>::is_debugger_attached
00000000 g     F .text._ZN8cortex_m10peripheral3dwt43_$LT$impl$u20$cortex_m..peripheral..DWT$GT$15get_cycle_count17h16061290493404a9E	0000000c cortex_m::peripheral::dwt::<impl cortex_m::peripheral::DWT>::get_cycle_count
00000000 g     F .text._ZN8cortex_m10peripheral3dwt43_$LT$impl$u20$cortex_m..peripheral..DWT$GT$20enable_cycle_counter17ha33db9ec02bcf5d7E	00000012 cortex_m::peripheral::dwt::<impl cortex_m::peripheral::DWT>::enable_cycle_counter
00000000 g     F .text._ZN8cortex_m10peripheral3itm4Stim13is_fifo_ready17hdbd890bb34216f11E	0000000c cortex_m::peripheral::itm::Stim::is_fifo_ready
00000000 g     F .text._ZN8cortex_m10peripheral3itm4Stim8write_u817hf5984d6404aaf636E	00000004 cortex_m::peripheral::itm::Stim::write_u8
00000000 g     F .text._ZN8cortex_m10peripheral3itm4Stim9write_u1617h53c21ff7f354a014E	00000004 cortex_m::peripheral::itm::Stim::write_u16
00000000 g     F .text._ZN8cortex_m10peripheral3itm4Stim9write_u3217h126976650e7975aaE	00000004 cortex_m::peripheral::itm::Stim::write_u32
00000000 g     F .text._ZN8cortex_m10peripheral3scb10VectActive4from17h239dc07ce3e3af2cE	00000060 cortex_m::peripheral::scb::VectActive::from
00000000 g     F .text._ZN8cortex_m10peripheral3scb43_$LT$impl$u20$cortex_m..peripheral..SCB$GT$10set_pendsv17head1e6a94d2cd79fE	00000010 cortex_m::peripheral::scb::<impl cortex_m::peripheral::SCB>::set_pendsv
00000000 g     F .text._ZN8cortex_m10peripheral3scb43_$LT$impl$u20$cortex_m..peripheral..SCB$GT$11vect_active17h109b59719ddbbca6E	00000062 cortex_m::peripheral::scb::<impl cortex_m::peripheral::SCB>::vect_active
00000000 g     F .text._ZN8cortex_m10peripheral3scb43_$LT$impl$u20$cortex_m..peripheral..SCB$GT$12clear_pendsv17h5b46a3b5158c4e6dE	00000010 cortex_m::peripheral::scb::<impl cortex_m::peripheral::SCB>::clear_pendsv
00000000 g     F .text._ZN8cortex_m10peripheral3scb43_$LT$impl$u20$cortex_m..peripheral..SCB$GT$12get_priority17h87f5530121b472c5E	0000001a cortex_m::peripheral::scb::<impl cortex_m::peripheral::SCB>::get_priority
00000000 g     F .text._ZN8cortex_m10peripheral3scb43_$LT$impl$u20$cortex_m..peripheral..SCB$GT$12set_priority17h00c7a093c9c63b47E	0000001a cortex_m::peripheral::scb::<impl cortex_m::peripheral::SCB>::set_priority
00000000 g     F .text._ZN8cortex_m10peripheral3scb43_$LT$impl$u20$cortex_m..peripheral..SCB$GT$12system_reset17h442986c9e1b256f7E	00000026 cortex_m::peripheral::scb::<impl cortex_m::peripheral::SCB>::system_reset
00000000 g     F .text._ZN8cortex_m10peripheral3scb43_$LT$impl$u20$cortex_m..peripheral..SCB$GT$13set_sleepdeep17ha5e8a57d669133feE	00000012 cortex_m::peripheral::scb::<impl cortex_m::peripheral::SCB>::set_sleepdeep
00000000 g     F .text._ZN8cortex_m10peripheral3scb43_$LT$impl$u20$cortex_m..peripheral..SCB$GT$15clear_sleepdeep17haeaf3c4b463d2e9bE	00000012 cortex_m::peripheral::scb::<impl cortex_m::peripheral::SCB>::clear_sleepdeep
00000000 g     F .text._ZN8cortex_m10peripheral3scb43_$LT$impl$u20$cortex_m..peripheral..SCB$GT$15set_sleeponexit17he4ee4906044a2eb9E	00000012 cortex_m::peripheral::scb::<impl cortex_m::peripheral::SCB>::set_sleeponexit
00000000 g     F .text._ZN8cortex_m10peripheral3scb43_$LT$impl$u20$cortex_m..peripheral..SCB$GT$17clear_sleeponexit17h11eb33d8595df8d0E	00000012 cortex_m::peripheral::scb::<impl cortex_m::peripheral::SCB>::clear_sleeponexit
00000000 g     F .text._ZN8cortex_m10peripheral3scb43_$LT$impl$u20$cortex_m..peripheral..SCB$GT$17is_pendsv_pending17h57c5694c386b70deE	00000010 cortex_m::peripheral::scb::<impl cortex_m::peripheral::SCB>::is_pendsv_pending
00000000 g     F .text._ZN8cortex_m10peripheral3scb9Exception4irqn17h4332944dc5fc4d4dE	00000038 cortex_m::peripheral::scb::Exception::irqn
00000000 g     F .text._ZN8cortex_m10peripheral4NVIC3ptr17hde76b9f317c18ee1E	0000000a cortex_m::peripheral::NVIC::ptr
00000000 g     F .text._ZN8cortex_m10peripheral4SYST3ptr17hd9ee883576d923e3E	0000000a cortex_m::peripheral::SYST::ptr
00000000 g     F .text._ZN8cortex_m10peripheral4TPIU3ptr17h95803cdf51a2d107E	00000008 cortex_m::peripheral::TPIU::ptr
00000000 g     F .text._ZN8cortex_m10peripheral4syst44_$LT$impl$u20$cortex_m..peripheral..SYST$GT$10get_reload17h05c06a007858d85dE	0000000c cortex_m::peripheral::syst::<impl cortex_m::peripheral::SYST>::get_reload
00000000 g     F .text._ZN8cortex_m10peripheral4syst44_$LT$impl$u20$cortex_m..peripheral..SYST$GT$10is_precise17hdf6c267ff359ed39E	00000016 cortex_m::peripheral::syst::<impl cortex_m::peripheral::SYST>::is_precise
00000000 g     F .text._ZN8cortex_m10peripheral4syst44_$LT$impl$u20$cortex_m..peripheral..SYST$GT$10set_reload17h8e509ef18931a6ceE	0000000c cortex_m::peripheral::syst::<impl cortex_m::peripheral::SYST>::set_reload
00000000 g     F .text._ZN8cortex_m10peripheral4syst44_$LT$impl$u20$cortex_m..peripheral..SYST$GT$11get_current17hb54b375ce80e811fE	0000000c cortex_m::peripheral::syst::<impl cortex_m::peripheral::SYST>::get_current
00000000 g     F .text._ZN8cortex_m10peripheral4syst44_$LT$impl$u20$cortex_m..peripheral..SYST$GT$11has_wrapped17hef57ab6262d167d3E	00000010 cortex_m::peripheral::syst::<impl cortex_m::peripheral::SYST>::has_wrapped
00000000 g     F .text._ZN8cortex_m10peripheral4syst44_$LT$impl$u20$cortex_m..peripheral..SYST$GT$13clear_current17h3b55d81d22aacfceE	0000000e cortex_m::peripheral::syst::<impl cortex_m::peripheral::SYST>::clear_current
00000000 g     F .text._ZN8cortex_m10peripheral4syst44_$LT$impl$u20$cortex_m..peripheral..SYST$GT$14enable_counter17h025ea95e34767598E	00000012 cortex_m::peripheral::syst::<impl cortex_m::peripheral::SYST>::enable_counter
00000000 g     F .text._ZN8cortex_m10peripheral4syst44_$LT$impl$u20$cortex_m..peripheral..SYST$GT$15disable_counter17h07638ebc2d6e7388E	00000012 cortex_m::peripheral::syst::<impl cortex_m::peripheral::SYST>::disable_counter
00000000 g     F .text._ZN8cortex_m10peripheral4syst44_$LT$impl$u20$cortex_m..peripheral..SYST$GT$16enable_interrupt17h5e71118e8d2fde3aE	00000012 cortex_m::peripheral::syst::<impl cortex_m::peripheral::SYST>::enable_interrupt
00000000 g     F .text._ZN8cortex_m10peripheral4syst44_$LT$impl$u20$cortex_m..peripheral..SYST$GT$16get_clock_source17h576d368d43939080E	00000016 cortex_m::peripheral::syst::<impl cortex_m::peripheral::SYST>::get_clock_source
00000000 g     F .text._ZN8cortex_m10peripheral4syst44_$LT$impl$u20$cortex_m..peripheral..SYST$GT$16set_clock_source17hc7bec0914fd76b22E	0000001a cortex_m::peripheral::syst::<impl cortex_m::peripheral::SYST>::set_clock_source
00000000 g     F .text._ZN8cortex_m10peripheral4syst44_$LT$impl$u20$cortex_m..peripheral..SYST$GT$17disable_interrupt17h083578f28bfd56a8E	00000012 cortex_m::peripheral::syst::<impl cortex_m::peripheral::SYST>::disable_interrupt
00000000 g     F .text._ZN8cortex_m10peripheral4syst44_$LT$impl$u20$cortex_m..peripheral..SYST$GT$18get_ticks_per_10ms17h333fe7dea2dde9a3E	00000010 cortex_m::peripheral::syst::<impl cortex_m::peripheral::SYST>::get_ticks_per_10ms
00000000 g     F .text._ZN8cortex_m10peripheral4syst44_$LT$impl$u20$cortex_m..peripheral..SYST$GT$18is_counter_enabled17h12dd47db4b75d7cdE	00000010 cortex_m::peripheral::syst::<impl cortex_m::peripheral::SYST>::is_counter_enabled
00000000 g     F .text._ZN8cortex_m10peripheral4syst44_$LT$impl$u20$cortex_m..peripheral..SYST$GT$19has_reference_clock17h4587b661ba004f43E	00000010 cortex_m::peripheral::syst::<impl cortex_m::peripheral::SYST>::has_reference_clock
00000000 g     F .text._ZN8cortex_m10peripheral4syst44_$LT$impl$u20$cortex_m..peripheral..SYST$GT$20is_interrupt_enabled17h8c697bbd39741eddE	00000010 cortex_m::peripheral::syst::<impl cortex_m::peripheral::SYST>::is_interrupt_enabled
00000000 g     F .text._ZN8cortex_m10peripheral5CPUID3ptr17ha27566c578b7be02E	0000000a cortex_m::peripheral::CPUID::ptr
00000000 g     F .text._ZN8cortex_m10peripheral5cpuid45_$LT$impl$u20$cortex_m..peripheral..CPUID$GT$12select_cache17hd2c8f4872fa24111E	00000010 cortex_m::peripheral::cpuid::<impl cortex_m::peripheral::CPUID>::select_cache
00000000 g     F .text._ZN8cortex_m10peripheral5cpuid45_$LT$impl$u20$cortex_m..peripheral..CPUID$GT$19cache_num_sets_ways17h7f385fb6ecf7b553E	00000024 cortex_m::peripheral::cpuid::<impl cortex_m::peripheral::CPUID>::cache_num_sets_ways
00000000 g     F .text._ZN8cortex_m3itm13write_aligned17h5db71ed7835f4618E	00000096 cortex_m::itm::write_aligned
00000000 g     F .text._ZN8cortex_m3itm9write_all17h34ed86ddbf0ecd73E	00000102 cortex_m::itm::write_all
00000000 g     F .text._ZN8cortex_m3itm9write_fmt17h4a4fd729f2c66829E	00000028 cortex_m::itm::write_fmt
00000000 g     F .text._ZN8cortex_m3itm9write_str17h8d8e10b4c67e43c3E	00000102 cortex_m::itm::write_str
00000000 g     F .text._ZN8cortex_m8register7control4Fpca13is_not_active17hbced988fe1c63557E	0000000c cortex_m::register::control::Fpca::is_not_active
00000000 g     F .text._ZN8cortex_m8register7control4Fpca9is_active17h20782a2018fe82f3E	0000000a cortex_m::register::control::Fpca::is_active
00000000 g     F .text._ZN8cortex_m8register7control4Fpca9is_active17h20782a2018fe82f3E	0000000a cortex_m::register::control::Npriv::is_privileged
00000000 g     F .text._ZN8cortex_m8register7control4Fpca13is_not_active17hbced988fe1c63557E	0000000c cortex_m::register::control::Npriv::is_unprivileged
00000000 g     F .text._ZN8cortex_m8register7control4Fpca9is_active17h20782a2018fe82f3E	0000000a cortex_m::register::control::Spsel::is_msp
00000000 g     F .text._ZN8cortex_m8register7control4Fpca13is_not_active17hbced988fe1c63557E	0000000c cortex_m::register::control::Spsel::is_psp
00000000 g     F .text._ZN8cortex_m8register7control7Control4bits17h18bc9932c0720048E	00000004 cortex_m::register::control::Control::bits
00000000 g     F .text._ZN8cortex_m8register7control7Control4fpca17h6f1ef6142bf128f5E	0000000e cortex_m::register::control::Control::fpca
00000000 g     F .text._ZN8cortex_m8register7control7Control5npriv17h16ec04b89492bec0E	00000008 cortex_m::register::control::Control::npriv
00000000 g     F .text._ZN8cortex_m8register7control7Control5spsel17h3deccecf735c6c04E	00000008 cortex_m::register::control::Control::spsel
00000000 g     F .text._ZN8cortex_m8register7control4Fpca13is_not_active17hbced988fe1c63557E	0000000c cortex_m::register::primask::Primask::is_inactive
00000000 g     F .text._ZN8cortex_m8register7control4Fpca9is_active17h20782a2018fe82f3E	0000000a cortex_m::register::primask::Primask::is_active
00000000 g     F .text._ZN8cortex_m8register7control4Fpca13is_not_active17hbced988fe1c63557E	0000000c cortex_m::register::faultmask::Faultmask::is_inactive
00000000 g     F .text._ZN8cortex_m8register7control4Fpca9is_active17h20782a2018fe82f3E	0000000a cortex_m::register::faultmask::Faultmask::is_active
00000000         *UND*	00000000 __dsb
00000000         *UND*	00000000 __nop



Disassembly of section .text._ZN42_$LT$$RF$T$u20$as$u20$core..fmt..Debug$GT$3fmt17h62fc6c6e8aac17fcE:

00000000 <<&T as core::fmt::Debug>::fmt>:
_ZN42_$LT$$RF$T$u20$as$u20$core..fmt..Debug$GT$3fmt17h62fc6c6e8aac17fcE():
/rustc/50a0defd5a93523067ef239936cc2e0755220904/src/libcore/fmt/mod.rs:1914
   0:	b5b0      	push	{r4, r5, r7, lr}
   2:	6805      	ldr	r5, [r0, #0]
_ZN4core3fmt3num50_$LT$impl$u20$core..fmt..Debug$u20$for$u20$u32$GT$3fmt17hc183193e86b0db88E():
/rustc/50a0defd5a93523067ef239936cc2e0755220904/src/libcore/fmt/num.rs:147
   4:	4608      	mov	r0, r1
   6:	460c      	mov	r4, r1
   8:	f7ff fffe 	bl	0 <core::fmt::Formatter::debug_lower_hex>
   c:	b128      	cbz	r0, 1a <<&T as core::fmt::Debug>::fmt+0x1a>
/rustc/50a0defd5a93523067ef239936cc2e0755220904/src/libcore/fmt/num.rs:148
   e:	4628      	mov	r0, r5
  10:	4621      	mov	r1, r4
  12:	e8bd 40b0 	ldmia.w	sp!, {r4, r5, r7, lr}
  16:	f7ff bffe 	b.w	0 <core::fmt::num::<impl core::fmt::LowerHex for u32>::fmt>
/rustc/50a0defd5a93523067ef239936cc2e0755220904/src/libcore/fmt/num.rs:149
  1a:	4620      	mov	r0, r4
  1c:	f7ff fffe 	bl	0 <core::fmt::Formatter::debug_upper_hex>
  20:	b128      	cbz	r0, 2e <<&T as core::fmt::Debug>::fmt+0x2e>
/rustc/50a0defd5a93523067ef239936cc2e0755220904/src/libcore/fmt/num.rs:150
  22:	4628      	mov	r0, r5
  24:	4621      	mov	r1, r4
  26:	e8bd 40b0 	ldmia.w	sp!, {r4, r5, r7, lr}
  2a:	f7ff bffe 	b.w	0 <core::fmt::num::<impl core::fmt::UpperHex for u32>::fmt>
/rustc/50a0defd5a93523067ef239936cc2e0755220904/src/libcore/fmt/num.rs:152
  2e:	4628      	mov	r0, r5
  30:	4621      	mov	r1, r4
  32:	e8bd 40b0 	ldmia.w	sp!, {r4, r5, r7, lr}
  36:	f7ff bffe 	b.w	0 <core::fmt::num::imp::<impl core::fmt::Display for u32>::fmt>

Disassembly of section .text._ZN42_$LT$$RF$T$u20$as$u20$core..fmt..Debug$GT$3fmt17h9f2de2a72af09cc6E:

00000000 <<&T as core::fmt::Debug>::fmt>:
_ZN42_$LT$$RF$T$u20$as$u20$core..fmt..Debug$GT$3fmt17h9f2de2a72af09cc6E():
/rustc/50a0defd5a93523067ef239936cc2e0755220904/src/libcore/fmt/mod.rs:1914
   0:	6800      	ldr	r0, [r0, #0]
   2:	f7ff bffe 	b.w	0 <<&T as core::fmt::Debug>::fmt>

Disassembly of section .text._ZN42_$LT$$RF$T$u20$as$u20$core..fmt..Debug$GT$3fmt17hca839ad35b02dd71E:

00000000 <<&T as core::fmt::Debug>::fmt>:
_ZN42_$LT$$RF$T$u20$as$u20$core..fmt..Debug$GT$3fmt17hca839ad35b02dd71E():
/rustc/50a0defd5a93523067ef239936cc2e0755220904/src/libcore/fmt/mod.rs:1914
   0:	b5b0      	push	{r4, r5, r7, lr}
   2:	6805      	ldr	r5, [r0, #0]
_ZN4core3fmt3num49_$LT$impl$u20$core..fmt..Debug$u20$for$u20$u8$GT$3fmt17h271d1c938b44f4eaE():
/rustc/50a0defd5a93523067ef239936cc2e0755220904/src/libcore/fmt/num.rs:147
   4:	4608      	mov	r0, r1
   6:	460c      	mov	r4, r1
   8:	f7ff fffe 	bl	0 <core::fmt::Formatter::debug_lower_hex>
   c:	b128      	cbz	r0, 1a <<&T as core::fmt::Debug>::fmt+0x1a>
/rustc/50a0defd5a93523067ef239936cc2e0755220904/src/libcore/fmt/num.rs:148
   e:	4628      	mov	r0, r5
  10:	4621      	mov	r1, r4
  12:	e8bd 40b0 	ldmia.w	sp!, {r4, r5, r7, lr}
  16:	f7ff bffe 	b.w	0 <core::fmt::num::<impl core::fmt::LowerHex for u8>::fmt>
/rustc/50a0defd5a93523067ef239936cc2e0755220904/src/libcore/fmt/num.rs:149
  1a:	4620      	mov	r0, r4
  1c:	f7ff fffe 	bl	0 <core::fmt::Formatter::debug_upper_hex>
  20:	b128      	cbz	r0, 2e <<&T as core::fmt::Debug>::fmt+0x2e>
/rustc/50a0defd5a93523067ef239936cc2e0755220904/src/libcore/fmt/num.rs:150
  22:	4628      	mov	r0, r5
  24:	4621      	mov	r1, r4
  26:	e8bd 40b0 	ldmia.w	sp!, {r4, r5, r7, lr}
  2a:	f7ff bffe 	b.w	0 <core::fmt::num::<impl core::fmt::UpperHex for u8>::fmt>
/rustc/50a0defd5a93523067ef239936cc2e0755220904/src/libcore/fmt/num.rs:152
  2e:	4628      	mov	r0, r5
  30:	4621      	mov	r1, r4
  32:	e8bd 40b0 	ldmia.w	sp!, {r4, r5, r7, lr}
  36:	f7ff bffe 	b.w	0 <core::fmt::num::imp::<impl core::fmt::Display for u8>::fmt>

Disassembly of section .text._ZN4core3ptr18real_drop_in_place17h06ade1b2fea2f8f8E:

00000000 <core::ptr::real_drop_in_place>:
_ZN4core3ptr18real_drop_in_place17h06ade1b2fea2f8f8E():
/rustc/50a0defd5a93523067ef239936cc2e0755220904/src/libcore/ptr.rs:195
   0:	4770      	bx	lr

Disassembly of section .text._ZN50_$LT$$RF$mut$u20$W$u20$as$u20$core..fmt..Write$GT$10write_char17h9a348e3076f9729bE:

00000000 <<&mut W as core::fmt::Write>::write_char>:
_ZN50_$LT$$RF$mut$u20$W$u20$as$u20$core..fmt..Write$GT$10write_char17h9a348e3076f9729bE():
/rustc/50a0defd5a93523067ef239936cc2e0755220904/src/libcore/fmt/mod.rs:205
   0:	b081      	sub	sp, #4
/rustc/50a0defd5a93523067ef239936cc2e0755220904/src/libcore/fmt/mod.rs:206
   2:	6802      	ldr	r2, [r0, #0]
   4:	2000      	movs	r0, #0
_ZN4core4char7methods22_$LT$impl$u20$char$GT$11encode_utf817hc04470e71cfe4e80E():
/rustc/50a0defd5a93523067ef239936cc2e0755220904/src/libcore/char/methods.rs:440
   6:	2980      	cmp	r1, #128	; 0x80
_ZN4core3fmt5Write10write_char17h25433175e53bb667E():
/rustc/50a0defd5a93523067ef239936cc2e0755220904/src/libcore/fmt/mod.rs:170
   8:	9000      	str	r0, [sp, #0]
_ZN4core4char7methods22_$LT$impl$u20$char$GT$11encode_utf817hc04470e71cfe4e80E():
/rustc/50a0defd5a93523067ef239936cc2e0755220904/src/libcore/char/methods.rs:440
   a:	d20a      	bcs.n	22 <<&mut W as core::fmt::Write>::write_char+0x22>
/rustc/50a0defd5a93523067ef239936cc2e0755220904/src/libcore/char/methods.rs:441
   c:	f88d 1000 	strb.w	r1, [sp]
  10:	4608      	mov	r0, r1
_ZN56_$LT$cortex_m..itm..Port$u20$as$u20$core..fmt..Write$GT$9write_str17h0b3c3d462ec4cc2cE():
/Users/Luppy/.cargo/registry/src/github.com-1ecc6299db9ec823/cortex-m-0.6.0/src/itm.rs:25

struct Port<'p>(&'p mut Stim);

impl<'p> fmt::Write for Port<'p> {
    fn write_str(&mut self, s: &str) -> fmt::Result {
        write_all(self.0, s.as_bytes());
  12:	6812      	ldr	r2, [r2, #0]
_ZN4core3ptr13read_volatile17h92e63e8c8f835ddbE():
/rustc/50a0defd5a93523067ef239936cc2e0755220904/src/libcore/ptr.rs:871
  14:	6811      	ldr	r1, [r2, #0]
_ZN8cortex_m3itm13write_aligned17h5db71ed7835f4618E():
/Users/Luppy/.cargo/registry/src/github.com-1ecc6299db9ec823/cortex-m-0.6.0/src/itm.rs:118
            left -= 2;
        }

        // final byte
        if left == 1 {
            while !port.is_fifo_ready() {}
  16:	2901      	cmp	r1, #1
_ZN4core3ptr13read_volatile17h92e63e8c8f835ddbE():
/rustc/50a0defd5a93523067ef239936cc2e0755220904/src/libcore/ptr.rs:871
  18:	bf1c      	itt	ne
  1a:	6811      	ldrne	r1, [r2, #0]
_ZN8cortex_m3itm13write_aligned17h5db71ed7835f4618E():
/Users/Luppy/.cargo/registry/src/github.com-1ecc6299db9ec823/cortex-m-0.6.0/src/itm.rs:118
  1c:	2901      	cmpne	r1, #1
  1e:	d144      	bne.n	aa <<&mut W as core::fmt::Write>::write_char+0xaa>
  20:	e049      	b.n	b6 <<&mut W as core::fmt::Write>::write_char+0xb6>
_ZN4core4char7methods22_$LT$impl$u20$char$GT$11encode_utf817hc04470e71cfe4e80E():
/rustc/50a0defd5a93523067ef239936cc2e0755220904/src/libcore/char/methods.rs:443
  22:	ebb0 2fd1 	cmp.w	r0, r1, lsr #11
  26:	d10d      	bne.n	44 <<&mut W as core::fmt::Write>::write_char+0x44>
  28:	2002      	movs	r0, #2
/rustc/50a0defd5a93523067ef239936cc2e0755220904/src/libcore/char/methods.rs:444
  2a:	098b      	lsrs	r3, r1, #6
/rustc/50a0defd5a93523067ef239936cc2e0755220904/src/libcore/char/methods.rs:445
  2c:	f360 119f 	bfi	r1, r0, #6, #26
  30:	2006      	movs	r0, #6
  32:	f88d 1001 	strb.w	r1, [sp, #1]
/rustc/50a0defd5a93523067ef239936cc2e0755220904/src/libcore/char/methods.rs:444
  36:	f360 135f 	bfi	r3, r0, #5, #27
  3a:	f88d 3000 	strb.w	r3, [sp]
  3e:	2000      	movs	r0, #0
  40:	2100      	movs	r1, #0
  42:	e01a      	b.n	7a <<&mut W as core::fmt::Write>::write_char+0x7a>
  44:	2000      	movs	r0, #0
/rustc/50a0defd5a93523067ef239936cc2e0755220904/src/libcore/char/methods.rs:447
  46:	ebb0 4f11 	cmp.w	r0, r1, lsr #16
  4a:	d138      	bne.n	be <<&mut W as core::fmt::Write>::write_char+0xbe>
  4c:	f64f 73fe 	movw	r3, #65534	; 0xfffe
/rustc/50a0defd5a93523067ef239936cc2e0755220904/src/libcore/char/methods.rs:450
  50:	4608      	mov	r0, r1
  52:	f2c0 33ff 	movt	r3, #1023	; 0x3ff
/rustc/50a0defd5a93523067ef239936cc2e0755220904/src/libcore/char/methods.rs:449
  56:	ea4f 1c91 	mov.w	ip, r1, lsr #6
/rustc/50a0defd5a93523067ef239936cc2e0755220904/src/libcore/char/methods.rs:450
  5a:	f363 109f 	bfi	r0, r3, #6, #26
  5e:	2302      	movs	r3, #2
/rustc/50a0defd5a93523067ef239936cc2e0755220904/src/libcore/char/methods.rs:449
  60:	f363 1c9f 	bfi	ip, r3, #6, #26
/rustc/50a0defd5a93523067ef239936cc2e0755220904/src/libcore/char/methods.rs:448
  64:	0b09      	lsrs	r1, r1, #12
  66:	230e      	movs	r3, #14
/rustc/50a0defd5a93523067ef239936cc2e0755220904/src/libcore/char/methods.rs:450
  68:	f88d 0002 	strb.w	r0, [sp, #2]
/rustc/50a0defd5a93523067ef239936cc2e0755220904/src/libcore/char/methods.rs:448
  6c:	f363 111f 	bfi	r1, r3, #4, #28
/rustc/50a0defd5a93523067ef239936cc2e0755220904/src/libcore/char/methods.rs:449
  70:	f88d c001 	strb.w	ip, [sp, #1]
/rustc/50a0defd5a93523067ef239936cc2e0755220904/src/libcore/char/methods.rs:448
  74:	f88d 1000 	strb.w	r1, [sp]
  78:	2101      	movs	r1, #1
_ZN56_$LT$cortex_m..itm..Port$u20$as$u20$core..fmt..Write$GT$9write_str17h0b3c3d462ec4cc2cE():
/Users/Luppy/.cargo/registry/src/github.com-1ecc6299db9ec823/cortex-m-0.6.0/src/itm.rs:25
        write_all(self.0, s.as_bytes());
  7a:	6812      	ldr	r2, [r2, #0]
_ZN4core3ptr13read_volatile17h92e63e8c8f835ddbE():
/rustc/50a0defd5a93523067ef239936cc2e0755220904/src/libcore/ptr.rs:871
  7c:	6813      	ldr	r3, [r2, #0]
_ZN8cortex_m3itm13write_aligned17h5db71ed7835f4618E():
/Users/Luppy/.cargo/registry/src/github.com-1ecc6299db9ec823/cortex-m-0.6.0/src/itm.rs:109
            while !port.is_fifo_ready() {}
  7e:	2b01      	cmp	r3, #1
_ZN4core3ptr13read_volatile17h92e63e8c8f835ddbE():
/rustc/50a0defd5a93523067ef239936cc2e0755220904/src/libcore/ptr.rs:871
  80:	bf1c      	itt	ne
  82:	6813      	ldrne	r3, [r2, #0]
_ZN8cortex_m3itm13write_aligned17h5db71ed7835f4618E():
/Users/Luppy/.cargo/registry/src/github.com-1ecc6299db9ec823/cortex-m-0.6.0/src/itm.rs:109
  84:	2b01      	cmpne	r3, #1
  86:	d005      	beq.n	94 <<&mut W as core::fmt::Write>::write_char+0x94>
_ZN4core3ptr13read_volatile17h92e63e8c8f835ddbE():
/rustc/50a0defd5a93523067ef239936cc2e0755220904/src/libcore/ptr.rs:871
  88:	6813      	ldr	r3, [r2, #0]
_ZN8cortex_m3itm13write_aligned17h5db71ed7835f4618E():
/Users/Luppy/.cargo/registry/src/github.com-1ecc6299db9ec823/cortex-m-0.6.0/src/itm.rs:109
  8a:	2b01      	cmp	r3, #1
  8c:	d002      	beq.n	94 <<&mut W as core::fmt::Write>::write_char+0x94>
_ZN4core3ptr13read_volatile17h92e63e8c8f835ddbE():
/rustc/50a0defd5a93523067ef239936cc2e0755220904/src/libcore/ptr.rs:871
  8e:	6813      	ldr	r3, [r2, #0]
_ZN8cortex_m3itm13write_aligned17h5db71ed7835f4618E():
/Users/Luppy/.cargo/registry/src/github.com-1ecc6299db9ec823/cortex-m-0.6.0/src/itm.rs:109
  90:	2b01      	cmp	r3, #1
  92:	d1f3      	bne.n	7c <<&mut W as core::fmt::Write>::write_char+0x7c>
  94:	f8bd 3000 	ldrh.w	r3, [sp]
/Users/Luppy/.cargo/registry/src/github.com-1ecc6299db9ec823/cortex-m-0.6.0/src/itm.rs:117
        if left == 1 {
  98:	2900      	cmp	r1, #0
_ZN4core3ptr14write_volatile17h99cb0c34d2e4de8bE():
/rustc/50a0defd5a93523067ef239936cc2e0755220904/src/libcore/ptr.rs:939
  9a:	8013      	strh	r3, [r2, #0]
  9c:	d00c      	beq.n	b8 <<&mut W as core::fmt::Write>::write_char+0xb8>
_ZN4core3ptr13read_volatile17h92e63e8c8f835ddbE():
/rustc/50a0defd5a93523067ef239936cc2e0755220904/src/libcore/ptr.rs:871
  9e:	6811      	ldr	r1, [r2, #0]
_ZN8cortex_m3itm13write_aligned17h5db71ed7835f4618E():
/Users/Luppy/.cargo/registry/src/github.com-1ecc6299db9ec823/cortex-m-0.6.0/src/itm.rs:118
            while !port.is_fifo_ready() {}
  a0:	2901      	cmp	r1, #1
_ZN4core3ptr13read_volatile17h92e63e8c8f835ddbE():
/rustc/50a0defd5a93523067ef239936cc2e0755220904/src/libcore/ptr.rs:871
  a2:	bf1c      	itt	ne
  a4:	6811      	ldrne	r1, [r2, #0]
_ZN8cortex_m3itm13write_aligned17h5db71ed7835f4618E():
/Users/Luppy/.cargo/registry/src/github.com-1ecc6299db9ec823/cortex-m-0.6.0/src/itm.rs:118
  a6:	2901      	cmpne	r1, #1
  a8:	d005      	beq.n	b6 <<&mut W as core::fmt::Write>::write_char+0xb6>
_ZN4core3ptr13read_volatile17h92e63e8c8f835ddbE():
/rustc/50a0defd5a93523067ef239936cc2e0755220904/src/libcore/ptr.rs:871
  aa:	6811      	ldr	r1, [r2, #0]
_ZN8cortex_m3itm13write_aligned17h5db71ed7835f4618E():
/Users/Luppy/.cargo/registry/src/github.com-1ecc6299db9ec823/cortex-m-0.6.0/src/itm.rs:118
  ac:	2901      	cmp	r1, #1
  ae:	d002      	beq.n	b6 <<&mut W as core::fmt::Write>::write_char+0xb6>
_ZN4core3ptr13read_volatile17h92e63e8c8f835ddbE():
/rustc/50a0defd5a93523067ef239936cc2e0755220904/src/libcore/ptr.rs:871
  b0:	6811      	ldr	r1, [r2, #0]
_ZN8cortex_m3itm13write_aligned17h5db71ed7835f4618E():
/Users/Luppy/.cargo/registry/src/github.com-1ecc6299db9ec823/cortex-m-0.6.0/src/itm.rs:118
  b2:	2901      	cmp	r1, #1
  b4:	d1f3      	bne.n	9e <<&mut W as core::fmt::Write>::write_char+0x9e>
_ZN4core3ptr14write_volatile17hc39b2783c51eefd0E():
/rustc/50a0defd5a93523067ef239936cc2e0755220904/src/libcore/ptr.rs:939
  b6:	7010      	strb	r0, [r2, #0]
_ZN50_$LT$$RF$mut$u20$W$u20$as$u20$core..fmt..Write$GT$10write_char17h9a348e3076f9729bE():
/rustc/50a0defd5a93523067ef239936cc2e0755220904/src/libcore/fmt/mod.rs:207
  b8:	2000      	movs	r0, #0
  ba:	b001      	add	sp, #4
  bc:	4770      	bx	lr
  be:	2002      	movs	r0, #2
_ZN4core4char7methods22_$LT$impl$u20$char$GT$11encode_utf817hc04470e71cfe4e80E():
/rustc/50a0defd5a93523067ef239936cc2e0755220904/src/libcore/char/methods.rs:456
  c0:	460b      	mov	r3, r1
  c2:	f360 139f 	bfi	r3, r0, #6, #26
  c6:	f88d 3003 	strb.w	r3, [sp, #3]
  ca:	23f0      	movs	r3, #240	; 0xf0
/rustc/50a0defd5a93523067ef239936cc2e0755220904/src/libcore/char/methods.rs:453
  cc:	ea43 4391 	orr.w	r3, r3, r1, lsr #18
  d0:	f88d 3000 	strb.w	r3, [sp]
/rustc/50a0defd5a93523067ef239936cc2e0755220904/src/libcore/char/methods.rs:455
  d4:	098b      	lsrs	r3, r1, #6
/rustc/50a0defd5a93523067ef239936cc2e0755220904/src/libcore/char/methods.rs:454
  d6:	0b09      	lsrs	r1, r1, #12
/rustc/50a0defd5a93523067ef239936cc2e0755220904/src/libcore/char/methods.rs:455
  d8:	f360 139f 	bfi	r3, r0, #6, #26
  dc:	f88d 3002 	strb.w	r3, [sp, #2]
/rustc/50a0defd5a93523067ef239936cc2e0755220904/src/libcore/char/methods.rs:454
  e0:	f360 119f 	bfi	r1, r0, #6, #26
  e4:	f88d 1001 	strb.w	r1, [sp, #1]
_ZN56_$LT$cortex_m..itm..Port$u20$as$u20$core..fmt..Write$GT$9write_str17h0b3c3d462ec4cc2cE():
/Users/Luppy/.cargo/registry/src/github.com-1ecc6299db9ec823/cortex-m-0.6.0/src/itm.rs:25
        write_all(self.0, s.as_bytes());
  e8:	6810      	ldr	r0, [r2, #0]
_ZN4core3ptr13read_volatile17h92e63e8c8f835ddbE():
/rustc/50a0defd5a93523067ef239936cc2e0755220904/src/libcore/ptr.rs:871
  ea:	6801      	ldr	r1, [r0, #0]
_ZN8cortex_m3itm11write_words17hea111f1efa6fb541E():
/Users/Luppy/.cargo/registry/src/github.com-1ecc6299db9ec823/cortex-m-0.6.0/src/itm.rs:15
        while !stim.is_fifo_ready() {}
  ec:	2901      	cmp	r1, #1
_ZN4core3ptr13read_volatile17h92e63e8c8f835ddbE():
/rustc/50a0defd5a93523067ef239936cc2e0755220904/src/libcore/ptr.rs:871
  ee:	bf1c      	itt	ne
  f0:	6801      	ldrne	r1, [r0, #0]
_ZN8cortex_m3itm11write_words17hea111f1efa6fb541E():
/Users/Luppy/.cargo/registry/src/github.com-1ecc6299db9ec823/cortex-m-0.6.0/src/itm.rs:15
  f2:	2901      	cmpne	r1, #1
  f4:	d005      	beq.n	102 <<&mut W as core::fmt::Write>::write_char+0x102>
_ZN4core3ptr13read_volatile17h92e63e8c8f835ddbE():
/rustc/50a0defd5a93523067ef239936cc2e0755220904/src/libcore/ptr.rs:871
  f6:	6801      	ldr	r1, [r0, #0]
_ZN8cortex_m3itm11write_words17hea111f1efa6fb541E():
/Users/Luppy/.cargo/registry/src/github.com-1ecc6299db9ec823/cortex-m-0.6.0/src/itm.rs:15
  f8:	2901      	cmp	r1, #1
  fa:	d002      	beq.n	102 <<&mut W as core::fmt::Write>::write_char+0x102>
_ZN4core3ptr13read_volatile17h92e63e8c8f835ddbE():
/rustc/50a0defd5a93523067ef239936cc2e0755220904/src/libcore/ptr.rs:871
  fc:	6801      	ldr	r1, [r0, #0]
_ZN8cortex_m3itm11write_words17hea111f1efa6fb541E():
/Users/Luppy/.cargo/registry/src/github.com-1ecc6299db9ec823/cortex-m-0.6.0/src/itm.rs:15
  fe:	2901      	cmp	r1, #1
 100:	d1f3      	bne.n	ea <<&mut W as core::fmt::Write>::write_char+0xea>
 102:	9900      	ldr	r1, [sp, #0]
_ZN4core3ptr14write_volatile17h805cf84299217b43E():
/rustc/50a0defd5a93523067ef239936cc2e0755220904/src/libcore/ptr.rs:939
 104:	6001      	str	r1, [r0, #0]
_ZN50_$LT$$RF$mut$u20$W$u20$as$u20$core..fmt..Write$GT$10write_char17h9a348e3076f9729bE():
/rustc/50a0defd5a93523067ef239936cc2e0755220904/src/libcore/fmt/mod.rs:207
 106:	2000      	movs	r0, #0
 108:	b001      	add	sp, #4
 10a:	4770      	bx	lr

Disassembly of section .text._ZN50_$LT$$RF$mut$u20$W$u20$as$u20$core..fmt..Write$GT$9write_fmt17h12100dae57348505E:

00000000 <<&mut W as core::fmt::Write>::write_fmt>:
_ZN50_$LT$$RF$mut$u20$W$u20$as$u20$core..fmt..Write$GT$9write_fmt17h12100dae57348505E():
/rustc/50a0defd5a93523067ef239936cc2e0755220904/src/libcore/fmt/mod.rs:209
   0:	b570      	push	{r4, r5, r6, lr}
   2:	b088      	sub	sp, #32
/rustc/50a0defd5a93523067ef239936cc2e0755220904/src/libcore/fmt/mod.rs:210
   4:	6800      	ldr	r0, [r0, #0]
   6:	aa02      	add	r2, sp, #8
   8:	9001      	str	r0, [sp, #4]
_ZN4core3fmt5Write9write_fmt17h530049205d81a56bE():
/rustc/50a0defd5a93523067ef239936cc2e0755220904/src/libcore/fmt/mod.rs:195
   a:	e891 5078 	ldmia.w	r1, {r3, r4, r5, r6, ip, lr}
   e:	4610      	mov	r0, r2
  10:	f240 0100 	movw	r1, #0
  14:	f2c0 0100 	movt	r1, #0
  18:	e880 5078 	stmia.w	r0, {r3, r4, r5, r6, ip, lr}
  1c:	a801      	add	r0, sp, #4
  1e:	f7ff fffe 	bl	0 <core::fmt::write>
_ZN50_$LT$$RF$mut$u20$W$u20$as$u20$core..fmt..Write$GT$9write_fmt17h12100dae57348505E():
/rustc/50a0defd5a93523067ef239936cc2e0755220904/src/libcore/fmt/mod.rs:211
  22:	b008      	add	sp, #32
  24:	bd70      	pop	{r4, r5, r6, pc}

Disassembly of section .text._ZN50_$LT$$RF$mut$u20$W$u20$as$u20$core..fmt..Write$GT$9write_str17hd2e314001924b83dE:

00000000 <<&mut W as core::fmt::Write>::write_str>:
_ZN8cortex_m3itm9write_all17h34ed86ddbf0ecd73E():
/Users/Luppy/.cargo/registry/src/github.com-1ecc6299db9ec823/cortex-m-0.6.0/src/itm.rs:36
        if len == 0 {
   0:	2a00      	cmp	r2, #0
   2:	d07e      	beq.n	102 <<&mut W as core::fmt::Write>::write_str+0x102>
_ZN50_$LT$$RF$mut$u20$W$u20$as$u20$core..fmt..Write$GT$9write_str17hd2e314001924b83dE():
   4:	6800      	ldr	r0, [r0, #0]
_ZN8cortex_m3itm9write_all17h34ed86ddbf0ecd73E():
/Users/Luppy/.cargo/registry/src/github.com-1ecc6299db9ec823/cortex-m-0.6.0/src/itm.rs:41
        if ptr as usize % 2 == 1 {
   6:	07cb      	lsls	r3, r1, #31
_ZN56_$LT$cortex_m..itm..Port$u20$as$u20$core..fmt..Write$GT$9write_str17h0b3c3d462ec4cc2cE():
   8:	6800      	ldr	r0, [r0, #0]
_ZN8cortex_m3itm9write_all17h34ed86ddbf0ecd73E():
/Users/Luppy/.cargo/registry/src/github.com-1ecc6299db9ec823/cortex-m-0.6.0/src/itm.rs:41
   a:	d00f      	beq.n	2c <<&mut W as core::fmt::Write>::write_str+0x2c>
_ZN4core3ptr13read_volatile17h92e63e8c8f835ddbE():
/rustc/50a0defd5a93523067ef239936cc2e0755220904/src/libcore/ptr.rs:871
   c:	6803      	ldr	r3, [r0, #0]
_ZN8cortex_m3itm9write_all17h34ed86ddbf0ecd73E():
/Users/Luppy/.cargo/registry/src/github.com-1ecc6299db9ec823/cortex-m-0.6.0/src/itm.rs:42
            while !port.is_fifo_ready() {}
   e:	2b01      	cmp	r3, #1
_ZN4core3ptr13read_volatile17h92e63e8c8f835ddbE():
/rustc/50a0defd5a93523067ef239936cc2e0755220904/src/libcore/ptr.rs:871
  10:	bf1c      	itt	ne
  12:	6803      	ldrne	r3, [r0, #0]
_ZN8cortex_m3itm9write_all17h34ed86ddbf0ecd73E():
/Users/Luppy/.cargo/registry/src/github.com-1ecc6299db9ec823/cortex-m-0.6.0/src/itm.rs:42
  14:	2b01      	cmpne	r3, #1
  16:	d005      	beq.n	24 <<&mut W as core::fmt::Write>::write_str+0x24>
_ZN4core3ptr13read_volatile17h92e63e8c8f835ddbE():
/rustc/50a0defd5a93523067ef239936cc2e0755220904/src/libcore/ptr.rs:871
  18:	6803      	ldr	r3, [r0, #0]
_ZN8cortex_m3itm9write_all17h34ed86ddbf0ecd73E():
/Users/Luppy/.cargo/registry/src/github.com-1ecc6299db9ec823/cortex-m-0.6.0/src/itm.rs:42
  1a:	2b01      	cmp	r3, #1
  1c:	d002      	beq.n	24 <<&mut W as core::fmt::Write>::write_str+0x24>
_ZN4core3ptr13read_volatile17h92e63e8c8f835ddbE():
/rustc/50a0defd5a93523067ef239936cc2e0755220904/src/libcore/ptr.rs:871
  1e:	6803      	ldr	r3, [r0, #0]
_ZN8cortex_m3itm9write_all17h34ed86ddbf0ecd73E():
/Users/Luppy/.cargo/registry/src/github.com-1ecc6299db9ec823/cortex-m-0.6.0/src/itm.rs:42
  20:	2b01      	cmp	r3, #1
  22:	d1f3      	bne.n	c <<&mut W as core::fmt::Write>::write_str+0xc>
/Users/Luppy/.cargo/registry/src/github.com-1ecc6299db9ec823/cortex-m-0.6.0/src/itm.rs:43
            port.write_u8(*ptr);
  24:	f811 3b01 	ldrb.w	r3, [r1], #1
/Users/Luppy/.cargo/registry/src/github.com-1ecc6299db9ec823/cortex-m-0.6.0/src/itm.rs:47
            len -= 1;
  28:	3a01      	subs	r2, #1
_ZN4core3ptr14write_volatile17hc39b2783c51eefd0E():
/rustc/50a0defd5a93523067ef239936cc2e0755220904/src/libcore/ptr.rs:939
  2a:	7003      	strb	r3, [r0, #0]
_ZN8cortex_m3itm9write_all17h34ed86ddbf0ecd73E():
/Users/Luppy/.cargo/registry/src/github.com-1ecc6299db9ec823/cortex-m-0.6.0/src/itm.rs:51
        if ptr as usize % 4 == 2 {
  2c:	f001 0303 	and.w	r3, r1, #3
  30:	2b02      	cmp	r3, #2
  32:	d111      	bne.n	58 <<&mut W as core::fmt::Write>::write_str+0x58>
/Users/Luppy/.cargo/registry/src/github.com-1ecc6299db9ec823/cortex-m-0.6.0/src/itm.rs:52
            if len > 1 {
  34:	2a02      	cmp	r2, #2
  36:	d354      	bcc.n	e2 <<&mut W as core::fmt::Write>::write_str+0xe2>
_ZN4core3ptr13read_volatile17h92e63e8c8f835ddbE():
/rustc/50a0defd5a93523067ef239936cc2e0755220904/src/libcore/ptr.rs:871
  38:	6803      	ldr	r3, [r0, #0]
_ZN8cortex_m3itm9write_all17h34ed86ddbf0ecd73E():
/Users/Luppy/.cargo/registry/src/github.com-1ecc6299db9ec823/cortex-m-0.6.0/src/itm.rs:54
                while !port.is_fifo_ready() {}
  3a:	2b01      	cmp	r3, #1
_ZN4core3ptr13read_volatile17h92e63e8c8f835ddbE():
/rustc/50a0defd5a93523067ef239936cc2e0755220904/src/libcore/ptr.rs:871
  3c:	bf1c      	itt	ne
  3e:	6803      	ldrne	r3, [r0, #0]
_ZN8cortex_m3itm9write_all17h34ed86ddbf0ecd73E():
/Users/Luppy/.cargo/registry/src/github.com-1ecc6299db9ec823/cortex-m-0.6.0/src/itm.rs:54
  40:	2b01      	cmpne	r3, #1
  42:	d005      	beq.n	50 <<&mut W as core::fmt::Write>::write_str+0x50>
_ZN4core3ptr13read_volatile17h92e63e8c8f835ddbE():
/rustc/50a0defd5a93523067ef239936cc2e0755220904/src/libcore/ptr.rs:871
  44:	6803      	ldr	r3, [r0, #0]
_ZN8cortex_m3itm9write_all17h34ed86ddbf0ecd73E():
/Users/Luppy/.cargo/registry/src/github.com-1ecc6299db9ec823/cortex-m-0.6.0/src/itm.rs:54
  46:	2b01      	cmp	r3, #1
  48:	d002      	beq.n	50 <<&mut W as core::fmt::Write>::write_str+0x50>
_ZN4core3ptr13read_volatile17h92e63e8c8f835ddbE():
/rustc/50a0defd5a93523067ef239936cc2e0755220904/src/libcore/ptr.rs:871
  4a:	6803      	ldr	r3, [r0, #0]
_ZN8cortex_m3itm9write_all17h34ed86ddbf0ecd73E():
/Users/Luppy/.cargo/registry/src/github.com-1ecc6299db9ec823/cortex-m-0.6.0/src/itm.rs:54
  4c:	2b01      	cmp	r3, #1
  4e:	d1f3      	bne.n	38 <<&mut W as core::fmt::Write>::write_str+0x38>
  50:	f831 3b02 	ldrh.w	r3, [r1], #2
/Users/Luppy/.cargo/registry/src/github.com-1ecc6299db9ec823/cortex-m-0.6.0/src/itm.rs:59
                len -= 2;
  54:	3a02      	subs	r2, #2
_ZN4core3ptr14write_volatile17h99cb0c34d2e4de8bE():
/rustc/50a0defd5a93523067ef239936cc2e0755220904/src/libcore/ptr.rs:939
  56:	8003      	strh	r3, [r0, #0]
_ZN8cortex_m3itm13write_aligned17h5db71ed7835f4618E():
/Users/Luppy/.cargo/registry/src/github.com-1ecc6299db9ec823/cortex-m-0.6.0/src/itm.rs:93
        if len == 0 {
  58:	2a00      	cmp	r2, #0
  5a:	d052      	beq.n	102 <<&mut W as core::fmt::Write>::write_str+0x102>
  5c:	b5b0      	push	{r4, r5, r7, lr}
/Users/Luppy/.cargo/registry/src/github.com-1ecc6299db9ec823/cortex-m-0.6.0/src/itm.rs:97
        let split = len & !0b11;
  5e:	f022 0c03 	bic.w	ip, r2, #3
  62:	2300      	movs	r3, #0
_ZN4core4iter5range101_$LT$impl$u20$core..iter..traits..iterator..Iterator$u20$for$u20$core..ops..range..Range$LT$A$GT$$GT$4next17h08524424f0191e33E():
/rustc/50a0defd5a93523067ef239936cc2e0755220904/src/libcore/iter/range.rs:171
  64:	ebb3 0f92 	cmp.w	r3, r2, lsr #2
  68:	d015      	beq.n	96 <<&mut W as core::fmt::Write>::write_str+0x96>
_ZN8cortex_m3itm11write_words17hea111f1efa6fb541E():
  6a:	ea4f 0e92 	mov.w	lr, r2, lsr #2
  6e:	2300      	movs	r3, #0
  70:	460c      	mov	r4, r1
_ZN4core3ptr13read_volatile17h92e63e8c8f835ddbE():
/rustc/50a0defd5a93523067ef239936cc2e0755220904/src/libcore/ptr.rs:871
  72:	6805      	ldr	r5, [r0, #0]
_ZN8cortex_m3itm11write_words17hea111f1efa6fb541E():
/Users/Luppy/.cargo/registry/src/github.com-1ecc6299db9ec823/cortex-m-0.6.0/src/itm.rs:15
        while !stim.is_fifo_ready() {}
  74:	2d01      	cmp	r5, #1
_ZN4core3ptr13read_volatile17h92e63e8c8f835ddbE():
/rustc/50a0defd5a93523067ef239936cc2e0755220904/src/libcore/ptr.rs:871
  76:	bf1c      	itt	ne
  78:	6805      	ldrne	r5, [r0, #0]
_ZN8cortex_m3itm11write_words17hea111f1efa6fb541E():
/Users/Luppy/.cargo/registry/src/github.com-1ecc6299db9ec823/cortex-m-0.6.0/src/itm.rs:15
  7a:	2d01      	cmpne	r5, #1
  7c:	d005      	beq.n	8a <<&mut W as core::fmt::Write>::write_str+0x8a>
_ZN4core3ptr13read_volatile17h92e63e8c8f835ddbE():
/rustc/50a0defd5a93523067ef239936cc2e0755220904/src/libcore/ptr.rs:871
  7e:	6805      	ldr	r5, [r0, #0]
_ZN8cortex_m3itm11write_words17hea111f1efa6fb541E():
/Users/Luppy/.cargo/registry/src/github.com-1ecc6299db9ec823/cortex-m-0.6.0/src/itm.rs:15
  80:	2d01      	cmp	r5, #1
  82:	d002      	beq.n	8a <<&mut W as core::fmt::Write>::write_str+0x8a>
_ZN4core3ptr13read_volatile17h92e63e8c8f835ddbE():
/rustc/50a0defd5a93523067ef239936cc2e0755220904/src/libcore/ptr.rs:871
  84:	6805      	ldr	r5, [r0, #0]
_ZN8cortex_m3itm11write_words17hea111f1efa6fb541E():
/Users/Luppy/.cargo/registry/src/github.com-1ecc6299db9ec823/cortex-m-0.6.0/src/itm.rs:15
  86:	2d01      	cmp	r5, #1
  88:	d1f3      	bne.n	72 <<&mut W as core::fmt::Write>::write_str+0x72>
  8a:	f854 5b04 	ldr.w	r5, [r4], #4
_ZN4core3num23_$LT$impl$u20$usize$GT$15overflowing_add17hde7e9fa4130a5804E():
/rustc/50a0defd5a93523067ef239936cc2e0755220904/src/libcore/num/mod.rs:3349
  8e:	3301      	adds	r3, #1
_ZN4core4iter5range101_$LT$impl$u20$core..iter..traits..iterator..Iterator$u20$for$u20$core..ops..range..Range$LT$A$GT$$GT$4next17h08524424f0191e33E():
/rustc/50a0defd5a93523067ef239936cc2e0755220904/src/libcore/iter/range.rs:171
  90:	4573      	cmp	r3, lr
_ZN4core3ptr14write_volatile17h805cf84299217b43E():
/rustc/50a0defd5a93523067ef239936cc2e0755220904/src/libcore/ptr.rs:939
  92:	6005      	str	r5, [r0, #0]
  94:	d1ed      	bne.n	72 <<&mut W as core::fmt::Write>::write_str+0x72>
_ZN8cortex_m3itm13write_aligned17h5db71ed7835f4618E():
/Users/Luppy/.cargo/registry/src/github.com-1ecc6299db9ec823/cortex-m-0.6.0/src/itm.rs:104
        let mut left = len & 0b11;
  96:	f002 0203 	and.w	r2, r2, #3
_ZN4core3ptr33_$LT$impl$u20$$BP$const$u20$T$GT$6offset17heeb408278a2315f2E():
/rustc/50a0defd5a93523067ef239936cc2e0755220904/src/libcore/ptr.rs:1077
  9a:	4461      	add	r1, ip
_ZN8cortex_m3itm13write_aligned17h5db71ed7835f4618E():
/Users/Luppy/.cargo/registry/src/github.com-1ecc6299db9ec823/cortex-m-0.6.0/src/itm.rs:108
        if left > 1 {
  9c:	2a02      	cmp	r2, #2
  9e:	e8bd 40b0 	ldmia.w	sp!, {r4, r5, r7, lr}
  a2:	d30f      	bcc.n	c4 <<&mut W as core::fmt::Write>::write_str+0xc4>
_ZN4core3ptr13read_volatile17h92e63e8c8f835ddbE():
/rustc/50a0defd5a93523067ef239936cc2e0755220904/src/libcore/ptr.rs:871
  a4:	6803      	ldr	r3, [r0, #0]
_ZN8cortex_m3itm13write_aligned17h5db71ed7835f4618E():
/Users/Luppy/.cargo/registry/src/github.com-1ecc6299db9ec823/cortex-m-0.6.0/src/itm.rs:109
            while !port.is_fifo_ready() {}
  a6:	2b01      	cmp	r3, #1
_ZN4core3ptr13read_volatile17h92e63e8c8f835ddbE():
/rustc/50a0defd5a93523067ef239936cc2e0755220904/src/libcore/ptr.rs:871
  a8:	bf1c      	itt	ne
  aa:	6803      	ldrne	r3, [r0, #0]
_ZN8cortex_m3itm13write_aligned17h5db71ed7835f4618E():
/Users/Luppy/.cargo/registry/src/github.com-1ecc6299db9ec823/cortex-m-0.6.0/src/itm.rs:109
  ac:	2b01      	cmpne	r3, #1
  ae:	d005      	beq.n	bc <<&mut W as core::fmt::Write>::write_str+0xbc>
_ZN4core3ptr13read_volatile17h92e63e8c8f835ddbE():
/rustc/50a0defd5a93523067ef239936cc2e0755220904/src/libcore/ptr.rs:871
  b0:	6803      	ldr	r3, [r0, #0]
_ZN8cortex_m3itm13write_aligned17h5db71ed7835f4618E():
/Users/Luppy/.cargo/registry/src/github.com-1ecc6299db9ec823/cortex-m-0.6.0/src/itm.rs:109
  b2:	2b01      	cmp	r3, #1
  b4:	d002      	beq.n	bc <<&mut W as core::fmt::Write>::write_str+0xbc>
_ZN4core3ptr13read_volatile17h92e63e8c8f835ddbE():
/rustc/50a0defd5a93523067ef239936cc2e0755220904/src/libcore/ptr.rs:871
  b6:	6803      	ldr	r3, [r0, #0]
_ZN8cortex_m3itm13write_aligned17h5db71ed7835f4618E():
/Users/Luppy/.cargo/registry/src/github.com-1ecc6299db9ec823/cortex-m-0.6.0/src/itm.rs:109
  b8:	2b01      	cmp	r3, #1
  ba:	d1f3      	bne.n	a4 <<&mut W as core::fmt::Write>::write_str+0xa4>
  bc:	f831 3b02 	ldrh.w	r3, [r1], #2
/Users/Luppy/.cargo/registry/src/github.com-1ecc6299db9ec823/cortex-m-0.6.0/src/itm.rs:113
            left -= 2;
  c0:	3a02      	subs	r2, #2
_ZN4core3ptr14write_volatile17h99cb0c34d2e4de8bE():
/rustc/50a0defd5a93523067ef239936cc2e0755220904/src/libcore/ptr.rs:939
  c2:	8003      	strh	r3, [r0, #0]
_ZN8cortex_m3itm13write_aligned17h5db71ed7835f4618E():
/Users/Luppy/.cargo/registry/src/github.com-1ecc6299db9ec823/cortex-m-0.6.0/src/itm.rs:117
        if left == 1 {
  c4:	2a01      	cmp	r2, #1
  c6:	d11c      	bne.n	102 <<&mut W as core::fmt::Write>::write_str+0x102>
_ZN4core3ptr13read_volatile17h92e63e8c8f835ddbE():
/rustc/50a0defd5a93523067ef239936cc2e0755220904/src/libcore/ptr.rs:871
  c8:	6802      	ldr	r2, [r0, #0]
_ZN8cortex_m3itm13write_aligned17h5db71ed7835f4618E():
/Users/Luppy/.cargo/registry/src/github.com-1ecc6299db9ec823/cortex-m-0.6.0/src/itm.rs:118
            while !port.is_fifo_ready() {}
  ca:	2a01      	cmp	r2, #1
  cc:	d017      	beq.n	fe <<&mut W as core::fmt::Write>::write_str+0xfe>
_ZN4core3ptr13read_volatile17h92e63e8c8f835ddbE():
/rustc/50a0defd5a93523067ef239936cc2e0755220904/src/libcore/ptr.rs:871
  ce:	6802      	ldr	r2, [r0, #0]
_ZN8cortex_m3itm13write_aligned17h5db71ed7835f4618E():
/Users/Luppy/.cargo/registry/src/github.com-1ecc6299db9ec823/cortex-m-0.6.0/src/itm.rs:118
  d0:	2a01      	cmp	r2, #1
_ZN4core3ptr13read_volatile17h92e63e8c8f835ddbE():
/rustc/50a0defd5a93523067ef239936cc2e0755220904/src/libcore/ptr.rs:871
  d2:	bf1c      	itt	ne
  d4:	6802      	ldrne	r2, [r0, #0]
_ZN8cortex_m3itm13write_aligned17h5db71ed7835f4618E():
/Users/Luppy/.cargo/registry/src/github.com-1ecc6299db9ec823/cortex-m-0.6.0/src/itm.rs:118
  d6:	2a01      	cmpne	r2, #1
  d8:	d011      	beq.n	fe <<&mut W as core::fmt::Write>::write_str+0xfe>
_ZN4core3ptr13read_volatile17h92e63e8c8f835ddbE():
/rustc/50a0defd5a93523067ef239936cc2e0755220904/src/libcore/ptr.rs:871
  da:	6802      	ldr	r2, [r0, #0]
_ZN8cortex_m3itm13write_aligned17h5db71ed7835f4618E():
/Users/Luppy/.cargo/registry/src/github.com-1ecc6299db9ec823/cortex-m-0.6.0/src/itm.rs:118
  dc:	2a01      	cmp	r2, #1
  de:	d1f3      	bne.n	c8 <<&mut W as core::fmt::Write>::write_str+0xc8>
  e0:	e00d      	b.n	fe <<&mut W as core::fmt::Write>::write_str+0xfe>
_ZN8cortex_m3itm9write_all17h34ed86ddbf0ecd73E():
/Users/Luppy/.cargo/registry/src/github.com-1ecc6299db9ec823/cortex-m-0.6.0/src/itm.rs:61
                if len == 1 {
  e2:	2a01      	cmp	r2, #1
  e4:	d10d      	bne.n	102 <<&mut W as core::fmt::Write>::write_str+0x102>
_ZN4core3ptr13read_volatile17h92e63e8c8f835ddbE():
/rustc/50a0defd5a93523067ef239936cc2e0755220904/src/libcore/ptr.rs:871
  e6:	6802      	ldr	r2, [r0, #0]
_ZN8cortex_m3itm9write_all17h34ed86ddbf0ecd73E():
/Users/Luppy/.cargo/registry/src/github.com-1ecc6299db9ec823/cortex-m-0.6.0/src/itm.rs:63
                    while !port.is_fifo_ready() {}
  e8:	2a01      	cmp	r2, #1
_ZN4core3ptr13read_volatile17h92e63e8c8f835ddbE():
/rustc/50a0defd5a93523067ef239936cc2e0755220904/src/libcore/ptr.rs:871
  ea:	bf1c      	itt	ne
  ec:	6802      	ldrne	r2, [r0, #0]
_ZN8cortex_m3itm9write_all17h34ed86ddbf0ecd73E():
/Users/Luppy/.cargo/registry/src/github.com-1ecc6299db9ec823/cortex-m-0.6.0/src/itm.rs:63
  ee:	2a01      	cmpne	r2, #1
  f0:	d005      	beq.n	fe <<&mut W as core::fmt::Write>::write_str+0xfe>
_ZN4core3ptr13read_volatile17h92e63e8c8f835ddbE():
/rustc/50a0defd5a93523067ef239936cc2e0755220904/src/libcore/ptr.rs:871
  f2:	6802      	ldr	r2, [r0, #0]
_ZN8cortex_m3itm9write_all17h34ed86ddbf0ecd73E():
/Users/Luppy/.cargo/registry/src/github.com-1ecc6299db9ec823/cortex-m-0.6.0/src/itm.rs:63
  f4:	2a01      	cmp	r2, #1
  f6:	d002      	beq.n	fe <<&mut W as core::fmt::Write>::write_str+0xfe>
_ZN4core3ptr13read_volatile17h92e63e8c8f835ddbE():
/rustc/50a0defd5a93523067ef239936cc2e0755220904/src/libcore/ptr.rs:871
  f8:	6802      	ldr	r2, [r0, #0]
_ZN8cortex_m3itm9write_all17h34ed86ddbf0ecd73E():
/Users/Luppy/.cargo/registry/src/github.com-1ecc6299db9ec823/cortex-m-0.6.0/src/itm.rs:63
  fa:	2a01      	cmp	r2, #1
  fc:	d1f3      	bne.n	e6 <<&mut W as core::fmt::Write>::write_str+0xe6>
  fe:	7809      	ldrb	r1, [r1, #0]
 100:	7001      	strb	r1, [r0, #0]
_ZN50_$LT$$RF$mut$u20$W$u20$as$u20$core..fmt..Write$GT$9write_str17hd2e314001924b83dE():
/rustc/50a0defd5a93523067ef239936cc2e0755220904/src/libcore/fmt/mod.rs:203
 102:	2000      	movs	r0, #0
 104:	4770      	bx	lr

Disassembly of section .text._ZN56_$LT$cortex_m..itm..Port$u20$as$u20$core..fmt..Write$GT$9write_str17h0b3c3d462ec4cc2cE:

00000000 <<cortex_m::itm::Port as core::fmt::Write>::write_str>:
_ZN8cortex_m3itm9write_all17h34ed86ddbf0ecd73E():
/Users/Luppy/.cargo/registry/src/github.com-1ecc6299db9ec823/cortex-m-0.6.0/src/itm.rs:36
        if len == 0 {
   0:	2a00      	cmp	r2, #0
   2:	d07d      	beq.n	100 <<cortex_m::itm::Port as core::fmt::Write>::write_str+0x100>
_ZN56_$LT$cortex_m..itm..Port$u20$as$u20$core..fmt..Write$GT$9write_str17h0b3c3d462ec4cc2cE():
   4:	6800      	ldr	r0, [r0, #0]
_ZN8cortex_m3itm9write_all17h34ed86ddbf0ecd73E():
/Users/Luppy/.cargo/registry/src/github.com-1ecc6299db9ec823/cortex-m-0.6.0/src/itm.rs:41
        if ptr as usize % 2 == 1 {
   6:	07cb      	lsls	r3, r1, #31
   8:	d00f      	beq.n	2a <<cortex_m::itm::Port as core::fmt::Write>::write_str+0x2a>
_ZN4core3ptr13read_volatile17h92e63e8c8f835ddbE():
/rustc/50a0defd5a93523067ef239936cc2e0755220904/src/libcore/ptr.rs:871
   a:	6803      	ldr	r3, [r0, #0]
_ZN8cortex_m3itm9write_all17h34ed86ddbf0ecd73E():
/Users/Luppy/.cargo/registry/src/github.com-1ecc6299db9ec823/cortex-m-0.6.0/src/itm.rs:42
            while !port.is_fifo_ready() {}
   c:	2b01      	cmp	r3, #1
_ZN4core3ptr13read_volatile17h92e63e8c8f835ddbE():
/rustc/50a0defd5a93523067ef239936cc2e0755220904/src/libcore/ptr.rs:871
   e:	bf1c      	itt	ne
  10:	6803      	ldrne	r3, [r0, #0]
_ZN8cortex_m3itm9write_all17h34ed86ddbf0ecd73E():
/Users/Luppy/.cargo/registry/src/github.com-1ecc6299db9ec823/cortex-m-0.6.0/src/itm.rs:42
  12:	2b01      	cmpne	r3, #1
  14:	d005      	beq.n	22 <<cortex_m::itm::Port as core::fmt::Write>::write_str+0x22>
_ZN4core3ptr13read_volatile17h92e63e8c8f835ddbE():
/rustc/50a0defd5a93523067ef239936cc2e0755220904/src/libcore/ptr.rs:871
  16:	6803      	ldr	r3, [r0, #0]
_ZN8cortex_m3itm9write_all17h34ed86ddbf0ecd73E():
/Users/Luppy/.cargo/registry/src/github.com-1ecc6299db9ec823/cortex-m-0.6.0/src/itm.rs:42
  18:	2b01      	cmp	r3, #1
  1a:	d002      	beq.n	22 <<cortex_m::itm::Port as core::fmt::Write>::write_str+0x22>
_ZN4core3ptr13read_volatile17h92e63e8c8f835ddbE():
/rustc/50a0defd5a93523067ef239936cc2e0755220904/src/libcore/ptr.rs:871
  1c:	6803      	ldr	r3, [r0, #0]
_ZN8cortex_m3itm9write_all17h34ed86ddbf0ecd73E():
/Users/Luppy/.cargo/registry/src/github.com-1ecc6299db9ec823/cortex-m-0.6.0/src/itm.rs:42
  1e:	2b01      	cmp	r3, #1
  20:	d1f3      	bne.n	a <<cortex_m::itm::Port as core::fmt::Write>::write_str+0xa>
/Users/Luppy/.cargo/registry/src/github.com-1ecc6299db9ec823/cortex-m-0.6.0/src/itm.rs:43
            port.write_u8(*ptr);
  22:	f811 3b01 	ldrb.w	r3, [r1], #1
/Users/Luppy/.cargo/registry/src/github.com-1ecc6299db9ec823/cortex-m-0.6.0/src/itm.rs:47
            len -= 1;
  26:	3a01      	subs	r2, #1
_ZN4core3ptr14write_volatile17hc39b2783c51eefd0E():
/rustc/50a0defd5a93523067ef239936cc2e0755220904/src/libcore/ptr.rs:939
  28:	7003      	strb	r3, [r0, #0]
_ZN8cortex_m3itm9write_all17h34ed86ddbf0ecd73E():
/Users/Luppy/.cargo/registry/src/github.com-1ecc6299db9ec823/cortex-m-0.6.0/src/itm.rs:51
        if ptr as usize % 4 == 2 {
  2a:	f001 0303 	and.w	r3, r1, #3
  2e:	2b02      	cmp	r3, #2
  30:	d111      	bne.n	56 <<cortex_m::itm::Port as core::fmt::Write>::write_str+0x56>
/Users/Luppy/.cargo/registry/src/github.com-1ecc6299db9ec823/cortex-m-0.6.0/src/itm.rs:52
            if len > 1 {
  32:	2a02      	cmp	r2, #2
  34:	d354      	bcc.n	e0 <<cortex_m::itm::Port as core::fmt::Write>::write_str+0xe0>
_ZN4core3ptr13read_volatile17h92e63e8c8f835ddbE():
/rustc/50a0defd5a93523067ef239936cc2e0755220904/src/libcore/ptr.rs:871
  36:	6803      	ldr	r3, [r0, #0]
_ZN8cortex_m3itm9write_all17h34ed86ddbf0ecd73E():
/Users/Luppy/.cargo/registry/src/github.com-1ecc6299db9ec823/cortex-m-0.6.0/src/itm.rs:54
                while !port.is_fifo_ready() {}
  38:	2b01      	cmp	r3, #1
_ZN4core3ptr13read_volatile17h92e63e8c8f835ddbE():
/rustc/50a0defd5a93523067ef239936cc2e0755220904/src/libcore/ptr.rs:871
  3a:	bf1c      	itt	ne
  3c:	6803      	ldrne	r3, [r0, #0]
_ZN8cortex_m3itm9write_all17h34ed86ddbf0ecd73E():
/Users/Luppy/.cargo/registry/src/github.com-1ecc6299db9ec823/cortex-m-0.6.0/src/itm.rs:54
  3e:	2b01      	cmpne	r3, #1
  40:	d005      	beq.n	4e <<cortex_m::itm::Port as core::fmt::Write>::write_str+0x4e>
_ZN4core3ptr13read_volatile17h92e63e8c8f835ddbE():
/rustc/50a0defd5a93523067ef239936cc2e0755220904/src/libcore/ptr.rs:871
  42:	6803      	ldr	r3, [r0, #0]
_ZN8cortex_m3itm9write_all17h34ed86ddbf0ecd73E():
/Users/Luppy/.cargo/registry/src/github.com-1ecc6299db9ec823/cortex-m-0.6.0/src/itm.rs:54
  44:	2b01      	cmp	r3, #1
  46:	d002      	beq.n	4e <<cortex_m::itm::Port as core::fmt::Write>::write_str+0x4e>
_ZN4core3ptr13read_volatile17h92e63e8c8f835ddbE():
/rustc/50a0defd5a93523067ef239936cc2e0755220904/src/libcore/ptr.rs:871
  48:	6803      	ldr	r3, [r0, #0]
_ZN8cortex_m3itm9write_all17h34ed86ddbf0ecd73E():
/Users/Luppy/.cargo/registry/src/github.com-1ecc6299db9ec823/cortex-m-0.6.0/src/itm.rs:54
  4a:	2b01      	cmp	r3, #1
  4c:	d1f3      	bne.n	36 <<cortex_m::itm::Port as core::fmt::Write>::write_str+0x36>
  4e:	f831 3b02 	ldrh.w	r3, [r1], #2
/Users/Luppy/.cargo/registry/src/github.com-1ecc6299db9ec823/cortex-m-0.6.0/src/itm.rs:59
                len -= 2;
  52:	3a02      	subs	r2, #2
_ZN4core3ptr14write_volatile17h99cb0c34d2e4de8bE():
/rustc/50a0defd5a93523067ef239936cc2e0755220904/src/libcore/ptr.rs:939
  54:	8003      	strh	r3, [r0, #0]
_ZN8cortex_m3itm13write_aligned17h5db71ed7835f4618E():
/Users/Luppy/.cargo/registry/src/github.com-1ecc6299db9ec823/cortex-m-0.6.0/src/itm.rs:93
        if len == 0 {
  56:	2a00      	cmp	r2, #0
  58:	d052      	beq.n	100 <<cortex_m::itm::Port as core::fmt::Write>::write_str+0x100>
  5a:	b5b0      	push	{r4, r5, r7, lr}
/Users/Luppy/.cargo/registry/src/github.com-1ecc6299db9ec823/cortex-m-0.6.0/src/itm.rs:97
        let split = len & !0b11;
  5c:	f022 0c03 	bic.w	ip, r2, #3
  60:	2300      	movs	r3, #0
_ZN4core4iter5range101_$LT$impl$u20$core..iter..traits..iterator..Iterator$u20$for$u20$core..ops..range..Range$LT$A$GT$$GT$4next17h08524424f0191e33E():
/rustc/50a0defd5a93523067ef239936cc2e0755220904/src/libcore/iter/range.rs:171
  62:	ebb3 0f92 	cmp.w	r3, r2, lsr #2
  66:	d015      	beq.n	94 <<cortex_m::itm::Port as core::fmt::Write>::write_str+0x94>
_ZN8cortex_m3itm11write_words17hea111f1efa6fb541E():
  68:	ea4f 0e92 	mov.w	lr, r2, lsr #2
  6c:	2300      	movs	r3, #0
  6e:	460c      	mov	r4, r1
_ZN4core3ptr13read_volatile17h92e63e8c8f835ddbE():
/rustc/50a0defd5a93523067ef239936cc2e0755220904/src/libcore/ptr.rs:871
  70:	6805      	ldr	r5, [r0, #0]
_ZN8cortex_m3itm11write_words17hea111f1efa6fb541E():
/Users/Luppy/.cargo/registry/src/github.com-1ecc6299db9ec823/cortex-m-0.6.0/src/itm.rs:15
        while !stim.is_fifo_ready() {}
  72:	2d01      	cmp	r5, #1
_ZN4core3ptr13read_volatile17h92e63e8c8f835ddbE():
/rustc/50a0defd5a93523067ef239936cc2e0755220904/src/libcore/ptr.rs:871
  74:	bf1c      	itt	ne
  76:	6805      	ldrne	r5, [r0, #0]
_ZN8cortex_m3itm11write_words17hea111f1efa6fb541E():
/Users/Luppy/.cargo/registry/src/github.com-1ecc6299db9ec823/cortex-m-0.6.0/src/itm.rs:15
  78:	2d01      	cmpne	r5, #1
  7a:	d005      	beq.n	88 <<cortex_m::itm::Port as core::fmt::Write>::write_str+0x88>
_ZN4core3ptr13read_volatile17h92e63e8c8f835ddbE():
/rustc/50a0defd5a93523067ef239936cc2e0755220904/src/libcore/ptr.rs:871
  7c:	6805      	ldr	r5, [r0, #0]
_ZN8cortex_m3itm11write_words17hea111f1efa6fb541E():
/Users/Luppy/.cargo/registry/src/github.com-1ecc6299db9ec823/cortex-m-0.6.0/src/itm.rs:15
  7e:	2d01      	cmp	r5, #1
  80:	d002      	beq.n	88 <<cortex_m::itm::Port as core::fmt::Write>::write_str+0x88>
_ZN4core3ptr13read_volatile17h92e63e8c8f835ddbE():
/rustc/50a0defd5a93523067ef239936cc2e0755220904/src/libcore/ptr.rs:871
  82:	6805      	ldr	r5, [r0, #0]
_ZN8cortex_m3itm11write_words17hea111f1efa6fb541E():
/Users/Luppy/.cargo/registry/src/github.com-1ecc6299db9ec823/cortex-m-0.6.0/src/itm.rs:15
  84:	2d01      	cmp	r5, #1
  86:	d1f3      	bne.n	70 <<cortex_m::itm::Port as core::fmt::Write>::write_str+0x70>
  88:	f854 5b04 	ldr.w	r5, [r4], #4
_ZN4core3num23_$LT$impl$u20$usize$GT$15overflowing_add17hde7e9fa4130a5804E():
/rustc/50a0defd5a93523067ef239936cc2e0755220904/src/libcore/num/mod.rs:3349
  8c:	3301      	adds	r3, #1
_ZN4core4iter5range101_$LT$impl$u20$core..iter..traits..iterator..Iterator$u20$for$u20$core..ops..range..Range$LT$A$GT$$GT$4next17h08524424f0191e33E():
/rustc/50a0defd5a93523067ef239936cc2e0755220904/src/libcore/iter/range.rs:171
  8e:	4573      	cmp	r3, lr
_ZN4core3ptr14write_volatile17h805cf84299217b43E():
/rustc/50a0defd5a93523067ef239936cc2e0755220904/src/libcore/ptr.rs:939
  90:	6005      	str	r5, [r0, #0]
  92:	d1ed      	bne.n	70 <<cortex_m::itm::Port as core::fmt::Write>::write_str+0x70>
_ZN8cortex_m3itm13write_aligned17h5db71ed7835f4618E():
/Users/Luppy/.cargo/registry/src/github.com-1ecc6299db9ec823/cortex-m-0.6.0/src/itm.rs:104
        let mut left = len & 0b11;
  94:	f002 0203 	and.w	r2, r2, #3
_ZN4core3ptr33_$LT$impl$u20$$BP$const$u20$T$GT$6offset17heeb408278a2315f2E():
/rustc/50a0defd5a93523067ef239936cc2e0755220904/src/libcore/ptr.rs:1077
  98:	4461      	add	r1, ip
_ZN8cortex_m3itm13write_aligned17h5db71ed7835f4618E():
/Users/Luppy/.cargo/registry/src/github.com-1ecc6299db9ec823/cortex-m-0.6.0/src/itm.rs:108
        if left > 1 {
  9a:	2a02      	cmp	r2, #2
  9c:	e8bd 40b0 	ldmia.w	sp!, {r4, r5, r7, lr}
  a0:	d30f      	bcc.n	c2 <<cortex_m::itm::Port as core::fmt::Write>::write_str+0xc2>
_ZN4core3ptr13read_volatile17h92e63e8c8f835ddbE():
/rustc/50a0defd5a93523067ef239936cc2e0755220904/src/libcore/ptr.rs:871
  a2:	6803      	ldr	r3, [r0, #0]
_ZN8cortex_m3itm13write_aligned17h5db71ed7835f4618E():
/Users/Luppy/.cargo/registry/src/github.com-1ecc6299db9ec823/cortex-m-0.6.0/src/itm.rs:109
            while !port.is_fifo_ready() {}
  a4:	2b01      	cmp	r3, #1
_ZN4core3ptr13read_volatile17h92e63e8c8f835ddbE():
/rustc/50a0defd5a93523067ef239936cc2e0755220904/src/libcore/ptr.rs:871
  a6:	bf1c      	itt	ne
  a8:	6803      	ldrne	r3, [r0, #0]
_ZN8cortex_m3itm13write_aligned17h5db71ed7835f4618E():
/Users/Luppy/.cargo/registry/src/github.com-1ecc6299db9ec823/cortex-m-0.6.0/src/itm.rs:109
  aa:	2b01      	cmpne	r3, #1
  ac:	d005      	beq.n	ba <<cortex_m::itm::Port as core::fmt::Write>::write_str+0xba>
_ZN4core3ptr13read_volatile17h92e63e8c8f835ddbE():
/rustc/50a0defd5a93523067ef239936cc2e0755220904/src/libcore/ptr.rs:871
  ae:	6803      	ldr	r3, [r0, #0]
_ZN8cortex_m3itm13write_aligned17h5db71ed7835f4618E():
/Users/Luppy/.cargo/registry/src/github.com-1ecc6299db9ec823/cortex-m-0.6.0/src/itm.rs:109
  b0:	2b01      	cmp	r3, #1
  b2:	d002      	beq.n	ba <<cortex_m::itm::Port as core::fmt::Write>::write_str+0xba>
_ZN4core3ptr13read_volatile17h92e63e8c8f835ddbE():
/rustc/50a0defd5a93523067ef239936cc2e0755220904/src/libcore/ptr.rs:871
  b4:	6803      	ldr	r3, [r0, #0]
_ZN8cortex_m3itm13write_aligned17h5db71ed7835f4618E():
/Users/Luppy/.cargo/registry/src/github.com-1ecc6299db9ec823/cortex-m-0.6.0/src/itm.rs:109
  b6:	2b01      	cmp	r3, #1
  b8:	d1f3      	bne.n	a2 <<cortex_m::itm::Port as core::fmt::Write>::write_str+0xa2>
  ba:	f831 3b02 	ldrh.w	r3, [r1], #2
/Users/Luppy/.cargo/registry/src/github.com-1ecc6299db9ec823/cortex-m-0.6.0/src/itm.rs:113
            left -= 2;
  be:	3a02      	subs	r2, #2
_ZN4core3ptr14write_volatile17h99cb0c34d2e4de8bE():
/rustc/50a0defd5a93523067ef239936cc2e0755220904/src/libcore/ptr.rs:939
  c0:	8003      	strh	r3, [r0, #0]
_ZN8cortex_m3itm13write_aligned17h5db71ed7835f4618E():
/Users/Luppy/.cargo/registry/src/github.com-1ecc6299db9ec823/cortex-m-0.6.0/src/itm.rs:117
        if left == 1 {
  c2:	2a01      	cmp	r2, #1
  c4:	d11c      	bne.n	100 <<cortex_m::itm::Port as core::fmt::Write>::write_str+0x100>
_ZN4core3ptr13read_volatile17h92e63e8c8f835ddbE():
/rustc/50a0defd5a93523067ef239936cc2e0755220904/src/libcore/ptr.rs:871
  c6:	6802      	ldr	r2, [r0, #0]
_ZN8cortex_m3itm13write_aligned17h5db71ed7835f4618E():
/Users/Luppy/.cargo/registry/src/github.com-1ecc6299db9ec823/cortex-m-0.6.0/src/itm.rs:118
            while !port.is_fifo_ready() {}
  c8:	2a01      	cmp	r2, #1
  ca:	d017      	beq.n	fc <<cortex_m::itm::Port as core::fmt::Write>::write_str+0xfc>
_ZN4core3ptr13read_volatile17h92e63e8c8f835ddbE():
/rustc/50a0defd5a93523067ef239936cc2e0755220904/src/libcore/ptr.rs:871
  cc:	6802      	ldr	r2, [r0, #0]
_ZN8cortex_m3itm13write_aligned17h5db71ed7835f4618E():
/Users/Luppy/.cargo/registry/src/github.com-1ecc6299db9ec823/cortex-m-0.6.0/src/itm.rs:118
  ce:	2a01      	cmp	r2, #1
_ZN4core3ptr13read_volatile17h92e63e8c8f835ddbE():
/rustc/50a0defd5a93523067ef239936cc2e0755220904/src/libcore/ptr.rs:871
  d0:	bf1c      	itt	ne
  d2:	6802      	ldrne	r2, [r0, #0]
_ZN8cortex_m3itm13write_aligned17h5db71ed7835f4618E():
/Users/Luppy/.cargo/registry/src/github.com-1ecc6299db9ec823/cortex-m-0.6.0/src/itm.rs:118
  d4:	2a01      	cmpne	r2, #1
  d6:	d011      	beq.n	fc <<cortex_m::itm::Port as core::fmt::Write>::write_str+0xfc>
_ZN4core3ptr13read_volatile17h92e63e8c8f835ddbE():
/rustc/50a0defd5a93523067ef239936cc2e0755220904/src/libcore/ptr.rs:871
  d8:	6802      	ldr	r2, [r0, #0]
_ZN8cortex_m3itm13write_aligned17h5db71ed7835f4618E():
/Users/Luppy/.cargo/registry/src/github.com-1ecc6299db9ec823/cortex-m-0.6.0/src/itm.rs:118
  da:	2a01      	cmp	r2, #1
  dc:	d1f3      	bne.n	c6 <<cortex_m::itm::Port as core::fmt::Write>::write_str+0xc6>
  de:	e00d      	b.n	fc <<cortex_m::itm::Port as core::fmt::Write>::write_str+0xfc>
_ZN8cortex_m3itm9write_all17h34ed86ddbf0ecd73E():
/Users/Luppy/.cargo/registry/src/github.com-1ecc6299db9ec823/cortex-m-0.6.0/src/itm.rs:61
                if len == 1 {
  e0:	2a01      	cmp	r2, #1
  e2:	d10d      	bne.n	100 <<cortex_m::itm::Port as core::fmt::Write>::write_str+0x100>
_ZN4core3ptr13read_volatile17h92e63e8c8f835ddbE():
/rustc/50a0defd5a93523067ef239936cc2e0755220904/src/libcore/ptr.rs:871
  e4:	6802      	ldr	r2, [r0, #0]
_ZN8cortex_m3itm9write_all17h34ed86ddbf0ecd73E():
/Users/Luppy/.cargo/registry/src/github.com-1ecc6299db9ec823/cortex-m-0.6.0/src/itm.rs:63
                    while !port.is_fifo_ready() {}
  e6:	2a01      	cmp	r2, #1
_ZN4core3ptr13read_volatile17h92e63e8c8f835ddbE():
/rustc/50a0defd5a93523067ef239936cc2e0755220904/src/libcore/ptr.rs:871
  e8:	bf1c      	itt	ne
  ea:	6802      	ldrne	r2, [r0, #0]
_ZN8cortex_m3itm9write_all17h34ed86ddbf0ecd73E():
/Users/Luppy/.cargo/registry/src/github.com-1ecc6299db9ec823/cortex-m-0.6.0/src/itm.rs:63
  ec:	2a01      	cmpne	r2, #1
  ee:	d005      	beq.n	fc <<cortex_m::itm::Port as core::fmt::Write>::write_str+0xfc>
_ZN4core3ptr13read_volatile17h92e63e8c8f835ddbE():
/rustc/50a0defd5a93523067ef239936cc2e0755220904/src/libcore/ptr.rs:871
  f0:	6802      	ldr	r2, [r0, #0]
_ZN8cortex_m3itm9write_all17h34ed86ddbf0ecd73E():
/Users/Luppy/.cargo/registry/src/github.com-1ecc6299db9ec823/cortex-m-0.6.0/src/itm.rs:63
  f2:	2a01      	cmp	r2, #1
  f4:	d002      	beq.n	fc <<cortex_m::itm::Port as core::fmt::Write>::write_str+0xfc>
_ZN4core3ptr13read_volatile17h92e63e8c8f835ddbE():
/rustc/50a0defd5a93523067ef239936cc2e0755220904/src/libcore/ptr.rs:871
  f6:	6802      	ldr	r2, [r0, #0]
_ZN8cortex_m3itm9write_all17h34ed86ddbf0ecd73E():
/Users/Luppy/.cargo/registry/src/github.com-1ecc6299db9ec823/cortex-m-0.6.0/src/itm.rs:63
  f8:	2a01      	cmp	r2, #1
  fa:	d1f3      	bne.n	e4 <<cortex_m::itm::Port as core::fmt::Write>::write_str+0xe4>
  fc:	7809      	ldrb	r1, [r1, #0]
  fe:	7001      	strb	r1, [r0, #0]
_ZN56_$LT$cortex_m..itm..Port$u20$as$u20$core..fmt..Write$GT$9write_str17h0b3c3d462ec4cc2cE():
/Users/Luppy/.cargo/registry/src/github.com-1ecc6299db9ec823/cortex-m-0.6.0/src/itm.rs:27
    }
 100:	2000      	movs	r0, #0
 102:	4770      	bx	lr

Disassembly of section .text._ZN8cortex_m3itm9write_all17h34ed86ddbf0ecd73E:

00000000 <cortex_m::itm::write_all>:
_ZN8cortex_m3itm9write_all17h34ed86ddbf0ecd73E():
/Users/Luppy/.cargo/registry/src/github.com-1ecc6299db9ec823/cortex-m-0.6.0/src/itm.rs:36
        if len == 0 {
   0:	2a00      	cmp	r2, #0
   2:	d07d      	beq.n	100 <cortex_m::itm::write_all+0x100>
/Users/Luppy/.cargo/registry/src/github.com-1ecc6299db9ec823/cortex-m-0.6.0/src/itm.rs:41
        if ptr as usize % 2 == 1 {
   4:	07cb      	lsls	r3, r1, #31
   6:	d00f      	beq.n	28 <cortex_m::itm::write_all+0x28>
_ZN4core3ptr13read_volatile17h92e63e8c8f835ddbE():
/rustc/50a0defd5a93523067ef239936cc2e0755220904/src/libcore/ptr.rs:871
   8:	6803      	ldr	r3, [r0, #0]
_ZN8cortex_m3itm9write_all17h34ed86ddbf0ecd73E():
/Users/Luppy/.cargo/registry/src/github.com-1ecc6299db9ec823/cortex-m-0.6.0/src/itm.rs:42
            while !port.is_fifo_ready() {}
   a:	2b01      	cmp	r3, #1
_ZN4core3ptr13read_volatile17h92e63e8c8f835ddbE():
/rustc/50a0defd5a93523067ef239936cc2e0755220904/src/libcore/ptr.rs:871
   c:	bf1c      	itt	ne
   e:	6803      	ldrne	r3, [r0, #0]
_ZN8cortex_m3itm9write_all17h34ed86ddbf0ecd73E():
/Users/Luppy/.cargo/registry/src/github.com-1ecc6299db9ec823/cortex-m-0.6.0/src/itm.rs:42
  10:	2b01      	cmpne	r3, #1
  12:	d005      	beq.n	20 <cortex_m::itm::write_all+0x20>
_ZN4core3ptr13read_volatile17h92e63e8c8f835ddbE():
/rustc/50a0defd5a93523067ef239936cc2e0755220904/src/libcore/ptr.rs:871
  14:	6803      	ldr	r3, [r0, #0]
_ZN8cortex_m3itm9write_all17h34ed86ddbf0ecd73E():
/Users/Luppy/.cargo/registry/src/github.com-1ecc6299db9ec823/cortex-m-0.6.0/src/itm.rs:42
  16:	2b01      	cmp	r3, #1
  18:	d002      	beq.n	20 <cortex_m::itm::write_all+0x20>
_ZN4core3ptr13read_volatile17h92e63e8c8f835ddbE():
/rustc/50a0defd5a93523067ef239936cc2e0755220904/src/libcore/ptr.rs:871
  1a:	6803      	ldr	r3, [r0, #0]
_ZN8cortex_m3itm9write_all17h34ed86ddbf0ecd73E():
/Users/Luppy/.cargo/registry/src/github.com-1ecc6299db9ec823/cortex-m-0.6.0/src/itm.rs:42
  1c:	2b01      	cmp	r3, #1
  1e:	d1f3      	bne.n	8 <cortex_m::itm::write_all+0x8>
/Users/Luppy/.cargo/registry/src/github.com-1ecc6299db9ec823/cortex-m-0.6.0/src/itm.rs:43
            port.write_u8(*ptr);
  20:	f811 3b01 	ldrb.w	r3, [r1], #1
/Users/Luppy/.cargo/registry/src/github.com-1ecc6299db9ec823/cortex-m-0.6.0/src/itm.rs:47
            len -= 1;
  24:	3a01      	subs	r2, #1
_ZN4core3ptr14write_volatile17hc39b2783c51eefd0E():
/rustc/50a0defd5a93523067ef239936cc2e0755220904/src/libcore/ptr.rs:939
  26:	7003      	strb	r3, [r0, #0]
_ZN8cortex_m3itm9write_all17h34ed86ddbf0ecd73E():
/Users/Luppy/.cargo/registry/src/github.com-1ecc6299db9ec823/cortex-m-0.6.0/src/itm.rs:51
        if ptr as usize % 4 == 2 {
  28:	f001 0303 	and.w	r3, r1, #3
  2c:	2b02      	cmp	r3, #2
  2e:	d111      	bne.n	54 <cortex_m::itm::write_all+0x54>
/Users/Luppy/.cargo/registry/src/github.com-1ecc6299db9ec823/cortex-m-0.6.0/src/itm.rs:52
            if len > 1 {
  30:	2a02      	cmp	r2, #2
  32:	d355      	bcc.n	e0 <cortex_m::itm::write_all+0xe0>
_ZN4core3ptr13read_volatile17h92e63e8c8f835ddbE():
/rustc/50a0defd5a93523067ef239936cc2e0755220904/src/libcore/ptr.rs:871
  34:	6803      	ldr	r3, [r0, #0]
_ZN8cortex_m3itm9write_all17h34ed86ddbf0ecd73E():
/Users/Luppy/.cargo/registry/src/github.com-1ecc6299db9ec823/cortex-m-0.6.0/src/itm.rs:54
                while !port.is_fifo_ready() {}
  36:	2b01      	cmp	r3, #1
_ZN4core3ptr13read_volatile17h92e63e8c8f835ddbE():
/rustc/50a0defd5a93523067ef239936cc2e0755220904/src/libcore/ptr.rs:871
  38:	bf1c      	itt	ne
  3a:	6803      	ldrne	r3, [r0, #0]
_ZN8cortex_m3itm9write_all17h34ed86ddbf0ecd73E():
/Users/Luppy/.cargo/registry/src/github.com-1ecc6299db9ec823/cortex-m-0.6.0/src/itm.rs:54
  3c:	2b01      	cmpne	r3, #1
  3e:	d005      	beq.n	4c <cortex_m::itm::write_all+0x4c>
_ZN4core3ptr13read_volatile17h92e63e8c8f835ddbE():
/rustc/50a0defd5a93523067ef239936cc2e0755220904/src/libcore/ptr.rs:871
  40:	6803      	ldr	r3, [r0, #0]
_ZN8cortex_m3itm9write_all17h34ed86ddbf0ecd73E():
/Users/Luppy/.cargo/registry/src/github.com-1ecc6299db9ec823/cortex-m-0.6.0/src/itm.rs:54
  42:	2b01      	cmp	r3, #1
  44:	d002      	beq.n	4c <cortex_m::itm::write_all+0x4c>
_ZN4core3ptr13read_volatile17h92e63e8c8f835ddbE():
/rustc/50a0defd5a93523067ef239936cc2e0755220904/src/libcore/ptr.rs:871
  46:	6803      	ldr	r3, [r0, #0]
_ZN8cortex_m3itm9write_all17h34ed86ddbf0ecd73E():
/Users/Luppy/.cargo/registry/src/github.com-1ecc6299db9ec823/cortex-m-0.6.0/src/itm.rs:54
  48:	2b01      	cmp	r3, #1
  4a:	d1f3      	bne.n	34 <cortex_m::itm::write_all+0x34>
  4c:	f831 3b02 	ldrh.w	r3, [r1], #2
/Users/Luppy/.cargo/registry/src/github.com-1ecc6299db9ec823/cortex-m-0.6.0/src/itm.rs:59
                len -= 2;
  50:	3a02      	subs	r2, #2
_ZN4core3ptr14write_volatile17h99cb0c34d2e4de8bE():
/rustc/50a0defd5a93523067ef239936cc2e0755220904/src/libcore/ptr.rs:939
  52:	8003      	strh	r3, [r0, #0]
_ZN8cortex_m3itm13write_aligned17h5db71ed7835f4618E():
/Users/Luppy/.cargo/registry/src/github.com-1ecc6299db9ec823/cortex-m-0.6.0/src/itm.rs:93
        if len == 0 {
  54:	2a00      	cmp	r2, #0
  56:	d053      	beq.n	100 <cortex_m::itm::write_all+0x100>
  58:	b5b0      	push	{r4, r5, r7, lr}
/Users/Luppy/.cargo/registry/src/github.com-1ecc6299db9ec823/cortex-m-0.6.0/src/itm.rs:97
        let split = len & !0b11;
  5a:	f022 0c03 	bic.w	ip, r2, #3
  5e:	2300      	movs	r3, #0
_ZN4core4iter5range101_$LT$impl$u20$core..iter..traits..iterator..Iterator$u20$for$u20$core..ops..range..Range$LT$A$GT$$GT$4next17h08524424f0191e33E():
/rustc/50a0defd5a93523067ef239936cc2e0755220904/src/libcore/iter/range.rs:171
  60:	ebb3 0f92 	cmp.w	r3, r2, lsr #2
  64:	d015      	beq.n	92 <cortex_m::itm::write_all+0x92>
_ZN8cortex_m3itm11write_words17hea111f1efa6fb541E():
  66:	ea4f 0e92 	mov.w	lr, r2, lsr #2
  6a:	2300      	movs	r3, #0
  6c:	460c      	mov	r4, r1
_ZN4core3ptr13read_volatile17h92e63e8c8f835ddbE():
/rustc/50a0defd5a93523067ef239936cc2e0755220904/src/libcore/ptr.rs:871
  6e:	6805      	ldr	r5, [r0, #0]
_ZN8cortex_m3itm11write_words17hea111f1efa6fb541E():
/Users/Luppy/.cargo/registry/src/github.com-1ecc6299db9ec823/cortex-m-0.6.0/src/itm.rs:15
        while !stim.is_fifo_ready() {}
  70:	2d01      	cmp	r5, #1
_ZN4core3ptr13read_volatile17h92e63e8c8f835ddbE():
/rustc/50a0defd5a93523067ef239936cc2e0755220904/src/libcore/ptr.rs:871
  72:	bf1c      	itt	ne
  74:	6805      	ldrne	r5, [r0, #0]
_ZN8cortex_m3itm11write_words17hea111f1efa6fb541E():
/Users/Luppy/.cargo/registry/src/github.com-1ecc6299db9ec823/cortex-m-0.6.0/src/itm.rs:15
  76:	2d01      	cmpne	r5, #1
  78:	d005      	beq.n	86 <cortex_m::itm::write_all+0x86>
_ZN4core3ptr13read_volatile17h92e63e8c8f835ddbE():
/rustc/50a0defd5a93523067ef239936cc2e0755220904/src/libcore/ptr.rs:871
  7a:	6805      	ldr	r5, [r0, #0]
_ZN8cortex_m3itm11write_words17hea111f1efa6fb541E():
/Users/Luppy/.cargo/registry/src/github.com-1ecc6299db9ec823/cortex-m-0.6.0/src/itm.rs:15
  7c:	2d01      	cmp	r5, #1
  7e:	d002      	beq.n	86 <cortex_m::itm::write_all+0x86>
_ZN4core3ptr13read_volatile17h92e63e8c8f835ddbE():
/rustc/50a0defd5a93523067ef239936cc2e0755220904/src/libcore/ptr.rs:871
  80:	6805      	ldr	r5, [r0, #0]
_ZN8cortex_m3itm11write_words17hea111f1efa6fb541E():
/Users/Luppy/.cargo/registry/src/github.com-1ecc6299db9ec823/cortex-m-0.6.0/src/itm.rs:15
  82:	2d01      	cmp	r5, #1
  84:	d1f3      	bne.n	6e <cortex_m::itm::write_all+0x6e>
  86:	f854 5b04 	ldr.w	r5, [r4], #4
_ZN4core3num23_$LT$impl$u20$usize$GT$15overflowing_add17hde7e9fa4130a5804E():
/rustc/50a0defd5a93523067ef239936cc2e0755220904/src/libcore/num/mod.rs:3349
  8a:	3301      	adds	r3, #1
_ZN4core4iter5range101_$LT$impl$u20$core..iter..traits..iterator..Iterator$u20$for$u20$core..ops..range..Range$LT$A$GT$$GT$4next17h08524424f0191e33E():
/rustc/50a0defd5a93523067ef239936cc2e0755220904/src/libcore/iter/range.rs:171
  8c:	4573      	cmp	r3, lr
_ZN4core3ptr14write_volatile17h805cf84299217b43E():
/rustc/50a0defd5a93523067ef239936cc2e0755220904/src/libcore/ptr.rs:939
  8e:	6005      	str	r5, [r0, #0]
  90:	d1ed      	bne.n	6e <cortex_m::itm::write_all+0x6e>
_ZN8cortex_m3itm13write_aligned17h5db71ed7835f4618E():
/Users/Luppy/.cargo/registry/src/github.com-1ecc6299db9ec823/cortex-m-0.6.0/src/itm.rs:104
        let mut left = len & 0b11;
  92:	f002 0203 	and.w	r2, r2, #3
_ZN4core3ptr33_$LT$impl$u20$$BP$const$u20$T$GT$6offset17heeb408278a2315f2E():
/rustc/50a0defd5a93523067ef239936cc2e0755220904/src/libcore/ptr.rs:1077
  96:	4461      	add	r1, ip
_ZN8cortex_m3itm13write_aligned17h5db71ed7835f4618E():
/Users/Luppy/.cargo/registry/src/github.com-1ecc6299db9ec823/cortex-m-0.6.0/src/itm.rs:108
        if left > 1 {
  98:	2a02      	cmp	r2, #2
  9a:	e8bd 40b0 	ldmia.w	sp!, {r4, r5, r7, lr}
  9e:	d30f      	bcc.n	c0 <cortex_m::itm::write_all+0xc0>
_ZN4core3ptr13read_volatile17h92e63e8c8f835ddbE():
/rustc/50a0defd5a93523067ef239936cc2e0755220904/src/libcore/ptr.rs:871
  a0:	6803      	ldr	r3, [r0, #0]
_ZN8cortex_m3itm13write_aligned17h5db71ed7835f4618E():
/Users/Luppy/.cargo/registry/src/github.com-1ecc6299db9ec823/cortex-m-0.6.0/src/itm.rs:109
            while !port.is_fifo_ready() {}
  a2:	2b01      	cmp	r3, #1
_ZN4core3ptr13read_volatile17h92e63e8c8f835ddbE():
/rustc/50a0defd5a93523067ef239936cc2e0755220904/src/libcore/ptr.rs:871
  a4:	bf1c      	itt	ne
  a6:	6803      	ldrne	r3, [r0, #0]
_ZN8cortex_m3itm13write_aligned17h5db71ed7835f4618E():
/Users/Luppy/.cargo/registry/src/github.com-1ecc6299db9ec823/cortex-m-0.6.0/src/itm.rs:109
  a8:	2b01      	cmpne	r3, #1
  aa:	d005      	beq.n	b8 <cortex_m::itm::write_all+0xb8>
_ZN4core3ptr13read_volatile17h92e63e8c8f835ddbE():
/rustc/50a0defd5a93523067ef239936cc2e0755220904/src/libcore/ptr.rs:871
  ac:	6803      	ldr	r3, [r0, #0]
_ZN8cortex_m3itm13write_aligned17h5db71ed7835f4618E():
/Users/Luppy/.cargo/registry/src/github.com-1ecc6299db9ec823/cortex-m-0.6.0/src/itm.rs:109
  ae:	2b01      	cmp	r3, #1
  b0:	d002      	beq.n	b8 <cortex_m::itm::write_all+0xb8>
_ZN4core3ptr13read_volatile17h92e63e8c8f835ddbE():
/rustc/50a0defd5a93523067ef239936cc2e0755220904/src/libcore/ptr.rs:871
  b2:	6803      	ldr	r3, [r0, #0]
_ZN8cortex_m3itm13write_aligned17h5db71ed7835f4618E():
/Users/Luppy/.cargo/registry/src/github.com-1ecc6299db9ec823/cortex-m-0.6.0/src/itm.rs:109
  b4:	2b01      	cmp	r3, #1
  b6:	d1f3      	bne.n	a0 <cortex_m::itm::write_all+0xa0>
  b8:	f831 3b02 	ldrh.w	r3, [r1], #2
/Users/Luppy/.cargo/registry/src/github.com-1ecc6299db9ec823/cortex-m-0.6.0/src/itm.rs:113
            left -= 2;
  bc:	3a02      	subs	r2, #2
_ZN4core3ptr14write_volatile17h99cb0c34d2e4de8bE():
/rustc/50a0defd5a93523067ef239936cc2e0755220904/src/libcore/ptr.rs:939
  be:	8003      	strh	r3, [r0, #0]
_ZN8cortex_m3itm13write_aligned17h5db71ed7835f4618E():
/Users/Luppy/.cargo/registry/src/github.com-1ecc6299db9ec823/cortex-m-0.6.0/src/itm.rs:117
        if left == 1 {
  c0:	2a01      	cmp	r2, #1
_ZN8cortex_m3itm9write_all17h34ed86ddbf0ecd73E():
/Users/Luppy/.cargo/registry/src/github.com-1ecc6299db9ec823/cortex-m-0.6.0/src/itm.rs:73
}
  c2:	bf18      	it	ne
  c4:	4770      	bxne	lr
_ZN4core3ptr13read_volatile17h92e63e8c8f835ddbE():
/rustc/50a0defd5a93523067ef239936cc2e0755220904/src/libcore/ptr.rs:871
  c6:	6802      	ldr	r2, [r0, #0]
_ZN8cortex_m3itm13write_aligned17h5db71ed7835f4618E():
/Users/Luppy/.cargo/registry/src/github.com-1ecc6299db9ec823/cortex-m-0.6.0/src/itm.rs:118
            while !port.is_fifo_ready() {}
  c8:	2a01      	cmp	r2, #1
  ca:	d017      	beq.n	fc <cortex_m::itm::write_all+0xfc>
_ZN4core3ptr13read_volatile17h92e63e8c8f835ddbE():
/rustc/50a0defd5a93523067ef239936cc2e0755220904/src/libcore/ptr.rs:871
  cc:	6802      	ldr	r2, [r0, #0]
_ZN8cortex_m3itm13write_aligned17h5db71ed7835f4618E():
/Users/Luppy/.cargo/registry/src/github.com-1ecc6299db9ec823/cortex-m-0.6.0/src/itm.rs:118
  ce:	2a01      	cmp	r2, #1
_ZN4core3ptr13read_volatile17h92e63e8c8f835ddbE():
/rustc/50a0defd5a93523067ef239936cc2e0755220904/src/libcore/ptr.rs:871
  d0:	bf1c      	itt	ne
  d2:	6802      	ldrne	r2, [r0, #0]
_ZN8cortex_m3itm13write_aligned17h5db71ed7835f4618E():
/Users/Luppy/.cargo/registry/src/github.com-1ecc6299db9ec823/cortex-m-0.6.0/src/itm.rs:118
  d4:	2a01      	cmpne	r2, #1
  d6:	d011      	beq.n	fc <cortex_m::itm::write_all+0xfc>
_ZN4core3ptr13read_volatile17h92e63e8c8f835ddbE():
/rustc/50a0defd5a93523067ef239936cc2e0755220904/src/libcore/ptr.rs:871
  d8:	6802      	ldr	r2, [r0, #0]
_ZN8cortex_m3itm13write_aligned17h5db71ed7835f4618E():
/Users/Luppy/.cargo/registry/src/github.com-1ecc6299db9ec823/cortex-m-0.6.0/src/itm.rs:118
  da:	2a01      	cmp	r2, #1
  dc:	d1f3      	bne.n	c6 <cortex_m::itm::write_all+0xc6>
  de:	e00d      	b.n	fc <cortex_m::itm::write_all+0xfc>
_ZN8cortex_m3itm9write_all17h34ed86ddbf0ecd73E():
/Users/Luppy/.cargo/registry/src/github.com-1ecc6299db9ec823/cortex-m-0.6.0/src/itm.rs:61
                if len == 1 {
  e0:	2a01      	cmp	r2, #1
  e2:	d10d      	bne.n	100 <cortex_m::itm::write_all+0x100>
_ZN4core3ptr13read_volatile17h92e63e8c8f835ddbE():
/rustc/50a0defd5a93523067ef239936cc2e0755220904/src/libcore/ptr.rs:871
  e4:	6802      	ldr	r2, [r0, #0]
_ZN8cortex_m3itm9write_all17h34ed86ddbf0ecd73E():
/Users/Luppy/.cargo/registry/src/github.com-1ecc6299db9ec823/cortex-m-0.6.0/src/itm.rs:63
                    while !port.is_fifo_ready() {}
  e6:	2a01      	cmp	r2, #1
_ZN4core3ptr13read_volatile17h92e63e8c8f835ddbE():
/rustc/50a0defd5a93523067ef239936cc2e0755220904/src/libcore/ptr.rs:871
  e8:	bf1c      	itt	ne
  ea:	6802      	ldrne	r2, [r0, #0]
_ZN8cortex_m3itm9write_all17h34ed86ddbf0ecd73E():
/Users/Luppy/.cargo/registry/src/github.com-1ecc6299db9ec823/cortex-m-0.6.0/src/itm.rs:63
  ec:	2a01      	cmpne	r2, #1
  ee:	d005      	beq.n	fc <cortex_m::itm::write_all+0xfc>
_ZN4core3ptr13read_volatile17h92e63e8c8f835ddbE():
/rustc/50a0defd5a93523067ef239936cc2e0755220904/src/libcore/ptr.rs:871
  f0:	6802      	ldr	r2, [r0, #0]
_ZN8cortex_m3itm9write_all17h34ed86ddbf0ecd73E():
/Users/Luppy/.cargo/registry/src/github.com-1ecc6299db9ec823/cortex-m-0.6.0/src/itm.rs:63
  f2:	2a01      	cmp	r2, #1
  f4:	d002      	beq.n	fc <cortex_m::itm::write_all+0xfc>
_ZN4core3ptr13read_volatile17h92e63e8c8f835ddbE():
/rustc/50a0defd5a93523067ef239936cc2e0755220904/src/libcore/ptr.rs:871
  f6:	6802      	ldr	r2, [r0, #0]
_ZN8cortex_m3itm9write_all17h34ed86ddbf0ecd73E():
/Users/Luppy/.cargo/registry/src/github.com-1ecc6299db9ec823/cortex-m-0.6.0/src/itm.rs:63
  f8:	2a01      	cmp	r2, #1
  fa:	d1f3      	bne.n	e4 <cortex_m::itm::write_all+0xe4>
  fc:	7809      	ldrb	r1, [r1, #0]
  fe:	7001      	strb	r1, [r0, #0]
/Users/Luppy/.cargo/registry/src/github.com-1ecc6299db9ec823/cortex-m-0.6.0/src/itm.rs:73
}
 100:	4770      	bx	lr

Disassembly of section .text._ZN8cortex_m3itm13write_aligned17h5db71ed7835f4618E:

00000000 <cortex_m::itm::write_aligned>:
_ZN8cortex_m3itm13write_aligned17h5db71ed7835f4618E():
/Users/Luppy/.cargo/registry/src/github.com-1ecc6299db9ec823/cortex-m-0.6.0/src/itm.rs:93
        if len == 0 {
   0:	2a00      	cmp	r2, #0
/Users/Luppy/.cargo/registry/src/github.com-1ecc6299db9ec823/cortex-m-0.6.0/src/itm.rs:122
            port.write_u8(*ptr);
        }
    }
}
   2:	bf08      	it	eq
   4:	4770      	bxeq	lr
   6:	b5b0      	push	{r4, r5, r7, lr}
/Users/Luppy/.cargo/registry/src/github.com-1ecc6299db9ec823/cortex-m-0.6.0/src/itm.rs:97
        let split = len & !0b11;
   8:	f022 0c03 	bic.w	ip, r2, #3
   c:	2300      	movs	r3, #0
_ZN4core4iter5range101_$LT$impl$u20$core..iter..traits..iterator..Iterator$u20$for$u20$core..ops..range..Range$LT$A$GT$$GT$4next17h08524424f0191e33E():
/rustc/50a0defd5a93523067ef239936cc2e0755220904/src/libcore/iter/range.rs:171
   e:	ebb3 0f92 	cmp.w	r3, r2, lsr #2
  12:	d015      	beq.n	40 <cortex_m::itm::write_aligned+0x40>
_ZN8cortex_m3itm11write_words17hea111f1efa6fb541E():
  14:	ea4f 0e92 	mov.w	lr, r2, lsr #2
  18:	2300      	movs	r3, #0
  1a:	460c      	mov	r4, r1
_ZN4core3ptr13read_volatile17h92e63e8c8f835ddbE():
/rustc/50a0defd5a93523067ef239936cc2e0755220904/src/libcore/ptr.rs:871
  1c:	6805      	ldr	r5, [r0, #0]
_ZN8cortex_m3itm11write_words17hea111f1efa6fb541E():
/Users/Luppy/.cargo/registry/src/github.com-1ecc6299db9ec823/cortex-m-0.6.0/src/itm.rs:15
        while !stim.is_fifo_ready() {}
  1e:	2d01      	cmp	r5, #1
_ZN4core3ptr13read_volatile17h92e63e8c8f835ddbE():
/rustc/50a0defd5a93523067ef239936cc2e0755220904/src/libcore/ptr.rs:871
  20:	bf1c      	itt	ne
  22:	6805      	ldrne	r5, [r0, #0]
_ZN8cortex_m3itm11write_words17hea111f1efa6fb541E():
/Users/Luppy/.cargo/registry/src/github.com-1ecc6299db9ec823/cortex-m-0.6.0/src/itm.rs:15
  24:	2d01      	cmpne	r5, #1
  26:	d005      	beq.n	34 <cortex_m::itm::write_aligned+0x34>
_ZN4core3ptr13read_volatile17h92e63e8c8f835ddbE():
/rustc/50a0defd5a93523067ef239936cc2e0755220904/src/libcore/ptr.rs:871
  28:	6805      	ldr	r5, [r0, #0]
_ZN8cortex_m3itm11write_words17hea111f1efa6fb541E():
/Users/Luppy/.cargo/registry/src/github.com-1ecc6299db9ec823/cortex-m-0.6.0/src/itm.rs:15
  2a:	2d01      	cmp	r5, #1
  2c:	d002      	beq.n	34 <cortex_m::itm::write_aligned+0x34>
_ZN4core3ptr13read_volatile17h92e63e8c8f835ddbE():
/rustc/50a0defd5a93523067ef239936cc2e0755220904/src/libcore/ptr.rs:871
  2e:	6805      	ldr	r5, [r0, #0]
_ZN8cortex_m3itm11write_words17hea111f1efa6fb541E():
/Users/Luppy/.cargo/registry/src/github.com-1ecc6299db9ec823/cortex-m-0.6.0/src/itm.rs:15
  30:	2d01      	cmp	r5, #1
  32:	d1f3      	bne.n	1c <cortex_m::itm::write_aligned+0x1c>
  34:	f854 5b04 	ldr.w	r5, [r4], #4
_ZN4core3num23_$LT$impl$u20$usize$GT$15overflowing_add17hde7e9fa4130a5804E():
/rustc/50a0defd5a93523067ef239936cc2e0755220904/src/libcore/num/mod.rs:3349
  38:	3301      	adds	r3, #1
_ZN4core4iter5range101_$LT$impl$u20$core..iter..traits..iterator..Iterator$u20$for$u20$core..ops..range..Range$LT$A$GT$$GT$4next17h08524424f0191e33E():
/rustc/50a0defd5a93523067ef239936cc2e0755220904/src/libcore/iter/range.rs:171
  3a:	4573      	cmp	r3, lr
_ZN4core3ptr14write_volatile17h805cf84299217b43E():
/rustc/50a0defd5a93523067ef239936cc2e0755220904/src/libcore/ptr.rs:939
  3c:	6005      	str	r5, [r0, #0]
_ZN4core4iter5range101_$LT$impl$u20$core..iter..traits..iterator..Iterator$u20$for$u20$core..ops..range..Range$LT$A$GT$$GT$4next17h08524424f0191e33E():
/rustc/50a0defd5a93523067ef239936cc2e0755220904/src/libcore/iter/range.rs:171
  3e:	d1ed      	bne.n	1c <cortex_m::itm::write_aligned+0x1c>
_ZN8cortex_m3itm13write_aligned17h5db71ed7835f4618E():
/Users/Luppy/.cargo/registry/src/github.com-1ecc6299db9ec823/cortex-m-0.6.0/src/itm.rs:104
        let mut left = len & 0b11;
  40:	f002 0203 	and.w	r2, r2, #3
_ZN4core3ptr33_$LT$impl$u20$$BP$const$u20$T$GT$6offset17heeb408278a2315f2E():
/rustc/50a0defd5a93523067ef239936cc2e0755220904/src/libcore/ptr.rs:1077
  44:	4461      	add	r1, ip
_ZN8cortex_m3itm13write_aligned17h5db71ed7835f4618E():
/Users/Luppy/.cargo/registry/src/github.com-1ecc6299db9ec823/cortex-m-0.6.0/src/itm.rs:108
        if left > 1 {
  46:	2a02      	cmp	r2, #2
  48:	e8bd 40b0 	ldmia.w	sp!, {r4, r5, r7, lr}
  4c:	d202      	bcs.n	54 <cortex_m::itm::write_aligned+0x54>
/Users/Luppy/.cargo/registry/src/github.com-1ecc6299db9ec823/cortex-m-0.6.0/src/itm.rs:117
        if left == 1 {
  4e:	2a01      	cmp	r2, #1
  50:	d012      	beq.n	78 <cortex_m::itm::write_aligned+0x78>
/Users/Luppy/.cargo/registry/src/github.com-1ecc6299db9ec823/cortex-m-0.6.0/src/itm.rs:122
}
  52:	4770      	bx	lr
_ZN4core3ptr13read_volatile17h92e63e8c8f835ddbE():
/rustc/50a0defd5a93523067ef239936cc2e0755220904/src/libcore/ptr.rs:871
  54:	6803      	ldr	r3, [r0, #0]
_ZN8cortex_m3itm13write_aligned17h5db71ed7835f4618E():
/Users/Luppy/.cargo/registry/src/github.com-1ecc6299db9ec823/cortex-m-0.6.0/src/itm.rs:109
            while !port.is_fifo_ready() {}
  56:	2b01      	cmp	r3, #1
_ZN4core3ptr13read_volatile17h92e63e8c8f835ddbE():
/rustc/50a0defd5a93523067ef239936cc2e0755220904/src/libcore/ptr.rs:871
  58:	bf1c      	itt	ne
  5a:	6803      	ldrne	r3, [r0, #0]
_ZN8cortex_m3itm13write_aligned17h5db71ed7835f4618E():
/Users/Luppy/.cargo/registry/src/github.com-1ecc6299db9ec823/cortex-m-0.6.0/src/itm.rs:109
  5c:	2b01      	cmpne	r3, #1
  5e:	d005      	beq.n	6c <cortex_m::itm::write_aligned+0x6c>
_ZN4core3ptr13read_volatile17h92e63e8c8f835ddbE():
/rustc/50a0defd5a93523067ef239936cc2e0755220904/src/libcore/ptr.rs:871
  60:	6803      	ldr	r3, [r0, #0]
_ZN8cortex_m3itm13write_aligned17h5db71ed7835f4618E():
/Users/Luppy/.cargo/registry/src/github.com-1ecc6299db9ec823/cortex-m-0.6.0/src/itm.rs:109
  62:	2b01      	cmp	r3, #1
  64:	d002      	beq.n	6c <cortex_m::itm::write_aligned+0x6c>
_ZN4core3ptr13read_volatile17h92e63e8c8f835ddbE():
/rustc/50a0defd5a93523067ef239936cc2e0755220904/src/libcore/ptr.rs:871
  66:	6803      	ldr	r3, [r0, #0]
_ZN8cortex_m3itm13write_aligned17h5db71ed7835f4618E():
/Users/Luppy/.cargo/registry/src/github.com-1ecc6299db9ec823/cortex-m-0.6.0/src/itm.rs:109
  68:	2b01      	cmp	r3, #1
  6a:	d1f3      	bne.n	54 <cortex_m::itm::write_aligned+0x54>
  6c:	f831 3b02 	ldrh.w	r3, [r1], #2
/Users/Luppy/.cargo/registry/src/github.com-1ecc6299db9ec823/cortex-m-0.6.0/src/itm.rs:113
            left -= 2;
  70:	3a02      	subs	r2, #2
_ZN4core3ptr14write_volatile17h99cb0c34d2e4de8bE():
/rustc/50a0defd5a93523067ef239936cc2e0755220904/src/libcore/ptr.rs:939
  72:	8003      	strh	r3, [r0, #0]
_ZN8cortex_m3itm13write_aligned17h5db71ed7835f4618E():
/Users/Luppy/.cargo/registry/src/github.com-1ecc6299db9ec823/cortex-m-0.6.0/src/itm.rs:117
        if left == 1 {
  74:	2a01      	cmp	r2, #1
  76:	d1ec      	bne.n	52 <cortex_m::itm::write_aligned+0x52>
_ZN4core3ptr13read_volatile17h92e63e8c8f835ddbE():
/rustc/50a0defd5a93523067ef239936cc2e0755220904/src/libcore/ptr.rs:871
  78:	6802      	ldr	r2, [r0, #0]
_ZN8cortex_m3itm13write_aligned17h5db71ed7835f4618E():
/Users/Luppy/.cargo/registry/src/github.com-1ecc6299db9ec823/cortex-m-0.6.0/src/itm.rs:118
            while !port.is_fifo_ready() {}
  7a:	2a01      	cmp	r2, #1
_ZN4core3ptr13read_volatile17h92e63e8c8f835ddbE():
/rustc/50a0defd5a93523067ef239936cc2e0755220904/src/libcore/ptr.rs:871
  7c:	bf1c      	itt	ne
  7e:	6802      	ldrne	r2, [r0, #0]
_ZN8cortex_m3itm13write_aligned17h5db71ed7835f4618E():
/Users/Luppy/.cargo/registry/src/github.com-1ecc6299db9ec823/cortex-m-0.6.0/src/itm.rs:118
  80:	2a01      	cmpne	r2, #1
  82:	d005      	beq.n	90 <cortex_m::itm::write_aligned+0x90>
_ZN4core3ptr13read_volatile17h92e63e8c8f835ddbE():
/rustc/50a0defd5a93523067ef239936cc2e0755220904/src/libcore/ptr.rs:871
  84:	6802      	ldr	r2, [r0, #0]
_ZN8cortex_m3itm13write_aligned17h5db71ed7835f4618E():
/Users/Luppy/.cargo/registry/src/github.com-1ecc6299db9ec823/cortex-m-0.6.0/src/itm.rs:118
  86:	2a01      	cmp	r2, #1
  88:	d002      	beq.n	90 <cortex_m::itm::write_aligned+0x90>
_ZN4core3ptr13read_volatile17h92e63e8c8f835ddbE():
/rustc/50a0defd5a93523067ef239936cc2e0755220904/src/libcore/ptr.rs:871
  8a:	6802      	ldr	r2, [r0, #0]
_ZN8cortex_m3itm13write_aligned17h5db71ed7835f4618E():
/Users/Luppy/.cargo/registry/src/github.com-1ecc6299db9ec823/cortex-m-0.6.0/src/itm.rs:118
  8c:	2a01      	cmp	r2, #1
  8e:	d1f3      	bne.n	78 <cortex_m::itm::write_aligned+0x78>
/Users/Luppy/.cargo/registry/src/github.com-1ecc6299db9ec823/cortex-m-0.6.0/src/itm.rs:119
            port.write_u8(*ptr);
  90:	7809      	ldrb	r1, [r1, #0]
_ZN4core3ptr14write_volatile17hc39b2783c51eefd0E():
/rustc/50a0defd5a93523067ef239936cc2e0755220904/src/libcore/ptr.rs:939
  92:	7001      	strb	r1, [r0, #0]
_ZN8cortex_m3itm13write_aligned17h5db71ed7835f4618E():
/Users/Luppy/.cargo/registry/src/github.com-1ecc6299db9ec823/cortex-m-0.6.0/src/itm.rs:122
}
  94:	4770      	bx	lr

Disassembly of section .text._ZN8cortex_m3itm9write_fmt17h4a4fd729f2c66829E:

00000000 <cortex_m::itm::write_fmt>:
_ZN8cortex_m3itm9write_fmt17h4a4fd729f2c66829E():
/Users/Luppy/.cargo/registry/src/github.com-1ecc6299db9ec823/cortex-m-0.6.0/src/itm.rs:125

/// Writes `fmt::Arguments` to the ITM `port`
pub fn write_fmt(port: &mut Stim, args: fmt::Arguments) {
   0:	b570      	push	{r4, r5, r6, lr}
   2:	b088      	sub	sp, #32
/Users/Luppy/.cargo/registry/src/github.com-1ecc6299db9ec823/cortex-m-0.6.0/src/itm.rs:128
    use core::fmt::Write;

    Port(port).write_fmt(args).ok();
   4:	9000      	str	r0, [sp, #0]
   6:	4668      	mov	r0, sp
   8:	9001      	str	r0, [sp, #4]
   a:	aa02      	add	r2, sp, #8
_ZN4core3fmt5Write9write_fmt17h530049205d81a56bE():
/rustc/50a0defd5a93523067ef239936cc2e0755220904/src/libcore/fmt/mod.rs:195
   c:	e891 5078 	ldmia.w	r1, {r3, r4, r5, r6, ip, lr}
  10:	f240 0100 	movw	r1, #0
  14:	4610      	mov	r0, r2
  16:	f2c0 0100 	movt	r1, #0
  1a:	e880 5078 	stmia.w	r0, {r3, r4, r5, r6, ip, lr}
  1e:	a801      	add	r0, sp, #4
  20:	f7ff fffe 	bl	0 <core::fmt::write>
_ZN8cortex_m3itm9write_fmt17h4a4fd729f2c66829E():
/Users/Luppy/.cargo/registry/src/github.com-1ecc6299db9ec823/cortex-m-0.6.0/src/itm.rs:129
}
  24:	b008      	add	sp, #32
  26:	bd70      	pop	{r4, r5, r6, pc}

Disassembly of section .text._ZN8cortex_m3itm9write_str17h8d8e10b4c67e43c3E:

00000000 <cortex_m::itm::write_str>:
_ZN8cortex_m3itm9write_all17h34ed86ddbf0ecd73E():
/Users/Luppy/.cargo/registry/src/github.com-1ecc6299db9ec823/cortex-m-0.6.0/src/itm.rs:36
        if len == 0 {
   0:	2a00      	cmp	r2, #0
   2:	d07d      	beq.n	100 <cortex_m::itm::write_str+0x100>
/Users/Luppy/.cargo/registry/src/github.com-1ecc6299db9ec823/cortex-m-0.6.0/src/itm.rs:41
        if ptr as usize % 2 == 1 {
   4:	07cb      	lsls	r3, r1, #31
   6:	d00f      	beq.n	28 <cortex_m::itm::write_str+0x28>
_ZN4core3ptr13read_volatile17h92e63e8c8f835ddbE():
/rustc/50a0defd5a93523067ef239936cc2e0755220904/src/libcore/ptr.rs:871
   8:	6803      	ldr	r3, [r0, #0]
_ZN8cortex_m3itm9write_all17h34ed86ddbf0ecd73E():
/Users/Luppy/.cargo/registry/src/github.com-1ecc6299db9ec823/cortex-m-0.6.0/src/itm.rs:42
            while !port.is_fifo_ready() {}
   a:	2b01      	cmp	r3, #1
_ZN4core3ptr13read_volatile17h92e63e8c8f835ddbE():
/rustc/50a0defd5a93523067ef239936cc2e0755220904/src/libcore/ptr.rs:871
   c:	bf1c      	itt	ne
   e:	6803      	ldrne	r3, [r0, #0]
_ZN8cortex_m3itm9write_all17h34ed86ddbf0ecd73E():
/Users/Luppy/.cargo/registry/src/github.com-1ecc6299db9ec823/cortex-m-0.6.0/src/itm.rs:42
  10:	2b01      	cmpne	r3, #1
  12:	d005      	beq.n	20 <cortex_m::itm::write_str+0x20>
_ZN4core3ptr13read_volatile17h92e63e8c8f835ddbE():
/rustc/50a0defd5a93523067ef239936cc2e0755220904/src/libcore/ptr.rs:871
  14:	6803      	ldr	r3, [r0, #0]
_ZN8cortex_m3itm9write_all17h34ed86ddbf0ecd73E():
/Users/Luppy/.cargo/registry/src/github.com-1ecc6299db9ec823/cortex-m-0.6.0/src/itm.rs:42
  16:	2b01      	cmp	r3, #1
  18:	d002      	beq.n	20 <cortex_m::itm::write_str+0x20>
_ZN4core3ptr13read_volatile17h92e63e8c8f835ddbE():
/rustc/50a0defd5a93523067ef239936cc2e0755220904/src/libcore/ptr.rs:871
  1a:	6803      	ldr	r3, [r0, #0]
_ZN8cortex_m3itm9write_all17h34ed86ddbf0ecd73E():
/Users/Luppy/.cargo/registry/src/github.com-1ecc6299db9ec823/cortex-m-0.6.0/src/itm.rs:42
  1c:	2b01      	cmp	r3, #1
  1e:	d1f3      	bne.n	8 <cortex_m::itm::write_str+0x8>
/Users/Luppy/.cargo/registry/src/github.com-1ecc6299db9ec823/cortex-m-0.6.0/src/itm.rs:43
            port.write_u8(*ptr);
  20:	f811 3b01 	ldrb.w	r3, [r1], #1
/Users/Luppy/.cargo/registry/src/github.com-1ecc6299db9ec823/cortex-m-0.6.0/src/itm.rs:47
            len -= 1;
  24:	3a01      	subs	r2, #1
_ZN4core3ptr14write_volatile17hc39b2783c51eefd0E():
/rustc/50a0defd5a93523067ef239936cc2e0755220904/src/libcore/ptr.rs:939
  26:	7003      	strb	r3, [r0, #0]
_ZN8cortex_m3itm9write_all17h34ed86ddbf0ecd73E():
/Users/Luppy/.cargo/registry/src/github.com-1ecc6299db9ec823/cortex-m-0.6.0/src/itm.rs:51
        if ptr as usize % 4 == 2 {
  28:	f001 0303 	and.w	r3, r1, #3
  2c:	2b02      	cmp	r3, #2
  2e:	d111      	bne.n	54 <cortex_m::itm::write_str+0x54>
/Users/Luppy/.cargo/registry/src/github.com-1ecc6299db9ec823/cortex-m-0.6.0/src/itm.rs:52
            if len > 1 {
  30:	2a02      	cmp	r2, #2
  32:	d355      	bcc.n	e0 <cortex_m::itm::write_str+0xe0>
_ZN4core3ptr13read_volatile17h92e63e8c8f835ddbE():
/rustc/50a0defd5a93523067ef239936cc2e0755220904/src/libcore/ptr.rs:871
  34:	6803      	ldr	r3, [r0, #0]
_ZN8cortex_m3itm9write_all17h34ed86ddbf0ecd73E():
/Users/Luppy/.cargo/registry/src/github.com-1ecc6299db9ec823/cortex-m-0.6.0/src/itm.rs:54
                while !port.is_fifo_ready() {}
  36:	2b01      	cmp	r3, #1
_ZN4core3ptr13read_volatile17h92e63e8c8f835ddbE():
/rustc/50a0defd5a93523067ef239936cc2e0755220904/src/libcore/ptr.rs:871
  38:	bf1c      	itt	ne
  3a:	6803      	ldrne	r3, [r0, #0]
_ZN8cortex_m3itm9write_all17h34ed86ddbf0ecd73E():
/Users/Luppy/.cargo/registry/src/github.com-1ecc6299db9ec823/cortex-m-0.6.0/src/itm.rs:54
  3c:	2b01      	cmpne	r3, #1
  3e:	d005      	beq.n	4c <cortex_m::itm::write_str+0x4c>
_ZN4core3ptr13read_volatile17h92e63e8c8f835ddbE():
/rustc/50a0defd5a93523067ef239936cc2e0755220904/src/libcore/ptr.rs:871
  40:	6803      	ldr	r3, [r0, #0]
_ZN8cortex_m3itm9write_all17h34ed86ddbf0ecd73E():
/Users/Luppy/.cargo/registry/src/github.com-1ecc6299db9ec823/cortex-m-0.6.0/src/itm.rs:54
  42:	2b01      	cmp	r3, #1
  44:	d002      	beq.n	4c <cortex_m::itm::write_str+0x4c>
_ZN4core3ptr13read_volatile17h92e63e8c8f835ddbE():
/rustc/50a0defd5a93523067ef239936cc2e0755220904/src/libcore/ptr.rs:871
  46:	6803      	ldr	r3, [r0, #0]
_ZN8cortex_m3itm9write_all17h34ed86ddbf0ecd73E():
/Users/Luppy/.cargo/registry/src/github.com-1ecc6299db9ec823/cortex-m-0.6.0/src/itm.rs:54
  48:	2b01      	cmp	r3, #1
  4a:	d1f3      	bne.n	34 <cortex_m::itm::write_str+0x34>
  4c:	f831 3b02 	ldrh.w	r3, [r1], #2
/Users/Luppy/.cargo/registry/src/github.com-1ecc6299db9ec823/cortex-m-0.6.0/src/itm.rs:59
                len -= 2;
  50:	3a02      	subs	r2, #2
_ZN4core3ptr14write_volatile17h99cb0c34d2e4de8bE():
/rustc/50a0defd5a93523067ef239936cc2e0755220904/src/libcore/ptr.rs:939
  52:	8003      	strh	r3, [r0, #0]
_ZN8cortex_m3itm13write_aligned17h5db71ed7835f4618E():
/Users/Luppy/.cargo/registry/src/github.com-1ecc6299db9ec823/cortex-m-0.6.0/src/itm.rs:93
        if len == 0 {
  54:	2a00      	cmp	r2, #0
  56:	d053      	beq.n	100 <cortex_m::itm::write_str+0x100>
  58:	b5b0      	push	{r4, r5, r7, lr}
/Users/Luppy/.cargo/registry/src/github.com-1ecc6299db9ec823/cortex-m-0.6.0/src/itm.rs:97
        let split = len & !0b11;
  5a:	f022 0c03 	bic.w	ip, r2, #3
  5e:	2300      	movs	r3, #0
_ZN4core4iter5range101_$LT$impl$u20$core..iter..traits..iterator..Iterator$u20$for$u20$core..ops..range..Range$LT$A$GT$$GT$4next17h08524424f0191e33E():
/rustc/50a0defd5a93523067ef239936cc2e0755220904/src/libcore/iter/range.rs:171
  60:	ebb3 0f92 	cmp.w	r3, r2, lsr #2
  64:	d015      	beq.n	92 <cortex_m::itm::write_str+0x92>
_ZN8cortex_m3itm11write_words17hea111f1efa6fb541E():
  66:	ea4f 0e92 	mov.w	lr, r2, lsr #2
  6a:	2300      	movs	r3, #0
  6c:	460c      	mov	r4, r1
_ZN4core3ptr13read_volatile17h92e63e8c8f835ddbE():
/rustc/50a0defd5a93523067ef239936cc2e0755220904/src/libcore/ptr.rs:871
  6e:	6805      	ldr	r5, [r0, #0]
_ZN8cortex_m3itm11write_words17hea111f1efa6fb541E():
/Users/Luppy/.cargo/registry/src/github.com-1ecc6299db9ec823/cortex-m-0.6.0/src/itm.rs:15
        while !stim.is_fifo_ready() {}
  70:	2d01      	cmp	r5, #1
_ZN4core3ptr13read_volatile17h92e63e8c8f835ddbE():
/rustc/50a0defd5a93523067ef239936cc2e0755220904/src/libcore/ptr.rs:871
  72:	bf1c      	itt	ne
  74:	6805      	ldrne	r5, [r0, #0]
_ZN8cortex_m3itm11write_words17hea111f1efa6fb541E():
/Users/Luppy/.cargo/registry/src/github.com-1ecc6299db9ec823/cortex-m-0.6.0/src/itm.rs:15
  76:	2d01      	cmpne	r5, #1
  78:	d005      	beq.n	86 <cortex_m::itm::write_str+0x86>
_ZN4core3ptr13read_volatile17h92e63e8c8f835ddbE():
/rustc/50a0defd5a93523067ef239936cc2e0755220904/src/libcore/ptr.rs:871
  7a:	6805      	ldr	r5, [r0, #0]
_ZN8cortex_m3itm11write_words17hea111f1efa6fb541E():
/Users/Luppy/.cargo/registry/src/github.com-1ecc6299db9ec823/cortex-m-0.6.0/src/itm.rs:15
  7c:	2d01      	cmp	r5, #1
  7e:	d002      	beq.n	86 <cortex_m::itm::write_str+0x86>
_ZN4core3ptr13read_volatile17h92e63e8c8f835ddbE():
/rustc/50a0defd5a93523067ef239936cc2e0755220904/src/libcore/ptr.rs:871
  80:	6805      	ldr	r5, [r0, #0]
_ZN8cortex_m3itm11write_words17hea111f1efa6fb541E():
/Users/Luppy/.cargo/registry/src/github.com-1ecc6299db9ec823/cortex-m-0.6.0/src/itm.rs:15
  82:	2d01      	cmp	r5, #1
  84:	d1f3      	bne.n	6e <cortex_m::itm::write_str+0x6e>
  86:	f854 5b04 	ldr.w	r5, [r4], #4
_ZN4core3num23_$LT$impl$u20$usize$GT$15overflowing_add17hde7e9fa4130a5804E():
/rustc/50a0defd5a93523067ef239936cc2e0755220904/src/libcore/num/mod.rs:3349
  8a:	3301      	adds	r3, #1
_ZN4core4iter5range101_$LT$impl$u20$core..iter..traits..iterator..Iterator$u20$for$u20$core..ops..range..Range$LT$A$GT$$GT$4next17h08524424f0191e33E():
/rustc/50a0defd5a93523067ef239936cc2e0755220904/src/libcore/iter/range.rs:171
  8c:	4573      	cmp	r3, lr
_ZN4core3ptr14write_volatile17h805cf84299217b43E():
/rustc/50a0defd5a93523067ef239936cc2e0755220904/src/libcore/ptr.rs:939
  8e:	6005      	str	r5, [r0, #0]
  90:	d1ed      	bne.n	6e <cortex_m::itm::write_str+0x6e>
_ZN8cortex_m3itm13write_aligned17h5db71ed7835f4618E():
/Users/Luppy/.cargo/registry/src/github.com-1ecc6299db9ec823/cortex-m-0.6.0/src/itm.rs:104
        let mut left = len & 0b11;
  92:	f002 0203 	and.w	r2, r2, #3
_ZN4core3ptr33_$LT$impl$u20$$BP$const$u20$T$GT$6offset17heeb408278a2315f2E():
/rustc/50a0defd5a93523067ef239936cc2e0755220904/src/libcore/ptr.rs:1077
  96:	4461      	add	r1, ip
_ZN8cortex_m3itm13write_aligned17h5db71ed7835f4618E():
/Users/Luppy/.cargo/registry/src/github.com-1ecc6299db9ec823/cortex-m-0.6.0/src/itm.rs:108
        if left > 1 {
  98:	2a02      	cmp	r2, #2
  9a:	e8bd 40b0 	ldmia.w	sp!, {r4, r5, r7, lr}
  9e:	d30f      	bcc.n	c0 <cortex_m::itm::write_str+0xc0>
_ZN4core3ptr13read_volatile17h92e63e8c8f835ddbE():
/rustc/50a0defd5a93523067ef239936cc2e0755220904/src/libcore/ptr.rs:871
  a0:	6803      	ldr	r3, [r0, #0]
_ZN8cortex_m3itm13write_aligned17h5db71ed7835f4618E():
/Users/Luppy/.cargo/registry/src/github.com-1ecc6299db9ec823/cortex-m-0.6.0/src/itm.rs:109
            while !port.is_fifo_ready() {}
  a2:	2b01      	cmp	r3, #1
_ZN4core3ptr13read_volatile17h92e63e8c8f835ddbE():
/rustc/50a0defd5a93523067ef239936cc2e0755220904/src/libcore/ptr.rs:871
  a4:	bf1c      	itt	ne
  a6:	6803      	ldrne	r3, [r0, #0]
_ZN8cortex_m3itm13write_aligned17h5db71ed7835f4618E():
/Users/Luppy/.cargo/registry/src/github.com-1ecc6299db9ec823/cortex-m-0.6.0/src/itm.rs:109
  a8:	2b01      	cmpne	r3, #1
  aa:	d005      	beq.n	b8 <cortex_m::itm::write_str+0xb8>
_ZN4core3ptr13read_volatile17h92e63e8c8f835ddbE():
/rustc/50a0defd5a93523067ef239936cc2e0755220904/src/libcore/ptr.rs:871
  ac:	6803      	ldr	r3, [r0, #0]
_ZN8cortex_m3itm13write_aligned17h5db71ed7835f4618E():
/Users/Luppy/.cargo/registry/src/github.com-1ecc6299db9ec823/cortex-m-0.6.0/src/itm.rs:109
  ae:	2b01      	cmp	r3, #1
  b0:	d002      	beq.n	b8 <cortex_m::itm::write_str+0xb8>
_ZN4core3ptr13read_volatile17h92e63e8c8f835ddbE():
/rustc/50a0defd5a93523067ef239936cc2e0755220904/src/libcore/ptr.rs:871
  b2:	6803      	ldr	r3, [r0, #0]
_ZN8cortex_m3itm13write_aligned17h5db71ed7835f4618E():
/Users/Luppy/.cargo/registry/src/github.com-1ecc6299db9ec823/cortex-m-0.6.0/src/itm.rs:109
  b4:	2b01      	cmp	r3, #1
  b6:	d1f3      	bne.n	a0 <cortex_m::itm::write_str+0xa0>
  b8:	f831 3b02 	ldrh.w	r3, [r1], #2
/Users/Luppy/.cargo/registry/src/github.com-1ecc6299db9ec823/cortex-m-0.6.0/src/itm.rs:113
            left -= 2;
  bc:	3a02      	subs	r2, #2
_ZN4core3ptr14write_volatile17h99cb0c34d2e4de8bE():
/rustc/50a0defd5a93523067ef239936cc2e0755220904/src/libcore/ptr.rs:939
  be:	8003      	strh	r3, [r0, #0]
_ZN8cortex_m3itm13write_aligned17h5db71ed7835f4618E():
/Users/Luppy/.cargo/registry/src/github.com-1ecc6299db9ec823/cortex-m-0.6.0/src/itm.rs:117
        if left == 1 {
  c0:	2a01      	cmp	r2, #1
_ZN8cortex_m3itm9write_str17h8d8e10b4c67e43c3E():
/Users/Luppy/.cargo/registry/src/github.com-1ecc6299db9ec823/cortex-m-0.6.0/src/itm.rs:134

/// Writes a string to the ITM `port`
pub fn write_str(port: &mut Stim, string: &str) {
    write_all(port, string.as_bytes())
}
  c2:	bf18      	it	ne
  c4:	4770      	bxne	lr
_ZN4core3ptr13read_volatile17h92e63e8c8f835ddbE():
/rustc/50a0defd5a93523067ef239936cc2e0755220904/src/libcore/ptr.rs:871
  c6:	6802      	ldr	r2, [r0, #0]
_ZN8cortex_m3itm13write_aligned17h5db71ed7835f4618E():
/Users/Luppy/.cargo/registry/src/github.com-1ecc6299db9ec823/cortex-m-0.6.0/src/itm.rs:118
            while !port.is_fifo_ready() {}
  c8:	2a01      	cmp	r2, #1
  ca:	d017      	beq.n	fc <cortex_m::itm::write_str+0xfc>
_ZN4core3ptr13read_volatile17h92e63e8c8f835ddbE():
/rustc/50a0defd5a93523067ef239936cc2e0755220904/src/libcore/ptr.rs:871
  cc:	6802      	ldr	r2, [r0, #0]
_ZN8cortex_m3itm13write_aligned17h5db71ed7835f4618E():
/Users/Luppy/.cargo/registry/src/github.com-1ecc6299db9ec823/cortex-m-0.6.0/src/itm.rs:118
  ce:	2a01      	cmp	r2, #1
_ZN4core3ptr13read_volatile17h92e63e8c8f835ddbE():
/rustc/50a0defd5a93523067ef239936cc2e0755220904/src/libcore/ptr.rs:871
  d0:	bf1c      	itt	ne
  d2:	6802      	ldrne	r2, [r0, #0]
_ZN8cortex_m3itm13write_aligned17h5db71ed7835f4618E():
/Users/Luppy/.cargo/registry/src/github.com-1ecc6299db9ec823/cortex-m-0.6.0/src/itm.rs:118
  d4:	2a01      	cmpne	r2, #1
  d6:	d011      	beq.n	fc <cortex_m::itm::write_str+0xfc>
_ZN4core3ptr13read_volatile17h92e63e8c8f835ddbE():
/rustc/50a0defd5a93523067ef239936cc2e0755220904/src/libcore/ptr.rs:871
  d8:	6802      	ldr	r2, [r0, #0]
_ZN8cortex_m3itm13write_aligned17h5db71ed7835f4618E():
/Users/Luppy/.cargo/registry/src/github.com-1ecc6299db9ec823/cortex-m-0.6.0/src/itm.rs:118
  da:	2a01      	cmp	r2, #1
  dc:	d1f3      	bne.n	c6 <cortex_m::itm::write_str+0xc6>
  de:	e00d      	b.n	fc <cortex_m::itm::write_str+0xfc>
_ZN8cortex_m3itm9write_all17h34ed86ddbf0ecd73E():
/Users/Luppy/.cargo/registry/src/github.com-1ecc6299db9ec823/cortex-m-0.6.0/src/itm.rs:61
                if len == 1 {
  e0:	2a01      	cmp	r2, #1
  e2:	d10d      	bne.n	100 <cortex_m::itm::write_str+0x100>
_ZN4core3ptr13read_volatile17h92e63e8c8f835ddbE():
/rustc/50a0defd5a93523067ef239936cc2e0755220904/src/libcore/ptr.rs:871
  e4:	6802      	ldr	r2, [r0, #0]
_ZN8cortex_m3itm9write_all17h34ed86ddbf0ecd73E():
/Users/Luppy/.cargo/registry/src/github.com-1ecc6299db9ec823/cortex-m-0.6.0/src/itm.rs:63
                    while !port.is_fifo_ready() {}
  e6:	2a01      	cmp	r2, #1
_ZN4core3ptr13read_volatile17h92e63e8c8f835ddbE():
/rustc/50a0defd5a93523067ef239936cc2e0755220904/src/libcore/ptr.rs:871
  e8:	bf1c      	itt	ne
  ea:	6802      	ldrne	r2, [r0, #0]
_ZN8cortex_m3itm9write_all17h34ed86ddbf0ecd73E():
/Users/Luppy/.cargo/registry/src/github.com-1ecc6299db9ec823/cortex-m-0.6.0/src/itm.rs:63
  ec:	2a01      	cmpne	r2, #1
  ee:	d005      	beq.n	fc <cortex_m::itm::write_str+0xfc>
_ZN4core3ptr13read_volatile17h92e63e8c8f835ddbE():
/rustc/50a0defd5a93523067ef239936cc2e0755220904/src/libcore/ptr.rs:871
  f0:	6802      	ldr	r2, [r0, #0]
_ZN8cortex_m3itm9write_all17h34ed86ddbf0ecd73E():
/Users/Luppy/.cargo/registry/src/github.com-1ecc6299db9ec823/cortex-m-0.6.0/src/itm.rs:63
  f2:	2a01      	cmp	r2, #1
  f4:	d002      	beq.n	fc <cortex_m::itm::write_str+0xfc>
_ZN4core3ptr13read_volatile17h92e63e8c8f835ddbE():
/rustc/50a0defd5a93523067ef239936cc2e0755220904/src/libcore/ptr.rs:871
  f6:	6802      	ldr	r2, [r0, #0]
_ZN8cortex_m3itm9write_all17h34ed86ddbf0ecd73E():
/Users/Luppy/.cargo/registry/src/github.com-1ecc6299db9ec823/cortex-m-0.6.0/src/itm.rs:63
  f8:	2a01      	cmp	r2, #1
  fa:	d1f3      	bne.n	e4 <cortex_m::itm::write_str+0xe4>
  fc:	7809      	ldrb	r1, [r1, #0]
  fe:	7001      	strb	r1, [r0, #0]
_ZN8cortex_m3itm9write_str17h8d8e10b4c67e43c3E():
/Users/Luppy/.cargo/registry/src/github.com-1ecc6299db9ec823/cortex-m-0.6.0/src/itm.rs:134
}
 100:	4770      	bx	lr

Disassembly of section .text._ZN8cortex_m10peripheral5cpuid45_$LT$impl$u20$cortex_m..peripheral..CPUID$GT$12select_cache17hd2c8f4872fa24111E:

00000000 <cortex_m::peripheral::cpuid::<impl cortex_m::peripheral::CPUID>::select_cache>:
_ZN8cortex_m10peripheral5cpuid45_$LT$impl$u20$cortex_m..peripheral..CPUID$GT$12select_cache17hd2c8f4872fa24111E():
/Users/Luppy/.cargo/registry/src/github.com-1ecc6299db9ec823/cortex-m-0.6.0/src/peripheral/cpuid.rs:84
    ///
    /// * `level`: the required cache level minus 1, e.g. 0 for L1, 1 for L2
    /// * `ind`: select instruction cache or data/unified cache
    ///
    /// `level` is masked to be between 0 and 7.
    pub fn select_cache(&mut self, level: u8, ind: CsselrCacheType) {
   0:	f64e 5084 	movw	r0, #60804	; 0xed84
/Users/Luppy/.cargo/registry/src/github.com-1ecc6299db9ec823/cortex-m-0.6.0/src/peripheral/cpuid.rs:92
        const CSSELR_LEVEL_POS: u32 = 1;
        const CSSELR_LEVEL_MASK: u32 = 0x7 << CSSELR_LEVEL_POS;

        unsafe {
            self.csselr.write(
                (((level as u32) << CSSELR_LEVEL_POS) & CSSELR_LEVEL_MASK)
   4:	f361 0243 	bfi	r2, r1, #1, #3
   8:	f2ce 0000 	movt	r0, #57344	; 0xe000
_ZN4core3ptr14write_volatile17h805cf84299217b43E():
/rustc/50a0defd5a93523067ef239936cc2e0755220904/src/libcore/ptr.rs:939
   c:	6002      	str	r2, [r0, #0]
_ZN8cortex_m10peripheral5cpuid45_$LT$impl$u20$cortex_m..peripheral..CPUID$GT$12select_cache17hd2c8f4872fa24111E():
/Users/Luppy/.cargo/registry/src/github.com-1ecc6299db9ec823/cortex-m-0.6.0/src/peripheral/cpuid.rs:96
                    | (((ind as u32) << CSSELR_IND_POS) & CSSELR_IND_MASK),
            )
        }
    }
   e:	4770      	bx	lr

Disassembly of section .text._ZN8cortex_m10peripheral5cpuid45_$LT$impl$u20$cortex_m..peripheral..CPUID$GT$19cache_num_sets_ways17h7f385fb6ecf7b553E:

00000000 <cortex_m::peripheral::cpuid::<impl cortex_m::peripheral::CPUID>::cache_num_sets_ways>:
_ZN8cortex_m10peripheral5cpuid45_$LT$impl$u20$cortex_m..peripheral..CPUID$GT$19cache_num_sets_ways17h7f385fb6ecf7b553E():
/Users/Luppy/.cargo/registry/src/github.com-1ecc6299db9ec823/cortex-m-0.6.0/src/peripheral/cpuid.rs:99

    /// Returns the number of sets and ways in the selected cache
    pub fn cache_num_sets_ways(&mut self, level: u8, ind: CsselrCacheType) -> (u16, u16) {
   0:	b510      	push	{r4, lr}
   2:	f64e 5480 	movw	r4, #60800	; 0xed80
_ZN8cortex_m10peripheral5cpuid45_$LT$impl$u20$cortex_m..peripheral..CPUID$GT$12select_cache17hd2c8f4872fa24111E():
/Users/Luppy/.cargo/registry/src/github.com-1ecc6299db9ec823/cortex-m-0.6.0/src/peripheral/cpuid.rs:92
                (((level as u32) << CSSELR_LEVEL_POS) & CSSELR_LEVEL_MASK)
   6:	f361 0243 	bfi	r2, r1, #1, #3
   a:	f2ce 0400 	movt	r4, #57344	; 0xe000
_ZN4core3ptr14write_volatile17h805cf84299217b43E():
/rustc/50a0defd5a93523067ef239936cc2e0755220904/src/libcore/ptr.rs:939
   e:	6062      	str	r2, [r4, #4]
_ZN8cortex_m3asm3dsb17ha21627ee28972a95E():
/Users/Luppy/.cargo/registry/src/github.com-1ecc6299db9ec823/cortex-m-0.6.0/src/asm.rs:191
        () => unsafe {
            extern "C" {
                fn __dsb();
            }

            __dsb()
  10:	f7ff fffe 	bl	0 <__dsb>
_ZN4core3ptr13read_volatile17h92e63e8c8f835ddbE():
/rustc/50a0defd5a93523067ef239936cc2e0755220904/src/libcore/ptr.rs:871
  14:	6821      	ldr	r1, [r4, #0]
_ZN8cortex_m10peripheral5cpuid45_$LT$impl$u20$cortex_m..peripheral..CPUID$GT$19cache_num_sets_ways17h7f385fb6ecf7b553E():
/Users/Luppy/.cargo/registry/src/github.com-1ecc6299db9ec823/cortex-m-0.6.0/src/peripheral/cpuid.rs:109

        self.select_cache(level, ind);
        ::asm::dsb();
        let ccsidr = self.ccsidr.read();
        (
            (1 + ((ccsidr & CCSIDR_NUMSETS_MASK) >> CCSIDR_NUMSETS_POS)) as u16,
  16:	f3c1 304e 	ubfx	r0, r1, #13, #15
/Users/Luppy/.cargo/registry/src/github.com-1ecc6299db9ec823/cortex-m-0.6.0/src/peripheral/cpuid.rs:110
            (1 + ((ccsidr & CCSIDR_ASSOCIATIVITY_MASK) >> CCSIDR_ASSOCIATIVITY_POS)) as u16,
  1a:	f3c1 01c9 	ubfx	r1, r1, #3, #10
/Users/Luppy/.cargo/registry/src/github.com-1ecc6299db9ec823/cortex-m-0.6.0/src/peripheral/cpuid.rs:109
            (1 + ((ccsidr & CCSIDR_NUMSETS_MASK) >> CCSIDR_NUMSETS_POS)) as u16,
  1e:	3001      	adds	r0, #1
/Users/Luppy/.cargo/registry/src/github.com-1ecc6299db9ec823/cortex-m-0.6.0/src/peripheral/cpuid.rs:110
            (1 + ((ccsidr & CCSIDR_ASSOCIATIVITY_MASK) >> CCSIDR_ASSOCIATIVITY_POS)) as u16,
  20:	3101      	adds	r1, #1
/Users/Luppy/.cargo/registry/src/github.com-1ecc6299db9ec823/cortex-m-0.6.0/src/peripheral/cpuid.rs:112
        )
    }
  22:	bd10      	pop	{r4, pc}

Disassembly of section .text._ZN8cortex_m10peripheral3dcb43_$LT$impl$u20$cortex_m..peripheral..DCB$GT$12enable_trace17h9d180040a4a4dd30E:

00000000 <cortex_m::peripheral::dcb::<impl cortex_m::peripheral::DCB>::enable_trace>:
_ZN8cortex_m10peripheral3dcb43_$LT$impl$u20$cortex_m..peripheral..DCB$GT$12enable_trace17h9d180040a4a4dd30E():
/Users/Luppy/.cargo/registry/src/github.com-1ecc6299db9ec823/cortex-m-0.6.0/src/peripheral/dcb.rs:28
impl DCB {
    /// Enables TRACE. This is for example required by the
    /// `peripheral::DWT` cycle counter to work properly.
    /// As by STM documentation, this flag is not reset on
    /// soft-reset, only on power reset.
    pub fn enable_trace(&mut self) {
   0:	f64e 50fc 	movw	r0, #60924	; 0xedfc
   4:	f2ce 0000 	movt	r0, #57344	; 0xe000
_ZN4core3ptr13read_volatile17h92e63e8c8f835ddbE():
/rustc/50a0defd5a93523067ef239936cc2e0755220904/src/libcore/ptr.rs:871
   8:	6801      	ldr	r1, [r0, #0]
_ZN8cortex_m10peripheral3dcb43_$LT$impl$u20$cortex_m..peripheral..DCB$GT$12enable_trace28_$u7b$$u7b$closure$u7d$$u7d$17hbd0fa21ecfb49578E():
/Users/Luppy/.cargo/registry/src/github.com-1ecc6299db9ec823/cortex-m-0.6.0/src/peripheral/dcb.rs:31
        // set bit 24 / TRCENA
        unsafe {
            self.demcr.modify(|w| w | DCB_DEMCR_TRCENA);
   a:	f041 7180 	orr.w	r1, r1, #16777216	; 0x1000000
_ZN4core3ptr14write_volatile17h805cf84299217b43E():
/rustc/50a0defd5a93523067ef239936cc2e0755220904/src/libcore/ptr.rs:939
   e:	6001      	str	r1, [r0, #0]
_ZN8cortex_m10peripheral3dcb43_$LT$impl$u20$cortex_m..peripheral..DCB$GT$12enable_trace17h9d180040a4a4dd30E():
/Users/Luppy/.cargo/registry/src/github.com-1ecc6299db9ec823/cortex-m-0.6.0/src/peripheral/dcb.rs:33
        }
    }
  10:	4770      	bx	lr

Disassembly of section .text._ZN8cortex_m10peripheral3dcb43_$LT$impl$u20$cortex_m..peripheral..DCB$GT$13disable_trace17ha27e1406b2ee98b9E:

00000000 <cortex_m::peripheral::dcb::<impl cortex_m::peripheral::DCB>::disable_trace>:
_ZN8cortex_m10peripheral3dcb43_$LT$impl$u20$cortex_m..peripheral..DCB$GT$13disable_trace17ha27e1406b2ee98b9E():
/Users/Luppy/.cargo/registry/src/github.com-1ecc6299db9ec823/cortex-m-0.6.0/src/peripheral/dcb.rs:36

    /// Disables TRACE. See `DCB::enable_trace()` for more details
    pub fn disable_trace(&mut self) {
   0:	f64e 50fc 	movw	r0, #60924	; 0xedfc
   4:	f2ce 0000 	movt	r0, #57344	; 0xe000
_ZN4core3ptr13read_volatile17h92e63e8c8f835ddbE():
/rustc/50a0defd5a93523067ef239936cc2e0755220904/src/libcore/ptr.rs:871
   8:	6801      	ldr	r1, [r0, #0]
_ZN8cortex_m10peripheral3dcb43_$LT$impl$u20$cortex_m..peripheral..DCB$GT$13disable_trace28_$u7b$$u7b$closure$u7d$$u7d$17hf003e309e26b414fE():
/Users/Luppy/.cargo/registry/src/github.com-1ecc6299db9ec823/cortex-m-0.6.0/src/peripheral/dcb.rs:39
        // unset bit 24 / TRCENA
        unsafe {
            self.demcr.modify(|w| w & !DCB_DEMCR_TRCENA);
   a:	f021 7180 	bic.w	r1, r1, #16777216	; 0x1000000
_ZN4core3ptr14write_volatile17h805cf84299217b43E():
/rustc/50a0defd5a93523067ef239936cc2e0755220904/src/libcore/ptr.rs:939
   e:	6001      	str	r1, [r0, #0]
_ZN8cortex_m10peripheral3dcb43_$LT$impl$u20$cortex_m..peripheral..DCB$GT$13disable_trace17ha27e1406b2ee98b9E():
/Users/Luppy/.cargo/registry/src/github.com-1ecc6299db9ec823/cortex-m-0.6.0/src/peripheral/dcb.rs:41
        }
    }
  10:	4770      	bx	lr

Disassembly of section .text._ZN8cortex_m10peripheral3dcb43_$LT$impl$u20$cortex_m..peripheral..DCB$GT$20is_debugger_attached17h823c0cdb8fd92d53E:

00000000 <cortex_m::peripheral::dcb::<impl cortex_m::peripheral::DCB>::is_debugger_attached>:
_ZN8cortex_m10peripheral3dcb43_$LT$impl$u20$cortex_m..peripheral..DCB$GT$20is_debugger_attached17h823c0cdb8fd92d53E():
/Users/Luppy/.cargo/registry/src/github.com-1ecc6299db9ec823/cortex-m-0.6.0/src/peripheral/dcb.rs:50
    /// Note: This function is [reported not to
    /// work](http://web.archive.org/web/20180821191012/https://community.nxp.com/thread/424925#comment-782843)
    /// on Cortex-M0 devices. Per the ARM v6-M Architecture Reference Manual, "Access to the DHCSR
    /// from software running on the processor is IMPLEMENTATION DEFINED". Indeed, from the
    /// [Cortex-M0+ r0p1 Technical Reference Manual](http://infocenter.arm.com/help/index.jsp?topic=/com.arm.doc.ddi0484c/BABJHEIG.html), "Note Software cannot access the debug registers."
    pub fn is_debugger_attached() -> bool {
   0:	f64e 50f0 	movw	r0, #60912	; 0xedf0
   4:	f2ce 0000 	movt	r0, #57344	; 0xe000
_ZN4core3ptr13read_volatile17hf2262a78e61f32b5E():
/rustc/50a0defd5a93523067ef239936cc2e0755220904/src/libcore/ptr.rs:871
   8:	7800      	ldrb	r0, [r0, #0]
_ZN8cortex_m10peripheral3dcb43_$LT$impl$u20$cortex_m..peripheral..DCB$GT$20is_debugger_attached17h823c0cdb8fd92d53E():
/Users/Luppy/.cargo/registry/src/github.com-1ecc6299db9ec823/cortex-m-0.6.0/src/peripheral/dcb.rs:56
        unsafe {
            // do an 8-bit read of the 32-bit DHCSR register, and get the LSB
            let value = ptr::read_volatile(Self::ptr() as *const u8);
            value & 0x1 == 1
        }
    }
   a:	f000 0001 	and.w	r0, r0, #1
   e:	4770      	bx	lr

Disassembly of section .text._ZN8cortex_m10peripheral3dwt43_$LT$impl$u20$cortex_m..peripheral..DWT$GT$20enable_cycle_counter17ha33db9ec02bcf5d7E:

00000000 <cortex_m::peripheral::dwt::<impl cortex_m::peripheral::DWT>::enable_cycle_counter>:
_ZN8cortex_m10peripheral3dwt43_$LT$impl$u20$cortex_m..peripheral..DWT$GT$20enable_cycle_counter17ha33db9ec02bcf5d7E():
/Users/Luppy/.cargo/registry/src/github.com-1ecc6299db9ec823/cortex-m-0.6.0/src/peripheral/dwt.rs:68
}

impl DWT {
    /// Enables the cycle counter
    #[cfg(not(armv6m))]
    pub fn enable_cycle_counter(&mut self) {
   0:	f241 0000 	movw	r0, #4096	; 0x1000
   4:	f2ce 0000 	movt	r0, #57344	; 0xe000
_ZN4core3ptr13read_volatile17h92e63e8c8f835ddbE():
/rustc/50a0defd5a93523067ef239936cc2e0755220904/src/libcore/ptr.rs:871
   8:	6801      	ldr	r1, [r0, #0]
_ZN8cortex_m10peripheral3dwt43_$LT$impl$u20$cortex_m..peripheral..DWT$GT$20enable_cycle_counter28_$u7b$$u7b$closure$u7d$$u7d$17hf20b4e83f57686adE():
/Users/Luppy/.cargo/registry/src/github.com-1ecc6299db9ec823/cortex-m-0.6.0/src/peripheral/dwt.rs:69
        unsafe { self.ctrl.modify(|r| r | 1) }
   a:	f041 0101 	orr.w	r1, r1, #1
_ZN4core3ptr14write_volatile17h805cf84299217b43E():
/rustc/50a0defd5a93523067ef239936cc2e0755220904/src/libcore/ptr.rs:939
   e:	6001      	str	r1, [r0, #0]
_ZN8cortex_m10peripheral3dwt43_$LT$impl$u20$cortex_m..peripheral..DWT$GT$20enable_cycle_counter17ha33db9ec02bcf5d7E():
/Users/Luppy/.cargo/registry/src/github.com-1ecc6299db9ec823/cortex-m-0.6.0/src/peripheral/dwt.rs:70
    }
  10:	4770      	bx	lr

Disassembly of section .text._ZN8cortex_m10peripheral3dwt43_$LT$impl$u20$cortex_m..peripheral..DWT$GT$15get_cycle_count17h16061290493404a9E:

00000000 <cortex_m::peripheral::dwt::<impl cortex_m::peripheral::DWT>::get_cycle_count>:
_ZN8cortex_m10peripheral3dwt43_$LT$impl$u20$cortex_m..peripheral..DWT$GT$15get_cycle_count17h16061290493404a9E():
/Users/Luppy/.cargo/registry/src/github.com-1ecc6299db9ec823/cortex-m-0.6.0/src/peripheral/dwt.rs:74

    /// Returns the current clock cycle count
    #[cfg(not(armv6m))]
    pub fn get_cycle_count() -> u32 {
   0:	f241 0004 	movw	r0, #4100	; 0x1004
   4:	f2ce 0000 	movt	r0, #57344	; 0xe000
_ZN4core3ptr13read_volatile17h92e63e8c8f835ddbE():
/rustc/50a0defd5a93523067ef239936cc2e0755220904/src/libcore/ptr.rs:871
   8:	6800      	ldr	r0, [r0, #0]
_ZN8cortex_m10peripheral3dwt43_$LT$impl$u20$cortex_m..peripheral..DWT$GT$15get_cycle_count17h16061290493404a9E():
/Users/Luppy/.cargo/registry/src/github.com-1ecc6299db9ec823/cortex-m-0.6.0/src/peripheral/dwt.rs:77
        // NOTE(unsafe) atomic read with no side effects
        unsafe { (*Self::ptr()).cyccnt.read() }
    }
   a:	4770      	bx	lr

Disassembly of section .text._ZN8cortex_m10peripheral3itm4Stim8write_u817hf5984d6404aaf636E:

00000000 <cortex_m::peripheral::itm::Stim::write_u8>:
_ZN4core3ptr14write_volatile17hc39b2783c51eefd0E():
/rustc/50a0defd5a93523067ef239936cc2e0755220904/src/libcore/ptr.rs:939
   0:	7001      	strb	r1, [r0, #0]
_ZN8cortex_m10peripheral3itm4Stim8write_u817hf5984d6404aaf636E():
/Users/Luppy/.cargo/registry/src/github.com-1ecc6299db9ec823/cortex-m-0.6.0/src/peripheral/itm.rs:40

impl Stim {
    /// Writes an `u8` payload into the stimulus port
    pub fn write_u8(&mut self, value: u8) {
        unsafe { ptr::write_volatile(self.register.get() as *mut u8, value) }
    }
   2:	4770      	bx	lr

Disassembly of section .text._ZN8cortex_m10peripheral3itm4Stim9write_u1617h53c21ff7f354a014E:

00000000 <cortex_m::peripheral::itm::Stim::write_u16>:
_ZN4core3ptr14write_volatile17h99cb0c34d2e4de8bE():
/rustc/50a0defd5a93523067ef239936cc2e0755220904/src/libcore/ptr.rs:939
   0:	8001      	strh	r1, [r0, #0]
_ZN8cortex_m10peripheral3itm4Stim9write_u1617h53c21ff7f354a014E():
/Users/Luppy/.cargo/registry/src/github.com-1ecc6299db9ec823/cortex-m-0.6.0/src/peripheral/itm.rs:45

    /// Writes an `u16` payload into the stimulus port
    pub fn write_u16(&mut self, value: u16) {
        unsafe { ptr::write_volatile(self.register.get() as *mut u16, value) }
    }
   2:	4770      	bx	lr

Disassembly of section .text._ZN8cortex_m10peripheral3itm4Stim9write_u3217h126976650e7975aaE:

00000000 <cortex_m::peripheral::itm::Stim::write_u32>:
_ZN4core3ptr14write_volatile17h805cf84299217b43E():
/rustc/50a0defd5a93523067ef239936cc2e0755220904/src/libcore/ptr.rs:939
   0:	6001      	str	r1, [r0, #0]
_ZN8cortex_m10peripheral3itm4Stim9write_u3217h126976650e7975aaE():
/Users/Luppy/.cargo/registry/src/github.com-1ecc6299db9ec823/cortex-m-0.6.0/src/peripheral/itm.rs:50

    /// Writes an `u32` payload into the stimulus port
    pub fn write_u32(&mut self, value: u32) {
        unsafe { ptr::write_volatile(self.register.get(), value) }
    }
   2:	4770      	bx	lr

Disassembly of section .text._ZN8cortex_m10peripheral3itm4Stim13is_fifo_ready17hdbd890bb34216f11E:

00000000 <cortex_m::peripheral::itm::Stim::is_fifo_ready>:
_ZN4core3ptr13read_volatile17h92e63e8c8f835ddbE():
/rustc/50a0defd5a93523067ef239936cc2e0755220904/src/libcore/ptr.rs:871
   0:	6800      	ldr	r0, [r0, #0]
_ZN8cortex_m10peripheral3itm4Stim13is_fifo_ready17hdbd890bb34216f11E():
/Users/Luppy/.cargo/registry/src/github.com-1ecc6299db9ec823/cortex-m-0.6.0/src/peripheral/itm.rs:54

    /// Returns `true` if the stimulus port is ready to accept more data
    pub fn is_fifo_ready(&self) -> bool {
        unsafe { ptr::read_volatile(self.register.get()) == 1 }
   2:	3801      	subs	r0, #1
   4:	fab0 f080 	clz	r0, r0
   8:	0940      	lsrs	r0, r0, #5
/Users/Luppy/.cargo/registry/src/github.com-1ecc6299db9ec823/cortex-m-0.6.0/src/peripheral/itm.rs:55
    }
   a:	4770      	bx	lr

Disassembly of section .text._ZN8cortex_m10peripheral3scb43_$LT$impl$u20$cortex_m..peripheral..SCB$GT$11vect_active17h109b59719ddbbca6E:

00000000 <cortex_m::peripheral::scb::<impl cortex_m::peripheral::SCB>::vect_active>:
_ZN8cortex_m10peripheral3scb43_$LT$impl$u20$cortex_m..peripheral..SCB$GT$11vect_active17h109b59719ddbbca6E():
/Users/Luppy/.cargo/registry/src/github.com-1ecc6299db9ec823/cortex-m-0.6.0/src/peripheral/scb.rs:165
    }
}

impl SCB {
    /// Returns the active exception number
    pub fn vect_active() -> VectActive {
   0:	f64e 5004 	movw	r0, #60676	; 0xed04
   4:	f2ce 0000 	movt	r0, #57344	; 0xe000
   8:	6800      	ldr	r0, [r0, #0]
/Users/Luppy/.cargo/registry/src/github.com-1ecc6299db9ec823/cortex-m-0.6.0/src/peripheral/scb.rs:168
        let icsr = unsafe { ptr::read(&(*SCB::ptr()).icsr as *const _ as *const u32) };

        match icsr as u8 {
   a:	b2c2      	uxtb	r2, r0
/Users/Luppy/.cargo/registry/src/github.com-1ecc6299db9ec823/cortex-m-0.6.0/src/peripheral/scb.rs:169
            0 => VectActive::ThreadMode,
   c:	2a0f      	cmp	r2, #15
   e:	d80c      	bhi.n	2a <cortex_m::peripheral::scb::<impl cortex_m::peripheral::SCB>::vect_active+0x2a>
  10:	e8df f002 	tbb	[pc, r2]
  14:	0f080b0e 	.word	0x0f080b0e
  18:	0b181512 	.word	0x0b181512
  1c:	1b0b0b0b 	.word	0x1b0b0b0b
  20:	24210b1e 	.word	0x24210b1e
  24:	2001      	movs	r0, #1
  26:	2100      	movs	r1, #0
/Users/Luppy/.cargo/registry/src/github.com-1ecc6299db9ec823/cortex-m-0.6.0/src/peripheral/scb.rs:187
            12 => VectActive::Exception(Exception::DebugMonitor),
            14 => VectActive::Exception(Exception::PendSV),
            15 => VectActive::Exception(Exception::SysTick),
            irqn => VectActive::Interrupt { irqn: irqn - 16 },
        }
    }
  28:	4770      	bx	lr
/Users/Luppy/.cargo/registry/src/github.com-1ecc6299db9ec823/cortex-m-0.6.0/src/peripheral/scb.rs:185
            irqn => VectActive::Interrupt { irqn: irqn - 16 },
  2a:	f1a0 0110 	sub.w	r1, r0, #16
  2e:	2002      	movs	r0, #2
/Users/Luppy/.cargo/registry/src/github.com-1ecc6299db9ec823/cortex-m-0.6.0/src/peripheral/scb.rs:187
    }
  30:	4770      	bx	lr
  32:	2101      	movs	r1, #1
  34:	2001      	movs	r0, #1
  36:	4770      	bx	lr
  38:	2001      	movs	r0, #1
  3a:	2102      	movs	r1, #2
  3c:	4770      	bx	lr
  3e:	2001      	movs	r0, #1
  40:	2103      	movs	r1, #3
  42:	4770      	bx	lr
  44:	2001      	movs	r0, #1
  46:	2104      	movs	r1, #4
  48:	4770      	bx	lr
  4a:	2001      	movs	r0, #1
  4c:	2105      	movs	r1, #5
  4e:	4770      	bx	lr
  50:	2001      	movs	r0, #1
  52:	2106      	movs	r1, #6
  54:	4770      	bx	lr
  56:	2001      	movs	r0, #1
  58:	2107      	movs	r1, #7
  5a:	4770      	bx	lr
  5c:	2001      	movs	r0, #1
  5e:	2108      	movs	r1, #8
  60:	4770      	bx	lr

Disassembly of section .text._ZN8cortex_m10peripheral3scb9Exception4irqn17h4332944dc5fc4d4dE:

00000000 <cortex_m::peripheral::scb::Exception::irqn>:
_ZN8cortex_m10peripheral3scb9Exception4irqn17h4332944dc5fc4d4dE():
/Users/Luppy/.cargo/registry/src/github.com-1ecc6299db9ec823/cortex-m-0.6.0/src/peripheral/scb.rs:235
    /// Returns the IRQ number of this `Exception`
    ///
    /// The return value is always within the closed range `[-1, -14]`
    pub fn irqn(&self) -> i8 {
        match *self {
            Exception::NonMaskableInt => -14,
   0:	7800      	ldrb	r0, [r0, #0]
   2:	3801      	subs	r0, #1
   4:	2807      	cmp	r0, #7
   6:	bf84      	itt	hi
   8:	20f2      	movhi	r0, #242	; 0xf2
/Users/Luppy/.cargo/registry/src/github.com-1ecc6299db9ec823/cortex-m-0.6.0/src/peripheral/scb.rs:251
            #[cfg(not(armv6m))]
            Exception::DebugMonitor => -4,
            Exception::PendSV => -2,
            Exception::SysTick => -1,
        }
    }
   a:	4770      	bxhi	lr
   c:	e8df f000 	tbb	[pc, r0]
  10:	0a080604 	.word	0x0a080604
  14:	12100e0c 	.word	0x12100e0c
  18:	20f3      	movs	r0, #243	; 0xf3
  1a:	4770      	bx	lr
  1c:	20f4      	movs	r0, #244	; 0xf4
  1e:	4770      	bx	lr
  20:	20f5      	movs	r0, #245	; 0xf5
  22:	4770      	bx	lr
  24:	20f6      	movs	r0, #246	; 0xf6
  26:	4770      	bx	lr
  28:	20fb      	movs	r0, #251	; 0xfb
  2a:	4770      	bx	lr
  2c:	20fc      	movs	r0, #252	; 0xfc
  2e:	4770      	bx	lr
  30:	20fe      	movs	r0, #254	; 0xfe
  32:	4770      	bx	lr
  34:	20ff      	movs	r0, #255	; 0xff
  36:	4770      	bx	lr

Disassembly of section .text._ZN8cortex_m10peripheral3scb10VectActive4from17h239dc07ce3e3af2cE:

00000000 <cortex_m::peripheral::scb::VectActive::from>:
_ZN8cortex_m10peripheral3scb10VectActive4from17h239dc07ce3e3af2cE():
/Users/Luppy/.cargo/registry/src/github.com-1ecc6299db9ec823/cortex-m-0.6.0/src/peripheral/scb.rs:272
    },
}

impl VectActive {
    /// Converts a `byte` into `VectActive`
    pub fn from(vect_active: u8) -> Option<Self> {
   0:	b2c2      	uxtb	r2, r0
/Users/Luppy/.cargo/registry/src/github.com-1ecc6299db9ec823/cortex-m-0.6.0/src/peripheral/scb.rs:274
        Some(match vect_active {
            0 => VectActive::ThreadMode,
   2:	2a0f      	cmp	r2, #15
   4:	d80c      	bhi.n	20 <cortex_m::peripheral::scb::VectActive::from+0x20>
   6:	e8df f002 	tbb	[pc, r2]
   a:	0b12      	.short	0x0b12
   c:	19161308 	.word	0x19161308
  10:	0b0b0b1c 	.word	0x0b0b0b1c
  14:	0b221f0b 	.word	0x0b221f0b
  18:	2825      	.short	0x2825
  1a:	2001      	movs	r0, #1
  1c:	2100      	movs	r1, #0
/Users/Luppy/.cargo/registry/src/github.com-1ecc6299db9ec823/cortex-m-0.6.0/src/peripheral/scb.rs:293
            14 => VectActive::Exception(Exception::PendSV),
            15 => VectActive::Exception(Exception::SysTick),
            irqn if irqn >= 16 => VectActive::Interrupt { irqn },
            _ => return None,
        })
    }
  1e:	4770      	bx	lr
/Users/Luppy/.cargo/registry/src/github.com-1ecc6299db9ec823/cortex-m-0.6.0/src/peripheral/scb.rs:290
            irqn if irqn >= 16 => VectActive::Interrupt { irqn },
  20:	2a0f      	cmp	r2, #15
  22:	bf82      	ittt	hi
  24:	4601      	movhi	r1, r0
  26:	2002      	movhi	r0, #2
/Users/Luppy/.cargo/registry/src/github.com-1ecc6299db9ec823/cortex-m-0.6.0/src/peripheral/scb.rs:293
    }
  28:	4770      	bxhi	lr
  2a:	2100      	movs	r1, #0
  2c:	2003      	movs	r0, #3
  2e:	4770      	bx	lr
  30:	2101      	movs	r1, #1
  32:	2001      	movs	r0, #1
  34:	4770      	bx	lr
  36:	2001      	movs	r0, #1
  38:	2102      	movs	r1, #2
  3a:	4770      	bx	lr
  3c:	2001      	movs	r0, #1
  3e:	2103      	movs	r1, #3
  40:	4770      	bx	lr
  42:	2001      	movs	r0, #1
  44:	2104      	movs	r1, #4
  46:	4770      	bx	lr
  48:	2001      	movs	r0, #1
  4a:	2105      	movs	r1, #5
  4c:	4770      	bx	lr
  4e:	2001      	movs	r0, #1
  50:	2106      	movs	r1, #6
  52:	4770      	bx	lr
  54:	2001      	movs	r0, #1
  56:	2107      	movs	r1, #7
  58:	4770      	bx	lr
  5a:	2001      	movs	r0, #1
  5c:	2108      	movs	r1, #8
  5e:	4770      	bx	lr

Disassembly of section .text._ZN8cortex_m10peripheral3scb43_$LT$impl$u20$cortex_m..peripheral..SCB$GT$13set_sleepdeep17ha5e8a57d669133feE:

00000000 <cortex_m::peripheral::scb::<impl cortex_m::peripheral::SCB>::set_sleepdeep>:
_ZN8cortex_m10peripheral3scb43_$LT$impl$u20$cortex_m..peripheral..SCB$GT$13set_sleepdeep17ha5e8a57d669133feE():
/Users/Luppy/.cargo/registry/src/github.com-1ecc6299db9ec823/cortex-m-0.6.0/src/peripheral/scb.rs:585

const SCB_SCR_SLEEPDEEP: u32 = 0x1 << 2;

impl SCB {
    /// Set the SLEEPDEEP bit in the SCR register
    pub fn set_sleepdeep(&mut self) {
   0:	f64e 5010 	movw	r0, #60688	; 0xed10
   4:	f2ce 0000 	movt	r0, #57344	; 0xe000
_ZN4core3ptr13read_volatile17h92e63e8c8f835ddbE():
/rustc/50a0defd5a93523067ef239936cc2e0755220904/src/libcore/ptr.rs:871
   8:	6801      	ldr	r1, [r0, #0]
_ZN8cortex_m10peripheral3scb43_$LT$impl$u20$cortex_m..peripheral..SCB$GT$13set_sleepdeep28_$u7b$$u7b$closure$u7d$$u7d$17ha1d03209ca407ae0E():
/Users/Luppy/.cargo/registry/src/github.com-1ecc6299db9ec823/cortex-m-0.6.0/src/peripheral/scb.rs:587
        unsafe {
            self.scr.modify(|scr| scr | SCB_SCR_SLEEPDEEP);
   a:	f041 0104 	orr.w	r1, r1, #4
_ZN4core3ptr14write_volatile17h805cf84299217b43E():
/rustc/50a0defd5a93523067ef239936cc2e0755220904/src/libcore/ptr.rs:939
   e:	6001      	str	r1, [r0, #0]
_ZN8cortex_m10peripheral3scb43_$LT$impl$u20$cortex_m..peripheral..SCB$GT$13set_sleepdeep17ha5e8a57d669133feE():
/Users/Luppy/.cargo/registry/src/github.com-1ecc6299db9ec823/cortex-m-0.6.0/src/peripheral/scb.rs:589
        }
    }
  10:	4770      	bx	lr

Disassembly of section .text._ZN8cortex_m10peripheral3scb43_$LT$impl$u20$cortex_m..peripheral..SCB$GT$15clear_sleepdeep17haeaf3c4b463d2e9bE:

00000000 <cortex_m::peripheral::scb::<impl cortex_m::peripheral::SCB>::clear_sleepdeep>:
_ZN8cortex_m10peripheral3scb43_$LT$impl$u20$cortex_m..peripheral..SCB$GT$15clear_sleepdeep17haeaf3c4b463d2e9bE():
/Users/Luppy/.cargo/registry/src/github.com-1ecc6299db9ec823/cortex-m-0.6.0/src/peripheral/scb.rs:592

    /// Clear the SLEEPDEEP bit in the SCR register
    pub fn clear_sleepdeep(&mut self) {
   0:	f64e 5010 	movw	r0, #60688	; 0xed10
   4:	f2ce 0000 	movt	r0, #57344	; 0xe000
_ZN4core3ptr13read_volatile17h92e63e8c8f835ddbE():
/rustc/50a0defd5a93523067ef239936cc2e0755220904/src/libcore/ptr.rs:871
   8:	6801      	ldr	r1, [r0, #0]
_ZN8cortex_m10peripheral3scb43_$LT$impl$u20$cortex_m..peripheral..SCB$GT$15clear_sleepdeep28_$u7b$$u7b$closure$u7d$$u7d$17h945c35410ece4cf3E():
/Users/Luppy/.cargo/registry/src/github.com-1ecc6299db9ec823/cortex-m-0.6.0/src/peripheral/scb.rs:594
        unsafe {
            self.scr.modify(|scr| scr & !SCB_SCR_SLEEPDEEP);
   a:	f021 0104 	bic.w	r1, r1, #4
_ZN4core3ptr14write_volatile17h805cf84299217b43E():
/rustc/50a0defd5a93523067ef239936cc2e0755220904/src/libcore/ptr.rs:939
   e:	6001      	str	r1, [r0, #0]
_ZN8cortex_m10peripheral3scb43_$LT$impl$u20$cortex_m..peripheral..SCB$GT$15clear_sleepdeep17haeaf3c4b463d2e9bE():
/Users/Luppy/.cargo/registry/src/github.com-1ecc6299db9ec823/cortex-m-0.6.0/src/peripheral/scb.rs:596
        }
    }
  10:	4770      	bx	lr

Disassembly of section .text._ZN8cortex_m10peripheral3scb43_$LT$impl$u20$cortex_m..peripheral..SCB$GT$15set_sleeponexit17he4ee4906044a2eb9E:

00000000 <cortex_m::peripheral::scb::<impl cortex_m::peripheral::SCB>::set_sleeponexit>:
_ZN8cortex_m10peripheral3scb43_$LT$impl$u20$cortex_m..peripheral..SCB$GT$15set_sleeponexit17he4ee4906044a2eb9E():
/Users/Luppy/.cargo/registry/src/github.com-1ecc6299db9ec823/cortex-m-0.6.0/src/peripheral/scb.rs:603

const SCB_SCR_SLEEPONEXIT: u32 = 0x1 << 1;

impl SCB {
    /// Set the SLEEPONEXIT bit in the SCR register
    pub fn set_sleeponexit(&mut self) {
   0:	f64e 5010 	movw	r0, #60688	; 0xed10
   4:	f2ce 0000 	movt	r0, #57344	; 0xe000
_ZN4core3ptr13read_volatile17h92e63e8c8f835ddbE():
/rustc/50a0defd5a93523067ef239936cc2e0755220904/src/libcore/ptr.rs:871
   8:	6801      	ldr	r1, [r0, #0]
_ZN8cortex_m10peripheral3scb43_$LT$impl$u20$cortex_m..peripheral..SCB$GT$15set_sleeponexit28_$u7b$$u7b$closure$u7d$$u7d$17he6ff2e3f70b5d78cE():
/Users/Luppy/.cargo/registry/src/github.com-1ecc6299db9ec823/cortex-m-0.6.0/src/peripheral/scb.rs:605
        unsafe {
