In archive rustlib.a:

cstr_core-002f35632daba805.cstr_core.4br1pvmw-cgu.0.rcgu.o:     file format elf32-littlearm

SYMBOL TABLE:
00000000 l    df *ABS*	00000000 cstr_core.4br1pvmw-cgu.0
00000b1e l       .debug_str	00000000 
000009c7 l       .debug_str	00000000 
00000a2a l       .debug_str	00000000 
00000a91 l       .debug_str	00000000 
00000a96 l       .debug_str	00000000 
00000abd l       .debug_str	00000000 
00000abf l       .debug_str	00000000 
00000ac5 l       .debug_str	00000000 
00000aca l       .debug_str	00000000 
00000acf l       .debug_str	00000000 
00000ad5 l       .debug_str	00000000 
00000adb l       .debug_str	00000000 
00000ae9 l       .debug_str	00000000 
00000af3 l       .debug_str	00000000 
00000af7 l       .debug_str	00000000 
00000aff l       .debug_str	00000000 
00000b07 l       .debug_str	00000000 
00000b13 l       .debug_str	00000000 
00000b25 l       .debug_str	00000000 
00000b2b l       .debug_str	00000000 
00000b2f l       .debug_str	00000000 
00000b35 l       .debug_str	00000000 
00000b3b l       .debug_str	00000000 
00000b3e l       .debug_str	00000000 
00000b4d l       .debug_str	00000000 
00000b54 l       .debug_str	00000000 
00000b60 l       .debug_str	00000000 
00000b79 l       .debug_str	00000000 
00000b7e l       .debug_str	00000000 
00000b8f l       .debug_str	00000000 
00000b99 l       .debug_str	00000000 
00000bf7 l       .debug_str	00000000 
00000c02 l       .debug_str	00000000 
00000c1f l       .debug_str	00000000 
00000c27 l       .debug_str	00000000 
00000c3e l       .debug_str	00000000 
00000c62 l       .debug_str	00000000 
00000c7e l       .debug_str	00000000 
00000c83 l       .debug_str	00000000 
00000c9c l       .debug_str	00000000 
00000ca6 l       .debug_str	00000000 
00000cc0 l       .debug_str	00000000 
00000ccd l       .debug_str	00000000 
00000ccf l       .debug_str	00000000 
00000cd1 l       .debug_str	00000000 
00000cd5 l       .debug_str	00000000 
00000cd9 l       .debug_str	00000000 
00000cdf l       .debug_str	00000000 
00000ce4 l       .debug_str	00000000 
00000ced l       .debug_str	00000000 
00000cf5 l       .debug_str	00000000 
00000d06 l       .debug_str	00000000 
00000d0f l       .debug_str	00000000 
00000d11 l       .debug_str	00000000 
00000d35 l       .debug_str	00000000 
00000d3f l       .debug_str	00000000 
00000d67 l       .debug_str	00000000 
00000d70 l       .debug_str	00000000 
00000d72 l       .debug_str	00000000 
00000ddc l       .debug_str	00000000 
00000e25 l       .debug_str	00000000 
00000e2c l       .debug_str	00000000 
00000e30 l       .debug_str	00000000 
00000e35 l       .debug_str	00000000 
00000e37 l       .debug_str	00000000 
00000e59 l       .debug_str	00000000 
00000e5e l       .debug_str	00000000 
00000e62 l       .debug_str	00000000 
00000e68 l       .debug_str	00000000 
00000e70 l       .debug_str	00000000 
00000e76 l       .debug_str	00000000 
00000e81 l       .debug_str	00000000 
00000e95 l       .debug_str	00000000 
00000e9e l       .debug_str	00000000 
00000ea9 l       .debug_str	00000000 
00000eb5 l       .debug_str	00000000 
00000ebe l       .debug_str	00000000 
00000ec5 l       .debug_str	00000000 
00000ed0 l       .debug_str	00000000 
00000000 l       .debug_str	00000000 
00000041 l       .debug_str	00000000 
00000099 l       .debug_str	00000000 
000000e6 l       .debug_str	00000000 
000000ed l       .debug_str	00000000 
000000f7 l       .debug_str	00000000 
000000fb l       .debug_str	00000000 
00000107 l       .debug_str	00000000 
0000010b l       .debug_str	00000000 
00000111 l       .debug_str	00000000 
00000122 l       .debug_str	00000000 
0000013c l       .debug_str	00000000 
00000162 l       .debug_str	00000000 
00000169 l       .debug_str	00000000 
0000016e l       .debug_str	00000000 
00000175 l       .debug_str	00000000 
00000178 l       .debug_str	00000000 
0000017b l       .debug_str	00000000 
0000017f l       .debug_str	00000000 
00000186 l       .debug_str	00000000 
0000018a l       .debug_str	00000000 
0000018d l       .debug_str	00000000 
00000190 l       .debug_str	00000000 
00000195 l       .debug_str	00000000 
0000019b l       .debug_str	00000000 
000001a2 l       .debug_str	00000000 
000001aa l       .debug_str	00000000 
000001b4 l       .debug_str	00000000 
000001b8 l       .debug_str	00000000 
000001bb l       .debug_str	00000000 
000001c0 l       .debug_str	00000000 
000001c6 l       .debug_str	00000000 
000001ce l       .debug_str	00000000 
000001d7 l       .debug_str	00000000 
000001e0 l       .debug_str	00000000 
000001e4 l       .debug_str	00000000 
000001ed l       .debug_str	00000000 
000001f3 l       .debug_str	00000000 
000001f8 l       .debug_str	00000000 
0000020e l       .debug_str	00000000 
00000214 l       .debug_str	00000000 
00000228 l       .debug_str	00000000 
0000022d l       .debug_str	00000000 
0000022f l       .debug_str	00000000 
00000277 l       .debug_str	00000000 
000002a1 l       .debug_str	00000000 
000002a5 l       .debug_str	00000000 
000002ab l       .debug_str	00000000 
000002ad l       .debug_str	00000000 
000002b5 l       .debug_str	00000000 
000002b7 l       .debug_str	00000000 
00000343 l       .debug_str	00000000 
0000035c l       .debug_str	00000000 
00000362 l       .debug_str	00000000 
00000368 l       .debug_str	00000000 
0000036e l       .debug_str	00000000 
00000372 l       .debug_str	00000000 
00000376 l       .debug_str	00000000 
00000383 l       .debug_str	00000000 
00000388 l       .debug_str	00000000 
00000396 l       .debug_str	00000000 
000003bf l       .debug_str	00000000 
000003c6 l       .debug_str	00000000 
0000040d l       .debug_str	00000000 
0000041a l       .debug_str	00000000 
00000467 l       .debug_str	00000000 
0000047a l       .debug_str	00000000 
000004cc l       .debug_str	00000000 
0000053c l       .debug_str	00000000 
00000548 l       .debug_str	00000000 
000005a8 l       .debug_str	00000000 
000005b0 l       .debug_str	00000000 
000005c1 l       .debug_str	00000000 
00000626 l       .debug_str	00000000 
00000656 l       .debug_str	00000000 
0000065f l       .debug_str	00000000 
0000069b l       .debug_str	00000000 
000006af l       .debug_str	00000000 
000006b1 l       .debug_str	00000000 
000006ec l       .debug_str	00000000 
00000732 l       .debug_str	00000000 
00000750 l       .debug_str	00000000 
00000780 l       .debug_str	00000000 
00000789 l       .debug_str	00000000 
00000792 l       .debug_str	00000000 
0000079c l       .debug_str	00000000 
000007a3 l       .debug_str	00000000 
000007a9 l       .debug_str	00000000 
000007e3 l       .debug_str	00000000 
000007f5 l       .debug_str	00000000 
00000823 l       .debug_str	00000000 
0000082a l       .debug_str	00000000 
0000082f l       .debug_str	00000000 
00000833 l       .debug_str	00000000 
0000083f l       .debug_str	00000000 
00000849 l       .debug_str	00000000 
00000850 l       .debug_str	00000000 
00000855 l       .debug_str	00000000 
0000085a l       .debug_str	00000000 
00000865 l       .debug_str	00000000 
0000086f l       .debug_str	00000000 
00000892 l       .debug_str	00000000 
000008e7 l       .debug_str	00000000 
000008ea l       .debug_str	00000000 
000008ef l       .debug_str	00000000 
0000094f l       .debug_str	00000000 
0000095b l       .debug_str	00000000 
00000977 l       .debug_str	00000000 
00000000 l     O .rodata..Lanon.22f2e39f4b6fedff1d05711ea8193b98.0	00000018 .Lanon.22f2e39f4b6fedff1d05711ea8193b98.0
00000000 l     O .rodata..Lanon.22f2e39f4b6fedff1d05711ea8193b98.10	00000018 .Lanon.22f2e39f4b6fedff1d05711ea8193b98.10
00000000 l     O .rodata..Lanon.22f2e39f4b6fedff1d05711ea8193b98.11	00000018 .Lanon.22f2e39f4b6fedff1d05711ea8193b98.11
00000000 l     O .rodata..Lanon.22f2e39f4b6fedff1d05711ea8193b98.12	00000015 .Lanon.22f2e39f4b6fedff1d05711ea8193b98.12
00000000 l     O .rodata.cst4	00000004 .Lanon.22f2e39f4b6fedff1d05711ea8193b98.13
00000000 l     O .rodata..Lanon.22f2e39f4b6fedff1d05711ea8193b98.14	00000010 .Lanon.22f2e39f4b6fedff1d05711ea8193b98.14
00000000 l     O .rodata.cst16	00000010 .Lanon.22f2e39f4b6fedff1d05711ea8193b98.15
00000000 l     O .rodata..Lanon.22f2e39f4b6fedff1d05711ea8193b98.16	0000000b .Lanon.22f2e39f4b6fedff1d05711ea8193b98.16
00000000 l     O .rodata..Lanon.22f2e39f4b6fedff1d05711ea8193b98.17	00000010 .Lanon.22f2e39f4b6fedff1d05711ea8193b98.17
00000000 l     O .rodata..Lanon.22f2e39f4b6fedff1d05711ea8193b98.2	00000008 .Lanon.22f2e39f4b6fedff1d05711ea8193b98.2
00000000 l     O .rodata..Lanon.22f2e39f4b6fedff1d05711ea8193b98.3	00000000 .Lanon.22f2e39f4b6fedff1d05711ea8193b98.3
00000000 l     O .rodata..Lanon.22f2e39f4b6fedff1d05711ea8193b98.4	00000001 .Lanon.22f2e39f4b6fedff1d05711ea8193b98.4
00000000 l     O .rodata..Lanon.22f2e39f4b6fedff1d05711ea8193b98.5	00000023 .Lanon.22f2e39f4b6fedff1d05711ea8193b98.5
00000000 l     O .rodata..Lanon.22f2e39f4b6fedff1d05711ea8193b98.6	0000002b .Lanon.22f2e39f4b6fedff1d05711ea8193b98.6
00000000 l     O .rodata..Lanon.22f2e39f4b6fedff1d05711ea8193b98.8	00000008 .Lanon.22f2e39f4b6fedff1d05711ea8193b98.8
00000000 l     O .rodata..Lanon.22f2e39f4b6fedff1d05711ea8193b98.9	00000018 .Lanon.22f2e39f4b6fedff1d05711ea8193b98.9
00000000 l     F .text._ZN52_$LT$cstr_core..CStr$u20$as$u20$core..fmt..Debug$GT$3fmt28_$u7b$$u7b$closure$u7d$$u7d$17h4b9200b676895849E	0000002e _ZN52_$LT$cstr_core..CStr$u20$as$u20$core..fmt..Debug$GT$3fmt28_$u7b$$u7b$closure$u7d$$u7d$17h4b9200b676895849E
00000000 l     F .text._ZN9cstr_core21FromBytesWithNulError12interior_nul17hf08eda8952f12a30E	00000022 _ZN9cstr_core21FromBytesWithNulError12interior_nul17hf08eda8952f12a30E
00000000 l     F .text._ZN9cstr_core21FromBytesWithNulError18not_nul_terminated17h2c8de0b1805f9ba8E	00000016 _ZN9cstr_core21FromBytesWithNulError18not_nul_terminated17h2c8de0b1805f9ba8E
00000000 l     F .text._ZN9cstr_core4CStr17to_bytes_with_nul17h4ab80d76fa999e26E	00000016 _ZN9cstr_core4CStr17to_bytes_with_nul17h4ab80d76fa999e26E
00000000 l     F .text._ZN9cstr_core4CStr29from_bytes_with_nul_unchecked17h548a02652c0eaf7dE	00000016 _ZN9cstr_core4CStr29from_bytes_with_nul_unchecked17h548a02652c0eaf7dE
00000000 l     F .text._ZN9cstr_core4CStr8to_bytes17ha8e1434805790b77E	00000064 _ZN9cstr_core4CStr8to_bytes17ha8e1434805790b77E
00000000 l     F .text._ZN9cstr_core6strlen17h68dcf3f613f90af3E	0000004e _ZN9cstr_core6strlen17h68dcf3f613f90af3E
00000000 l     O .rodata.str.0	00000057 str.0
00000000 l     O .rodata.str.1	0000001c str.1
00000000 l     O .rodata.str.2	00000021 str.2
00000000 l    d  .text._ZN42_$LT$$RF$T$u20$as$u20$core..fmt..Debug$GT$3fmt17h62fef3104a93ace1E	00000000 .text._ZN42_$LT$$RF$T$u20$as$u20$core..fmt..Debug$GT$3fmt17h62fef3104a93ace1E
00000000 l    d  .text._ZN4core3ops8function5impls80_$LT$impl$u20$core..ops..function..FnOnce$LT$A$GT$$u20$for$u20$$RF$mut$u20$F$GT$9call_once17h1c918178b5a6e8d8E	00000000 .text._ZN4core3ops8function5impls80_$LT$impl$u20$core..ops..function..FnOnce$LT$A$GT$$u20$for$u20$$RF$mut$u20$F$GT$9call_once17h1c918178b5a6e8d8E
00000000 l    d  .text._ZN9cstr_core6strlen17h68dcf3f613f90af3E	00000000 .text._ZN9cstr_core6strlen17h68dcf3f613f90af3E
00000000 l    d  .text._ZN9cstr_core21FromBytesWithNulError12interior_nul17hf08eda8952f12a30E	00000000 .text._ZN9cstr_core21FromBytesWithNulError12interior_nul17hf08eda8952f12a30E
00000000 l    d  .text._ZN9cstr_core21FromBytesWithNulError18not_nul_terminated17h2c8de0b1805f9ba8E	00000000 .text._ZN9cstr_core21FromBytesWithNulError18not_nul_terminated17h2c8de0b1805f9ba8E
00000000 l    d  .text._ZN52_$LT$cstr_core..CStr$u20$as$u20$core..fmt..Debug$GT$3fmt17hcb7547f377794dd3E	00000000 .text._ZN52_$LT$cstr_core..CStr$u20$as$u20$core..fmt..Debug$GT$3fmt17hcb7547f377794dd3E
00000000 l    d  .text._ZN52_$LT$cstr_core..CStr$u20$as$u20$core..fmt..Debug$GT$3fmt28_$u7b$$u7b$closure$u7d$$u7d$17h4b9200b676895849E	00000000 .text._ZN52_$LT$cstr_core..CStr$u20$as$u20$core..fmt..Debug$GT$3fmt28_$u7b$$u7b$closure$u7d$$u7d$17h4b9200b676895849E
00000000 l    d  .text._ZN62_$LT$$RF$cstr_core..CStr$u20$as$u20$core..default..Default$GT$7default17h6daf647f98bcd204E	00000000 .text._ZN62_$LT$$RF$cstr_core..CStr$u20$as$u20$core..default..Default$GT$7default17h6daf647f98bcd204E
00000000 l    d  .text._ZN71_$LT$cstr_core..FromBytesWithNulError$u20$as$u20$core..fmt..Display$GT$3fmt17h8e3a88106d8b9be2E	00000000 .text._ZN71_$LT$cstr_core..FromBytesWithNulError$u20$as$u20$core..fmt..Display$GT$3fmt17h8e3a88106d8b9be2E
00000000 l    d  .text._ZN9cstr_core4CStr8from_ptr17ha5d4992c233d069bE	00000000 .text._ZN9cstr_core4CStr8from_ptr17ha5d4992c233d069bE
00000000 l    d  .text._ZN9cstr_core4CStr19from_bytes_with_nul17h7d4b1272f9f27478E	00000000 .text._ZN9cstr_core4CStr19from_bytes_with_nul17h7d4b1272f9f27478E
00000000 l    d  .text._ZN9cstr_core4CStr29from_bytes_with_nul_unchecked17h548a02652c0eaf7dE	00000000 .text._ZN9cstr_core4CStr29from_bytes_with_nul_unchecked17h548a02652c0eaf7dE
00000000 l    d  .text._ZN9cstr_core4CStr8to_bytes17ha8e1434805790b77E	00000000 .text._ZN9cstr_core4CStr8to_bytes17ha8e1434805790b77E
00000000 l    d  .text._ZN9cstr_core4CStr17to_bytes_with_nul17h4ab80d76fa999e26E	00000000 .text._ZN9cstr_core4CStr17to_bytes_with_nul17h4ab80d76fa999e26E
00000000 l    d  .text._ZN9cstr_core4CStr6to_str17hf4495ee47611f0b8E	00000000 .text._ZN9cstr_core4CStr6to_str17hf4495ee47611f0b8E
00000000 l    d  .text._ZN56_$LT$cstr_core..CStr$u20$as$u20$core..cmp..PartialEq$GT$2eq17h38086540918fdae5E	00000000 .text._ZN56_$LT$cstr_core..CStr$u20$as$u20$core..cmp..PartialEq$GT$2eq17h38086540918fdae5E
00000000 l    d  .text._ZN57_$LT$cstr_core..CStr$u20$as$u20$core..cmp..PartialOrd$GT$11partial_cmp17h01c77043b42fb9d5E	00000000 .text._ZN57_$LT$cstr_core..CStr$u20$as$u20$core..cmp..PartialOrd$GT$11partial_cmp17h01c77043b42fb9d5E
00000000 l    d  .text._ZN50_$LT$cstr_core..CStr$u20$as$u20$core..cmp..Ord$GT$3cmp17hf8d2c8e5631bcd86E	00000000 .text._ZN50_$LT$cstr_core..CStr$u20$as$u20$core..cmp..Ord$GT$3cmp17hf8d2c8e5631bcd86E
00000000 l    d  .text._ZN69_$LT$cstr_core..FromBytesWithNulError$u20$as$u20$core..fmt..Debug$GT$3fmt17hbdb2b74657df673cE	00000000 .text._ZN69_$LT$cstr_core..FromBytesWithNulError$u20$as$u20$core..fmt..Debug$GT$3fmt17hbdb2b74657df673cE
00000000 l    d  .text._ZN73_$LT$cstr_core..FromBytesWithNulErrorKind$u20$as$u20$core..fmt..Debug$GT$3fmt17h1c1622a841bc7d3aE	00000000 .text._ZN73_$LT$cstr_core..FromBytesWithNulErrorKind$u20$as$u20$core..fmt..Debug$GT$3fmt17h1c1622a841bc7d3aE
00000000 l    d  .rodata.str.0	00000000 .rodata.str.0
00000000 l    d  .rodata.str.1	00000000 .rodata.str.1
00000000 l    d  .rodata..Lanon.22f2e39f4b6fedff1d05711ea8193b98.1	00000000 .rodata..Lanon.22f2e39f4b6fedff1d05711ea8193b98.1
00000000 l    d  .rodata..Lanon.22f2e39f4b6fedff1d05711ea8193b98.7	00000000 .rodata..Lanon.22f2e39f4b6fedff1d05711ea8193b98.7
00000000 l    d  .rodata.str.2	00000000 .rodata.str.2
00000000 l    d  .rodata..Lanon.22f2e39f4b6fedff1d05711ea8193b98.14	00000000 .rodata..Lanon.22f2e39f4b6fedff1d05711ea8193b98.14
00000000 l    d  .rodata..Lanon.22f2e39f4b6fedff1d05711ea8193b98.17	00000000 .rodata..Lanon.22f2e39f4b6fedff1d05711ea8193b98.17
00000000 l    d  .debug_abbrev	00000000 .debug_abbrev
00000000 l    d  .debug_info	00000000 .debug_info
00000000 l    d  .debug_ranges	00000000 .debug_ranges
00000000 l    d  .debug_frame	00000000 .debug_frame
00000000 l    d  .debug_line	00000000 .debug_line
00000000         *UND*	00000000 _ZN114_$LT$core..iter..adapters..flatten..FlatMap$LT$I$C$U$C$F$GT$$u20$as$u20$core..iter..traits..iterator..Iterator$GT$4next17h63f09418751ec355E
00000000 g     F .text._ZN42_$LT$$RF$T$u20$as$u20$core..fmt..Debug$GT$3fmt17h62fef3104a93ace1E	00000028 _ZN42_$LT$$RF$T$u20$as$u20$core..fmt..Debug$GT$3fmt17h62fef3104a93ace1E
00000000         *UND*	00000000 _ZN42_$LT$$RF$T$u20$as$u20$core..fmt..Debug$GT$3fmt17he0662d6d576dbc21E
00000000         *UND*	00000000 _ZN4core3fmt10ArgumentV13new17h5d01f94c3a4e1f88E
00000000         *UND*	00000000 _ZN4core3fmt3num3imp54_$LT$impl$u20$core..fmt..Display$u20$for$u20$usize$GT$3fmt17h7160b6abac7a3a12E
00000000         *UND*	00000000 _ZN4core3fmt8builders10DebugTuple5field17h7da5ac79cde13c49E
00000000         *UND*	00000000 _ZN4core3fmt8builders10DebugTuple6finish17h24d91625b3672e6dE
00000000         *UND*	00000000 _ZN4core3fmt8builders11DebugStruct5field17h80023aaf54882542E
00000000         *UND*	00000000 _ZN4core3fmt8builders11DebugStruct6finish17h9090cd1e84004b71E
00000000         *UND*	00000000 .hidden _ZN4core3fmt9Arguments6new_v117h11374ddc397f6375E
00000000         *UND*	00000000 _ZN4core3fmt9Formatter11debug_tuple17h793087e8ecab9022E
00000000         *UND*	00000000 _ZN4core3fmt9Formatter12debug_struct17h0a14031b095ee1baE
00000000         *UND*	00000000 _ZN4core3fmt9Formatter9write_fmt17h5196b6ebbbf1f100E
00000000         *UND*	00000000 _ZN4core3fmt9Formatter9write_str17hc5ae27b32f81ec5eE
00000000 g     F .text._ZN4core3ops8function5impls80_$LT$impl$u20$core..ops..function..FnOnce$LT$A$GT$$u20$for$u20$$RF$mut$u20$F$GT$9call_once17h1c918178b5a6e8d8E	00000026 _ZN4core3ops8function5impls80_$LT$impl$u20$core..ops..function..FnOnce$LT$A$GT$$u20$for$u20$$RF$mut$u20$F$GT$9call_once17h1c918178b5a6e8d8E
00000000         *UND*	00000000 _ZN4core3ptr18real_drop_in_place17hb485aa4705f5cf8eE
00000000         *UND*	00000000 _ZN4core3ptr18real_drop_in_place17he0f61884cb8f035bE
00000000         *UND*	00000000 _ZN4core3ptr18real_drop_in_place17he476cadd166b370cE
00000000         *UND*	00000000 _ZN4core3ptr33_$LT$impl$u20$$BP$const$u20$T$GT$6offset17h1b1bd4fc0c06f6a7E
00000000         *UND*	00000000 _ZN4core3str9from_utf817hd7172c09534810eaE
00000000         *UND*	00000000 _ZN4core4iter6traits8iterator8Iterator8flat_map17h7a91fd5a91b266edE
00000000         *UND*	00000000 _ZN4core5slice14from_raw_parts17h43814f7b9fdef66aE
00000000         *UND*	00000000 _ZN4core5slice29_$LT$impl$u20$$u5b$T$u5d$$GT$3len17h63f985867d9f263fE
00000000         *UND*	00000000 _ZN4core5slice29_$LT$impl$u20$$u5b$T$u5d$$GT$4iter17h9dfc354656166554E
00000000         *UND*	00000000 _ZN4core5slice29_$LT$impl$u20$$u5b$T$u5d$$GT$6as_ptr17hd0263209417be61aE
00000000         *UND*	00000000 _ZN4core5slice56_$LT$impl$u20$core..cmp..Ord$u20$for$u20$$u5b$T$u5d$$GT$3cmp17h5677eb130bb1f03dE
00000000         *UND*	00000000 _ZN4core5slice63_$LT$impl$u20$core..cmp..PartialOrd$u20$for$u20$$u5b$T$u5d$$GT$11partial_cmp17hba9501e00aaedbdcE
00000000         *UND*	00000000 _ZN4core5slice74_$LT$impl$u20$core..ops..index..Index$LT$I$GT$$u20$for$u20$$u5b$T$u5d$$GT$5index17h0593a8c433e1e3beE
00000000         *UND*	00000000 _ZN4core5slice81_$LT$impl$u20$core..cmp..PartialEq$LT$$u5b$B$u5d$$GT$$u20$for$u20$$u5b$A$u5d$$GT$2eq17hc091c42e680bb162E
00000000         *UND*	00000000 _ZN4core9panicking5panic17h53ca63c6ac6312f8E
00000000         *UND*	00000000 _ZN50_$LT$T$u20$as$u20$core..convert..From$LT$T$GT$$GT$4from17h9357a2148a3146cdE
00000000 g     F .text._ZN50_$LT$cstr_core..CStr$u20$as$u20$core..cmp..Ord$GT$3cmp17hf8d2c8e5631bcd86E	00000052 _ZN50_$LT$cstr_core..CStr$u20$as$u20$core..cmp..Ord$GT$3cmp17hf8d2c8e5631bcd86E
00000000 g     F .text._ZN52_$LT$cstr_core..CStr$u20$as$u20$core..fmt..Debug$GT$3fmt17hcb7547f377794dd3E	000001b0 _ZN52_$LT$cstr_core..CStr$u20$as$u20$core..fmt..Debug$GT$3fmt17hcb7547f377794dd3E
00000000 g     F .text._ZN56_$LT$cstr_core..CStr$u20$as$u20$core..cmp..PartialEq$GT$2eq17h38086540918fdae5E	00000056 _ZN56_$LT$cstr_core..CStr$u20$as$u20$core..cmp..PartialEq$GT$2eq17h38086540918fdae5E
00000000         *UND*	00000000 _ZN57_$LT$core..fmt..Formatter$u20$as$u20$core..fmt..Write$GT$10write_char17hf153f08ea9d8f018E
00000000 g     F .text._ZN57_$LT$cstr_core..CStr$u20$as$u20$core..cmp..PartialOrd$GT$11partial_cmp17h01c77043b42fb9d5E	00000052 _ZN57_$LT$cstr_core..CStr$u20$as$u20$core..cmp..PartialOrd$GT$11partial_cmp17h01c77043b42fb9d5E
00000000 g     F .text._ZN62_$LT$$RF$cstr_core..CStr$u20$as$u20$core..default..Default$GT$7default17h6daf647f98bcd204E	0000002a _ZN62_$LT$$RF$cstr_core..CStr$u20$as$u20$core..default..Default$GT$7default17h6daf647f98bcd204E
00000000         *UND*	00000000 _ZN63_$LT$I$u20$as$u20$core..iter..traits..collect..IntoIterator$GT$9into_iter17h4cd02ec9a3789ba9E
00000000 g     F .text._ZN69_$LT$cstr_core..FromBytesWithNulError$u20$as$u20$core..fmt..Debug$GT$3fmt17hbdb2b74657df673cE	00000072 _ZN69_$LT$cstr_core..FromBytesWithNulError$u20$as$u20$core..fmt..Debug$GT$3fmt17hbdb2b74657df673cE
00000000         *UND*	00000000 .hidden _ZN6memchr6memchr17hd4cfdd53cd31b2c5E
00000000 g     F .text._ZN71_$LT$cstr_core..FromBytesWithNulError$u20$as$u20$core..fmt..Display$GT$3fmt17h8e3a88106d8b9be2E	00000174 _ZN71_$LT$cstr_core..FromBytesWithNulError$u20$as$u20$core..fmt..Display$GT$3fmt17h8e3a88106d8b9be2E
00000000         *UND*	00000000 _ZN73_$LT$core..result..Result$LT$T$C$E$GT$$u20$as$u20$core..ops..try..Try$GT$10from_error17hda7520318724b6f1E
00000000         *UND*	00000000 _ZN73_$LT$core..result..Result$LT$T$C$E$GT$$u20$as$u20$core..ops..try..Try$GT$11into_result17ha43963255be17051E
00000000 g     F .text._ZN73_$LT$cstr_core..FromBytesWithNulErrorKind$u20$as$u20$core..fmt..Debug$GT$3fmt17h1c1622a841bc7d3aE	00000094 _ZN73_$LT$cstr_core..FromBytesWithNulErrorKind$u20$as$u20$core..fmt..Debug$GT$3fmt17h1c1622a841bc7d3aE
00000000 g     F .text._ZN9cstr_core4CStr19from_bytes_with_nul17h7d4b1272f9f27478E	000000c0 _ZN9cstr_core4CStr19from_bytes_with_nul17h7d4b1272f9f27478E
00000000 g     F .text._ZN9cstr_core4CStr6to_str17hf4495ee47611f0b8E	00000036 _ZN9cstr_core4CStr6to_str17hf4495ee47611f0b8E
00000000 g     F .text._ZN9cstr_core4CStr8from_ptr17ha5d4992c233d069bE	0000005c _ZN9cstr_core4CStr8from_ptr17ha5d4992c233d069bE
00000000         *UND*	00000000 .hidden _ZN9cstr_core5ascii14escape_default17h7cca55a9ec844d59E



Disassembly of section .text._ZN42_$LT$$RF$T$u20$as$u20$core..fmt..Debug$GT$3fmt17h62fef3104a93ace1E:

00000000 <_ZN42_$LT$$RF$T$u20$as$u20$core..fmt..Debug$GT$3fmt17h62fef3104a93ace1E>:
_ZN42_$LT$$RF$T$u20$as$u20$core..fmt..Debug$GT$3fmt17h62fef3104a93ace1E():
/rustc/50a0defd5a93523067ef239936cc2e0755220904/src/libcore/fmt/mod.rs:1914
   0:	b580      	push	{r7, lr}
   2:	b086      	sub	sp, #24
   4:	460a      	mov	r2, r1
   6:	4603      	mov	r3, r0
   8:	9004      	str	r0, [sp, #16]
   a:	9105      	str	r1, [sp, #20]
   c:	9804      	ldr	r0, [sp, #16]
   e:	6800      	ldr	r0, [r0, #0]
  10:	9905      	ldr	r1, [sp, #20]
  12:	9203      	str	r2, [sp, #12]
  14:	9302      	str	r3, [sp, #8]
  16:	f7ff fffe 	bl	0 <_ZN42_$LT$$RF$T$u20$as$u20$core..fmt..Debug$GT$3fmt17h62fef3104a93ace1E>
  1a:	9001      	str	r0, [sp, #4]
  1c:	e7ff      	b.n	1e <_ZN42_$LT$$RF$T$u20$as$u20$core..fmt..Debug$GT$3fmt17h62fef3104a93ace1E+0x1e>
  1e:	9801      	ldr	r0, [sp, #4]
  20:	f000 0001 	and.w	r0, r0, #1
  24:	b006      	add	sp, #24
  26:	bd80      	pop	{r7, pc}

Disassembly of section .text._ZN4core3ops8function5impls80_$LT$impl$u20$core..ops..function..FnOnce$LT$A$GT$$u20$for$u20$$RF$mut$u20$F$GT$9call_once17h1c918178b5a6e8d8E:

00000000 <_ZN4core3ops8function5impls80_$LT$impl$u20$core..ops..function..FnOnce$LT$A$GT$$u20$for$u20$$RF$mut$u20$F$GT$9call_once17h1c918178b5a6e8d8E>:
_ZN4core3ops8function5impls80_$LT$impl$u20$core..ops..function..FnOnce$LT$A$GT$$u20$for$u20$$RF$mut$u20$F$GT$9call_once17h1c918178b5a6e8d8E():
/rustc/50a0defd5a93523067ef239936cc2e0755220904/src/libcore/ops/function.rs:278
   0:	b580      	push	{r7, lr}
   2:	b086      	sub	sp, #24
   4:	4613      	mov	r3, r2
   6:	468c      	mov	ip, r1
   8:	4686      	mov	lr, r0
   a:	9104      	str	r1, [sp, #16]
   c:	9205      	str	r2, [sp, #20]
/rustc/50a0defd5a93523067ef239936cc2e0755220904/src/libcore/ops/function.rs:279
   e:	9904      	ldr	r1, [sp, #16]
  10:	9a05      	ldr	r2, [sp, #20]
  12:	9303      	str	r3, [sp, #12]
  14:	f8cd c008 	str.w	ip, [sp, #8]
  18:	f8cd e004 	str.w	lr, [sp, #4]
  1c:	f7ff fffe 	bl	0 <_ZN4core3ops8function5impls80_$LT$impl$u20$core..ops..function..FnOnce$LT$A$GT$$u20$for$u20$$RF$mut$u20$F$GT$9call_once17h1c918178b5a6e8d8E>
  20:	e7ff      	b.n	22 <_ZN4core3ops8function5impls80_$LT$impl$u20$core..ops..function..FnOnce$LT$A$GT$$u20$for$u20$$RF$mut$u20$F$GT$9call_once17h1c918178b5a6e8d8E+0x22>
/rustc/50a0defd5a93523067ef239936cc2e0755220904/src/libcore/ops/function.rs:280
  22:	b006      	add	sp, #24
  24:	bd80      	pop	{r7, pc}

Disassembly of section .text._ZN9cstr_core6strlen17h68dcf3f613f90af3E:

00000000 <_ZN9cstr_core6strlen17h68dcf3f613f90af3E>:
_ZN9cstr_core6strlen17h68dcf3f613f90af3E():
/Users/Luppy/.cargo/registry/src/github.com-1ecc6299db9ec823/cstr_core-0.1.2/src/lib.rs:47

/// Re-export c_char
pub use cty::c_char;

#[inline]
unsafe fn strlen(p: *const c_char) -> usize {
   0:	b580      	push	{r7, lr}
   2:	b086      	sub	sp, #24
   4:	4601      	mov	r1, r0
   6:	9004      	str	r0, [sp, #16]
   8:	2000      	movs	r0, #0
/Users/Luppy/.cargo/registry/src/github.com-1ecc6299db9ec823/cstr_core-0.1.2/src/lib.rs:48
    let mut n = 0;
   a:	9005      	str	r0, [sp, #20]
/Users/Luppy/.cargo/registry/src/github.com-1ecc6299db9ec823/cstr_core-0.1.2/src/lib.rs:49
    while *p.offset(n as isize) != 0 {
   c:	9103      	str	r1, [sp, #12]
   e:	e7ff      	b.n	10 <_ZN9cstr_core6strlen17h68dcf3f613f90af3E+0x10>
  10:	9804      	ldr	r0, [sp, #16]
  12:	9905      	ldr	r1, [sp, #20]
  14:	f7ff fffe 	bl	0 <_ZN4core3ptr33_$LT$impl$u20$$BP$const$u20$T$GT$6offset17h1b1bd4fc0c06f6a7E>
  18:	9002      	str	r0, [sp, #8]
  1a:	e002      	b.n	22 <_ZN9cstr_core6strlen17h68dcf3f613f90af3E+0x22>
/Users/Luppy/.cargo/registry/src/github.com-1ecc6299db9ec823/cstr_core-0.1.2/src/lib.rs:52
        n += 1;
    }
    n
  1c:	9805      	ldr	r0, [sp, #20]
/Users/Luppy/.cargo/registry/src/github.com-1ecc6299db9ec823/cstr_core-0.1.2/src/lib.rs:53
}
  1e:	b006      	add	sp, #24
  20:	bd80      	pop	{r7, pc}
/Users/Luppy/.cargo/registry/src/github.com-1ecc6299db9ec823/cstr_core-0.1.2/src/lib.rs:49
    while *p.offset(n as isize) != 0 {
  22:	9802      	ldr	r0, [sp, #8]
  24:	7801      	ldrb	r1, [r0, #0]
  26:	2900      	cmp	r1, #0
  28:	d0f8      	beq.n	1c <_ZN9cstr_core6strlen17h68dcf3f613f90af3E+0x1c>
  2a:	e7ff      	b.n	2c <_ZN9cstr_core6strlen17h68dcf3f613f90af3E+0x2c>
/Users/Luppy/.cargo/registry/src/github.com-1ecc6299db9ec823/cstr_core-0.1.2/src/lib.rs:50
        n += 1;
  2c:	9805      	ldr	r0, [sp, #20]
  2e:	1c41      	adds	r1, r0, #1
  30:	460a      	mov	r2, r1
  32:	4281      	cmp	r1, r0
  34:	9201      	str	r2, [sp, #4]
  36:	d303      	bcc.n	40 <_ZN9cstr_core6strlen17h68dcf3f613f90af3E+0x40>
  38:	e7ff      	b.n	3a <_ZN9cstr_core6strlen17h68dcf3f613f90af3E+0x3a>
  3a:	9801      	ldr	r0, [sp, #4]
  3c:	9005      	str	r0, [sp, #20]
/Users/Luppy/.cargo/registry/src/github.com-1ecc6299db9ec823/cstr_core-0.1.2/src/lib.rs:49
    while *p.offset(n as isize) != 0 {
  3e:	e7e7      	b.n	10 <_ZN9cstr_core6strlen17h68dcf3f613f90af3E+0x10>
/Users/Luppy/.cargo/registry/src/github.com-1ecc6299db9ec823/cstr_core-0.1.2/src/lib.rs:50
        n += 1;
  40:	f240 0000 	movw	r0, #0
  44:	f2c0 0000 	movt	r0, #0
  48:	f7ff fffe 	bl	0 <_ZN4core9panicking5panic17h53ca63c6ac6312f8E>
  4c:	defe      	udf	#254	; 0xfe

Disassembly of section .text._ZN9cstr_core21FromBytesWithNulError12interior_nul17hf08eda8952f12a30E:

00000000 <_ZN9cstr_core21FromBytesWithNulError12interior_nul17hf08eda8952f12a30E>:
_ZN9cstr_core21FromBytesWithNulError12interior_nul17hf08eda8952f12a30E():
/Users/Luppy/.cargo/registry/src/github.com-1ecc6299db9ec823/cstr_core-0.1.2/src/lib.rs:332
    InteriorNul(usize),
    NotNulTerminated,
}

impl FromBytesWithNulError {
    fn interior_nul(pos: usize) -> FromBytesWithNulError {
   0:	b086      	sub	sp, #24
   2:	4601      	mov	r1, r0
   4:	9001      	str	r0, [sp, #4]
/Users/Luppy/.cargo/registry/src/github.com-1ecc6299db9ec823/cstr_core-0.1.2/src/lib.rs:334
        FromBytesWithNulError {
            kind: FromBytesWithNulErrorKind::InteriorNul(pos),
   6:	9801      	ldr	r0, [sp, #4]
   8:	9005      	str	r0, [sp, #20]
   a:	2000      	movs	r0, #0
   c:	9004      	str	r0, [sp, #16]
/Users/Luppy/.cargo/registry/src/github.com-1ecc6299db9ec823/cstr_core-0.1.2/src/lib.rs:333
        FromBytesWithNulError {
   e:	9804      	ldr	r0, [sp, #16]
  10:	9a05      	ldr	r2, [sp, #20]
  12:	9002      	str	r0, [sp, #8]
  14:	9203      	str	r2, [sp, #12]
/Users/Luppy/.cargo/registry/src/github.com-1ecc6299db9ec823/cstr_core-0.1.2/src/lib.rs:336
        }
    }
  16:	9802      	ldr	r0, [sp, #8]
  18:	9a03      	ldr	r2, [sp, #12]
  1a:	9100      	str	r1, [sp, #0]
  1c:	4611      	mov	r1, r2
  1e:	b006      	add	sp, #24
  20:	4770      	bx	lr

Disassembly of section .text._ZN9cstr_core21FromBytesWithNulError18not_nul_terminated17h2c8de0b1805f9ba8E:

00000000 <_ZN9cstr_core21FromBytesWithNulError18not_nul_terminated17h2c8de0b1805f9ba8E>:
_ZN9cstr_core21FromBytesWithNulError18not_nul_terminated17h2c8de0b1805f9ba8E():
/Users/Luppy/.cargo/registry/src/github.com-1ecc6299db9ec823/cstr_core-0.1.2/src/lib.rs:337
    fn not_nul_terminated() -> FromBytesWithNulError {
   0:	b084      	sub	sp, #16
   2:	2001      	movs	r0, #1
/Users/Luppy/.cargo/registry/src/github.com-1ecc6299db9ec823/cstr_core-0.1.2/src/lib.rs:339
        FromBytesWithNulError {
            kind: FromBytesWithNulErrorKind::NotNulTerminated,
   4:	9002      	str	r0, [sp, #8]
/Users/Luppy/.cargo/registry/src/github.com-1ecc6299db9ec823/cstr_core-0.1.2/src/lib.rs:338
        FromBytesWithNulError {
   6:	9802      	ldr	r0, [sp, #8]
   8:	9903      	ldr	r1, [sp, #12]
   a:	9000      	str	r0, [sp, #0]
   c:	9101      	str	r1, [sp, #4]
/Users/Luppy/.cargo/registry/src/github.com-1ecc6299db9ec823/cstr_core-0.1.2/src/lib.rs:341
        }
    }
   e:	9800      	ldr	r0, [sp, #0]
  10:	9901      	ldr	r1, [sp, #4]
  12:	b004      	add	sp, #16
  14:	4770      	bx	lr

Disassembly of section .text._ZN52_$LT$cstr_core..CStr$u20$as$u20$core..fmt..Debug$GT$3fmt17hcb7547f377794dd3E:

00000000 <_ZN52_$LT$cstr_core..CStr$u20$as$u20$core..fmt..Debug$GT$3fmt17hcb7547f377794dd3E>:
_ZN52_$LT$cstr_core..CStr$u20$as$u20$core..fmt..Debug$GT$3fmt17hcb7547f377794dd3E():
/Users/Luppy/.cargo/registry/src/github.com-1ecc6299db9ec823/cstr_core-0.1.2/src/lib.rs:670
        s.into_bytes()
    }
}

impl fmt::Debug for CStr {
    fn fmt(&self, f: &mut fmt::Formatter) -> fmt::Result {
   0:	b5b0      	push	{r4, r5, r7, lr}
   2:	b0c6      	sub	sp, #280	; 0x118
   4:	4613      	mov	r3, r2
   6:	468c      	mov	ip, r1
   8:	4686      	mov	lr, r0
   a:	9010      	str	r0, [sp, #64]	; 0x40
   c:	9111      	str	r1, [sp, #68]	; 0x44
   e:	9212      	str	r2, [sp, #72]	; 0x48
/Users/Luppy/.cargo/registry/src/github.com-1ecc6299db9ec823/cstr_core-0.1.2/src/lib.rs:671
        write!(f, "\"")?;
  10:	9812      	ldr	r0, [sp, #72]	; 0x48
  12:	4669      	mov	r1, sp
  14:	2200      	movs	r2, #0
  16:	600a      	str	r2, [r1, #0]
  18:	f240 0100 	movw	r1, #0
  1c:	f2c0 0100 	movt	r1, #0
  20:	f240 0200 	movw	r2, #0
  24:	f2c0 0200 	movt	r2, #0
  28:	ac14      	add	r4, sp, #80	; 0x50
  2a:	2501      	movs	r5, #1
  2c:	900f      	str	r0, [sp, #60]	; 0x3c
  2e:	4620      	mov	r0, r4
  30:	920e      	str	r2, [sp, #56]	; 0x38
  32:	462a      	mov	r2, r5
  34:	9c0e      	ldr	r4, [sp, #56]	; 0x38
  36:	930d      	str	r3, [sp, #52]	; 0x34
  38:	4623      	mov	r3, r4
  3a:	f8cd c030 	str.w	ip, [sp, #48]	; 0x30
  3e:	f8cd e02c 	str.w	lr, [sp, #44]	; 0x2c
  42:	f7ff fffe 	bl	0 <_ZN4core3fmt9Arguments6new_v117h11374ddc397f6375E>
  46:	e7ff      	b.n	48 <_ZN52_$LT$cstr_core..CStr$u20$as$u20$core..fmt..Debug$GT$3fmt17hcb7547f377794dd3E+0x48>
  48:	a914      	add	r1, sp, #80	; 0x50
  4a:	980f      	ldr	r0, [sp, #60]	; 0x3c
  4c:	f7ff fffe 	bl	0 <_ZN4core3fmt9Formatter9write_fmt17h5196b6ebbbf1f100E>
  50:	900a      	str	r0, [sp, #40]	; 0x28
  52:	e7ff      	b.n	54 <_ZN52_$LT$cstr_core..CStr$u20$as$u20$core..fmt..Debug$GT$3fmt17hcb7547f377794dd3E+0x54>
  54:	980a      	ldr	r0, [sp, #40]	; 0x28
  56:	f000 0001 	and.w	r0, r0, #1
  5a:	f7ff fffe 	bl	0 <_ZN73_$LT$core..result..Result$LT$T$C$E$GT$$u20$as$u20$core..ops..try..Try$GT$11into_result17ha43963255be17051E>
  5e:	f88d 004f 	strb.w	r0, [sp, #79]	; 0x4f
  62:	e7ff      	b.n	64 <_ZN52_$LT$cstr_core..CStr$u20$as$u20$core..fmt..Debug$GT$3fmt17hcb7547f377794dd3E+0x64>
  64:	f89d 004f 	ldrb.w	r0, [sp, #79]	; 0x4f
  68:	07c1      	lsls	r1, r0, #31
  6a:	2900      	cmp	r1, #0
  6c:	9009      	str	r0, [sp, #36]	; 0x24
  6e:	d012      	beq.n	96 <_ZN52_$LT$cstr_core..CStr$u20$as$u20$core..fmt..Debug$GT$3fmt17hcb7547f377794dd3E+0x96>
  70:	e7ff      	b.n	72 <_ZN52_$LT$cstr_core..CStr$u20$as$u20$core..fmt..Debug$GT$3fmt17hcb7547f377794dd3E+0x72>
  72:	9809      	ldr	r0, [sp, #36]	; 0x24
  74:	2801      	cmp	r0, #1
  76:	d001      	beq.n	7c <_ZN52_$LT$cstr_core..CStr$u20$as$u20$core..fmt..Debug$GT$3fmt17hcb7547f377794dd3E+0x7c>
  78:	e7ff      	b.n	7a <_ZN52_$LT$cstr_core..CStr$u20$as$u20$core..fmt..Debug$GT$3fmt17hcb7547f377794dd3E+0x7a>
/Users/Luppy/.cargo/registry/src/github.com-1ecc6299db9ec823/cstr_core-0.1.2/src/lib.rs:679
            .flat_map(|&b| ascii::escape_default(b))
        {
            f.write_char(byte as char)?;
        }
        write!(f, "\"")
    }
  7a:	defe      	udf	#254	; 0xfe
/Users/Luppy/.cargo/registry/src/github.com-1ecc6299db9ec823/cstr_core-0.1.2/src/lib.rs:671
        write!(f, "\"")?;
  7c:	f7ff fffe 	bl	0 <_ZN50_$LT$T$u20$as$u20$core..convert..From$LT$T$GT$$GT$4from17h9357a2148a3146cdE>
  80:	e7ff      	b.n	2 <_ZN73_$LT$core..result..Result$LT$T$C$E$GT$$u20$as$u20$core..ops..try..Try$GT$10from_error17hda7520318724b6f1E+0x2>
  82:	f7ff fffe 	bl	0 <_ZN73_$LT$core..result..Result$LT$T$C$E$GT$$u20$as$u20$core..ops..try..Try$GT$10from_error17hda7520318724b6f1E>
  86:	f88d 004e 	strb.w	r0, [sp, #78]	; 0x4e
  8a:	e7ff      	b.n	8c <_ZN52_$LT$cstr_core..CStr$u20$as$u20$core..fmt..Debug$GT$3fmt17hcb7547f377794dd3E+0x8c>
  8c:	e7ff      	b.n	8e <_ZN52_$LT$cstr_core..CStr$u20$as$u20$core..fmt..Debug$GT$3fmt17hcb7547f377794dd3E+0x8e>
/Users/Luppy/.cargo/registry/src/github.com-1ecc6299db9ec823/cstr_core-0.1.2/src/lib.rs:679
    }
  8e:	f89d 004e 	ldrb.w	r0, [sp, #78]	; 0x4e
  92:	b046      	add	sp, #280	; 0x118
  94:	bdb0      	pop	{r4, r5, r7, pc}
/Users/Luppy/.cargo/registry/src/github.com-1ecc6299db9ec823/cstr_core-0.1.2/src/lib.rs:672
        for byte in self.to_bytes()
  96:	9810      	ldr	r0, [sp, #64]	; 0x40
  98:	9911      	ldr	r1, [sp, #68]	; 0x44
  9a:	f7ff fffe 	bl	0 <_ZN52_$LT$cstr_core..CStr$u20$as$u20$core..fmt..Debug$GT$3fmt17hcb7547f377794dd3E>
  9e:	9008      	str	r0, [sp, #32]
  a0:	9107      	str	r1, [sp, #28]
  a2:	e7ff      	b.n	a4 <_ZN52_$LT$cstr_core..CStr$u20$as$u20$core..fmt..Debug$GT$3fmt17hcb7547f377794dd3E+0xa4>
  a4:	9808      	ldr	r0, [sp, #32]
  a6:	9907      	ldr	r1, [sp, #28]
  a8:	f7ff fffe 	bl	0 <_ZN4core5slice29_$LT$impl$u20$$u5b$T$u5d$$GT$4iter17h9dfc354656166554E>
  ac:	9006      	str	r0, [sp, #24]
  ae:	9105      	str	r1, [sp, #20]
  b0:	e7ff      	b.n	b2 <_ZN52_$LT$cstr_core..CStr$u20$as$u20$core..fmt..Debug$GT$3fmt17hcb7547f377794dd3E+0xb2>
  b2:	a826      	add	r0, sp, #152	; 0x98
  b4:	9906      	ldr	r1, [sp, #24]
  b6:	9a05      	ldr	r2, [sp, #20]
  b8:	f7ff fffe 	bl	0 <_ZN4core4iter6traits8iterator8Iterator8flat_map17h7a91fd5a91b266edE>
  bc:	e7ff      	b.n	be <_ZN52_$LT$cstr_core..CStr$u20$as$u20$core..fmt..Debug$GT$3fmt17hcb7547f377794dd3E+0xbe>
  be:	a81c      	add	r0, sp, #112	; 0x70
  c0:	a926      	add	r1, sp, #152	; 0x98
  c2:	f7ff fffe 	bl	0 <_ZN63_$LT$I$u20$as$u20$core..iter..traits..collect..IntoIterator$GT$9into_iter17h4cd02ec9a3789ba9E>
  c6:	e7ff      	b.n	c8 <_ZN52_$LT$cstr_core..CStr$u20$as$u20$core..fmt..Debug$GT$3fmt17hcb7547f377794dd3E+0xc8>
  c8:	a81c      	add	r0, sp, #112	; 0x70
  ca:	a931      	add	r1, sp, #196	; 0xc4
  cc:	e8b0 501c 	ldmia.w	r0!, {r2, r3, r4, ip, lr}
  d0:	e8a1 501c 	stmia.w	r1!, {r2, r3, r4, ip, lr}
  d4:	e890 501c 	ldmia.w	r0, {r2, r3, r4, ip, lr}
  d8:	e881 501c 	stmia.w	r1, {r2, r3, r4, ip, lr}
  dc:	e7ff      	b.n	de <_ZN52_$LT$cstr_core..CStr$u20$as$u20$core..fmt..Debug$GT$3fmt17hcb7547f377794dd3E+0xde>
  de:	a831      	add	r0, sp, #196	; 0xc4
  e0:	f7ff fffe 	bl	0 <_ZN114_$LT$core..iter..adapters..flatten..FlatMap$LT$I$C$U$C$F$GT$$u20$as$u20$core..iter..traits..iterator..Iterator$GT$4next17h63f09418751ec355E>
  e4:	f88d 10f1 	strb.w	r1, [sp, #241]	; 0xf1
  e8:	f88d 00f0 	strb.w	r0, [sp, #240]	; 0xf0
  ec:	e7ff      	b.n	ee <_ZN52_$LT$cstr_core..CStr$u20$as$u20$core..fmt..Debug$GT$3fmt17hcb7547f377794dd3E+0xee>
  ee:	f89d 00f0 	ldrb.w	r0, [sp, #240]	; 0xf0
  f2:	07c1      	lsls	r1, r0, #31
  f4:	2900      	cmp	r1, #0
  f6:	9004      	str	r0, [sp, #16]
  f8:	d017      	beq.n	12a <_ZN52_$LT$cstr_core..CStr$u20$as$u20$core..fmt..Debug$GT$3fmt17hcb7547f377794dd3E+0x12a>
  fa:	e7ff      	b.n	fc <_ZN52_$LT$cstr_core..CStr$u20$as$u20$core..fmt..Debug$GT$3fmt17hcb7547f377794dd3E+0xfc>
  fc:	9804      	ldr	r0, [sp, #16]
  fe:	2801      	cmp	r0, #1
 100:	d1bb      	bne.n	7a <_ZN52_$LT$cstr_core..CStr$u20$as$u20$core..fmt..Debug$GT$3fmt17hcb7547f377794dd3E+0x7a>
 102:	e7ff      	b.n	104 <_ZN52_$LT$cstr_core..CStr$u20$as$u20$core..fmt..Debug$GT$3fmt17hcb7547f377794dd3E+0x104>
 104:	f89d 00f1 	ldrb.w	r0, [sp, #241]	; 0xf1
 108:	f88d 00f5 	strb.w	r0, [sp, #245]	; 0xf5
 10c:	f89d 00f5 	ldrb.w	r0, [sp, #245]	; 0xf5
 110:	f88d 00ef 	strb.w	r0, [sp, #239]	; 0xef
 114:	f89d 00ef 	ldrb.w	r0, [sp, #239]	; 0xef
 118:	f88d 00f6 	strb.w	r0, [sp, #246]	; 0xf6
/Users/Luppy/.cargo/registry/src/github.com-1ecc6299db9ec823/cstr_core-0.1.2/src/lib.rs:676
            f.write_char(byte as char)?;
 11c:	9812      	ldr	r0, [sp, #72]	; 0x48
 11e:	f89d 10f6 	ldrb.w	r1, [sp, #246]	; 0xf6
 122:	f7ff fffe 	bl	0 <_ZN57_$LT$core..fmt..Formatter$u20$as$u20$core..fmt..Write$GT$10write_char17hf153f08ea9d8f018E>
 126:	9003      	str	r0, [sp, #12]
 128:	e003      	b.n	132 <_ZN52_$LT$cstr_core..CStr$u20$as$u20$core..fmt..Debug$GT$3fmt17hcb7547f377794dd3E+0x132>
 12a:	a831      	add	r0, sp, #196	; 0xc4
/Users/Luppy/.cargo/registry/src/github.com-1ecc6299db9ec823/cstr_core-0.1.2/src/lib.rs:674
            .flat_map(|&b| ascii::escape_default(b))
 12c:	f7ff fffe 	bl	0 <_ZN4core3ptr18real_drop_in_place17he0f61884cb8f035bE>
 130:	e021      	b.n	176 <_ZN52_$LT$cstr_core..CStr$u20$as$u20$core..fmt..Debug$GT$3fmt17hcb7547f377794dd3E+0x176>
/Users/Luppy/.cargo/registry/src/github.com-1ecc6299db9ec823/cstr_core-0.1.2/src/lib.rs:676
            f.write_char(byte as char)?;
 132:	9803      	ldr	r0, [sp, #12]
 134:	f000 0001 	and.w	r0, r0, #1
 138:	f7ff fffe 	bl	0 <_ZN73_$LT$core..result..Result$LT$T$C$E$GT$$u20$as$u20$core..ops..try..Try$GT$11into_result17ha43963255be17051E>
 13c:	f88d 00f7 	strb.w	r0, [sp, #247]	; 0xf7
 140:	e7ff      	b.n	142 <_ZN52_$LT$cstr_core..CStr$u20$as$u20$core..fmt..Debug$GT$3fmt17hcb7547f377794dd3E+0x142>
 142:	f89d 00f7 	ldrb.w	r0, [sp, #247]	; 0xf7
 146:	07c1      	lsls	r1, r0, #31
 148:	2900      	cmp	r1, #0
 14a:	9002      	str	r0, [sp, #8]
 14c:	d012      	beq.n	174 <_ZN52_$LT$cstr_core..CStr$u20$as$u20$core..fmt..Debug$GT$3fmt17hcb7547f377794dd3E+0x174>
 14e:	e7ff      	b.n	150 <_ZN52_$LT$cstr_core..CStr$u20$as$u20$core..fmt..Debug$GT$3fmt17hcb7547f377794dd3E+0x150>
 150:	9802      	ldr	r0, [sp, #8]
 152:	2801      	cmp	r0, #1
 154:	f47f af91 	bne.w	7a <_ZN52_$LT$cstr_core..CStr$u20$as$u20$core..fmt..Debug$GT$3fmt17hcb7547f377794dd3E+0x7a>
 158:	e7ff      	b.n	2 <_ZN50_$LT$T$u20$as$u20$core..convert..From$LT$T$GT$$GT$4from17h9357a2148a3146cdE+0x2>
 15a:	f7ff fffe 	bl	0 <_ZN50_$LT$T$u20$as$u20$core..convert..From$LT$T$GT$$GT$4from17h9357a2148a3146cdE>
 15e:	e7ff      	b.n	2 <_ZN73_$LT$core..result..Result$LT$T$C$E$GT$$u20$as$u20$core..ops..try..Try$GT$10from_error17hda7520318724b6f1E+0x2>
 160:	f7ff fffe 	bl	0 <_ZN73_$LT$core..result..Result$LT$T$C$E$GT$$u20$as$u20$core..ops..try..Try$GT$10from_error17hda7520318724b6f1E>
 164:	f88d 004e 	strb.w	r0, [sp, #78]	; 0x4e
 168:	e7ff      	b.n	16a <_ZN52_$LT$cstr_core..CStr$u20$as$u20$core..fmt..Debug$GT$3fmt17hcb7547f377794dd3E+0x16a>
 16a:	a831      	add	r0, sp, #196	; 0xc4
/Users/Luppy/.cargo/registry/src/github.com-1ecc6299db9ec823/cstr_core-0.1.2/src/lib.rs:674
            .flat_map(|&b| ascii::escape_default(b))
 16c:	f7ff fffe 	bl	0 <_ZN4core3ptr18real_drop_in_place17he0f61884cb8f035bE>
 170:	e7ff      	b.n	172 <_ZN52_$LT$cstr_core..CStr$u20$as$u20$core..fmt..Debug$GT$3fmt17hcb7547f377794dd3E+0x172>
/Users/Luppy/.cargo/registry/src/github.com-1ecc6299db9ec823/cstr_core-0.1.2/src/lib.rs:676
            f.write_char(byte as char)?;
 172:	e78c      	b.n	8e <_ZN52_$LT$cstr_core..CStr$u20$as$u20$core..fmt..Debug$GT$3fmt17hcb7547f377794dd3E+0x8e>
/Users/Luppy/.cargo/registry/src/github.com-1ecc6299db9ec823/cstr_core-0.1.2/src/lib.rs:672
        for byte in self.to_bytes()
 174:	e7b3      	b.n	de <_ZN52_$LT$cstr_core..CStr$u20$as$u20$core..fmt..Debug$GT$3fmt17hcb7547f377794dd3E+0xde>
/Users/Luppy/.cargo/registry/src/github.com-1ecc6299db9ec823/cstr_core-0.1.2/src/lib.rs:678
        write!(f, "\"")
 176:	9812      	ldr	r0, [sp, #72]	; 0x48
 178:	4669      	mov	r1, sp
 17a:	2200      	movs	r2, #0
 17c:	600a      	str	r2, [r1, #0]
 17e:	f240 0100 	movw	r1, #0
 182:	f2c0 0100 	movt	r1, #0
 186:	f240 0300 	movw	r3, #0
 18a:	f2c0 0300 	movt	r3, #0
 18e:	aa40      	add	r2, sp, #256	; 0x100
 190:	f04f 0c01 	mov.w	ip, #1
 194:	9001      	str	r0, [sp, #4]
 196:	4610      	mov	r0, r2
 198:	4662      	mov	r2, ip
 19a:	f7ff fffe 	bl	0 <_ZN4core3fmt9Arguments6new_v117h11374ddc397f6375E>
 19e:	e7ff      	b.n	1a0 <_ZN52_$LT$cstr_core..CStr$u20$as$u20$core..fmt..Debug$GT$3fmt17hcb7547f377794dd3E+0x1a0>
 1a0:	a940      	add	r1, sp, #256	; 0x100
 1a2:	9801      	ldr	r0, [sp, #4]
 1a4:	f7ff fffe 	bl	0 <_ZN4core3fmt9Formatter9write_fmt17h5196b6ebbbf1f100E>
 1a8:	f88d 004e 	strb.w	r0, [sp, #78]	; 0x4e
 1ac:	e7ff      	b.n	1ae <_ZN52_$LT$cstr_core..CStr$u20$as$u20$core..fmt..Debug$GT$3fmt17hcb7547f377794dd3E+0x1ae>
/Users/Luppy/.cargo/registry/src/github.com-1ecc6299db9ec823/cstr_core-0.1.2/src/lib.rs:679
    }
 1ae:	e76e      	b.n	8e <_ZN52_$LT$cstr_core..CStr$u20$as$u20$core..fmt..Debug$GT$3fmt17hcb7547f377794dd3E+0x8e>

Disassembly of section .text._ZN52_$LT$cstr_core..CStr$u20$as$u20$core..fmt..Debug$GT$3fmt28_$u7b$$u7b$closure$u7d$$u7d$17h4b9200b676895849E:

00000000 <_ZN52_$LT$cstr_core..CStr$u20$as$u20$core..fmt..Debug$GT$3fmt28_$u7b$$u7b$closure$u7d$$u7d$17h4b9200b676895849E>:
_ZN52_$LT$cstr_core..CStr$u20$as$u20$core..fmt..Debug$GT$3fmt28_$u7b$$u7b$closure$u7d$$u7d$17h4b9200b676895849E():
/Users/Luppy/.cargo/registry/src/github.com-1ecc6299db9ec823/cstr_core-0.1.2/src/lib.rs:674
            .flat_map(|&b| ascii::escape_default(b))
   0:	b580      	push	{r7, lr}
   2:	b086      	sub	sp, #24
   4:	4613      	mov	r3, r2
   6:	468c      	mov	ip, r1
   8:	4686      	mov	lr, r0
   a:	9103      	str	r1, [sp, #12]
   c:	9204      	str	r2, [sp, #16]
   e:	9904      	ldr	r1, [sp, #16]
  10:	7809      	ldrb	r1, [r1, #0]
  12:	f88d 1017 	strb.w	r1, [sp, #23]
  16:	f89d 1017 	ldrb.w	r1, [sp, #23]
  1a:	9302      	str	r3, [sp, #8]
  1c:	f8cd c004 	str.w	ip, [sp, #4]
  20:	f8cd e000 	str.w	lr, [sp]
  24:	f7ff fffe 	bl	0 <_ZN9cstr_core5ascii14escape_default17h7cca55a9ec844d59E>
  28:	e7ff      	b.n	2a <_ZN52_$LT$cstr_core..CStr$u20$as$u20$core..fmt..Debug$GT$3fmt28_$u7b$$u7b$closure$u7d$$u7d$17h4b9200b676895849E+0x2a>
  2a:	b006      	add	sp, #24
  2c:	bd80      	pop	{r7, pc}

Disassembly of section .text._ZN62_$LT$$RF$cstr_core..CStr$u20$as$u20$core..default..Default$GT$7default17h6daf647f98bcd204E:

00000000 <_ZN62_$LT$$RF$cstr_core..CStr$u20$as$u20$core..default..Default$GT$7default17h6daf647f98bcd204E>:
_ZN62_$LT$$RF$cstr_core..CStr$u20$as$u20$core..default..Default$GT$7default17h6daf647f98bcd204E():
/Users/Luppy/.cargo/registry/src/github.com-1ecc6299db9ec823/cstr_core-0.1.2/src/lib.rs:683
}

impl<'a> Default for &'a CStr {
    fn default() -> &'a CStr {
   0:	b580      	push	{r7, lr}
   2:	b084      	sub	sp, #16
/Users/Luppy/.cargo/registry/src/github.com-1ecc6299db9ec823/cstr_core-0.1.2/src/lib.rs:685
        const SLICE: &'static [c_char] = &[0];
        unsafe { CStr::from_ptr(SLICE.as_ptr()) }
   4:	f240 0000 	movw	r0, #0
   8:	f2c0 0000 	movt	r0, #0
   c:	2101      	movs	r1, #1
   e:	f7ff fffe 	bl	0 <_ZN4core5slice29_$LT$impl$u20$$u5b$T$u5d$$GT$6as_ptr17hd0263209417be61aE>
  12:	9003      	str	r0, [sp, #12]
  14:	e7ff      	b.n	16 <_ZN62_$LT$$RF$cstr_core..CStr$u20$as$u20$core..default..Default$GT$7default17h6daf647f98bcd204E+0x16>
  16:	9803      	ldr	r0, [sp, #12]
  18:	f7ff fffe 	bl	0 <_ZN62_$LT$$RF$cstr_core..CStr$u20$as$u20$core..default..Default$GT$7default17h6daf647f98bcd204E>
  1c:	9002      	str	r0, [sp, #8]
  1e:	9101      	str	r1, [sp, #4]
  20:	e7ff      	b.n	22 <_ZN62_$LT$$RF$cstr_core..CStr$u20$as$u20$core..default..Default$GT$7default17h6daf647f98bcd204E+0x22>
/Users/Luppy/.cargo/registry/src/github.com-1ecc6299db9ec823/cstr_core-0.1.2/src/lib.rs:686
    }
  22:	9802      	ldr	r0, [sp, #8]
  24:	9901      	ldr	r1, [sp, #4]
  26:	b004      	add	sp, #16
  28:	bd80      	pop	{r7, pc}

Disassembly of section .text._ZN71_$LT$cstr_core..FromBytesWithNulError$u20$as$u20$core..fmt..Display$GT$3fmt17h8e3a88106d8b9be2E:

00000000 <_ZN71_$LT$cstr_core..FromBytesWithNulError$u20$as$u20$core..fmt..Display$GT$3fmt17h8e3a88106d8b9be2E>:
_ZN71_$LT$cstr_core..FromBytesWithNulError$u20$as$u20$core..fmt..Display$GT$3fmt17h8e3a88106d8b9be2E():
/Users/Luppy/.cargo/registry/src/github.com-1ecc6299db9ec823/cstr_core-0.1.2/src/lib.rs:820
        write!(f, "nul byte found in provided data at position: {}", self.0)
    }
}

impl fmt::Display for FromBytesWithNulError {
    fn fmt(&self, f: &mut fmt::Formatter) -> fmt::Result {
   0:	b580      	push	{r7, lr}
   2:	b0a6      	sub	sp, #152	; 0x98
   4:	460a      	mov	r2, r1
   6:	4603      	mov	r3, r0
   8:	900f      	str	r0, [sp, #60]	; 0x3c
   a:	9110      	str	r1, [sp, #64]	; 0x40
/Users/Luppy/.cargo/registry/src/github.com-1ecc6299db9ec823/cstr_core-0.1.2/src/lib.rs:822
        match self.kind {
            FromBytesWithNulErrorKind::InteriorNul(..) => {
   c:	980f      	ldr	r0, [sp, #60]	; 0x3c
   e:	6800      	ldr	r0, [r0, #0]
  10:	2800      	cmp	r0, #0
  12:	920e      	str	r2, [sp, #56]	; 0x38
  14:	930d      	str	r3, [sp, #52]	; 0x34
  16:	900c      	str	r0, [sp, #48]	; 0x30
  18:	d005      	beq.n	26 <_ZN71_$LT$cstr_core..FromBytesWithNulError$u20$as$u20$core..fmt..Display$GT$3fmt17h8e3a88106d8b9be2E+0x26>
  1a:	e7ff      	b.n	1c <_ZN71_$LT$cstr_core..FromBytesWithNulError$u20$as$u20$core..fmt..Display$GT$3fmt17h8e3a88106d8b9be2E+0x1c>
  1c:	980c      	ldr	r0, [sp, #48]	; 0x30
  1e:	2801      	cmp	r0, #1
  20:	d02c      	beq.n	7c <_ZN71_$LT$cstr_core..FromBytesWithNulError$u20$as$u20$core..fmt..Display$GT$3fmt17h8e3a88106d8b9be2E+0x7c>
  22:	e7ff      	b.n	24 <_ZN71_$LT$cstr_core..FromBytesWithNulError$u20$as$u20$core..fmt..Display$GT$3fmt17h8e3a88106d8b9be2E+0x24>
/Users/Luppy/.cargo/registry/src/github.com-1ecc6299db9ec823/cstr_core-0.1.2/src/lib.rs:833
        }
        if let FromBytesWithNulErrorKind::InteriorNul(pos) = self.kind {
            write!(f, " at byte pos {}", pos)?;
        }
        Ok(())
    }
  24:	defe      	udf	#254	; 0xfe
/Users/Luppy/.cargo/registry/src/github.com-1ecc6299db9ec823/cstr_core-0.1.2/src/lib.rs:823
                f.write_str("data provided contains an interior nul byte")?
  26:	9810      	ldr	r0, [sp, #64]	; 0x40
  28:	f240 0100 	movw	r1, #0
  2c:	f2c0 0100 	movt	r1, #0
  30:	222b      	movs	r2, #43	; 0x2b
  32:	f7ff fffe 	bl	0 <_ZN4core3fmt9Formatter9write_str17hc5ae27b32f81ec5eE>
  36:	900b      	str	r0, [sp, #44]	; 0x2c
  38:	e7ff      	b.n	3a <_ZN71_$LT$cstr_core..FromBytesWithNulError$u20$as$u20$core..fmt..Display$GT$3fmt17h8e3a88106d8b9be2E+0x3a>
  3a:	980b      	ldr	r0, [sp, #44]	; 0x2c
  3c:	f000 0001 	and.w	r0, r0, #1
  40:	f7ff fffe 	bl	0 <_ZN73_$LT$core..result..Result$LT$T$C$E$GT$$u20$as$u20$core..ops..try..Try$GT$11into_result17ha43963255be17051E>
  44:	f88d 004b 	strb.w	r0, [sp, #75]	; 0x4b
  48:	e7ff      	b.n	4a <_ZN71_$LT$cstr_core..FromBytesWithNulError$u20$as$u20$core..fmt..Display$GT$3fmt17h8e3a88106d8b9be2E+0x4a>
  4a:	f89d 004b 	ldrb.w	r0, [sp, #75]	; 0x4b
  4e:	07c1      	lsls	r1, r0, #31
  50:	2900      	cmp	r1, #0
  52:	900a      	str	r0, [sp, #40]	; 0x28
  54:	d011      	beq.n	7a <_ZN71_$LT$cstr_core..FromBytesWithNulError$u20$as$u20$core..fmt..Display$GT$3fmt17h8e3a88106d8b9be2E+0x7a>
  56:	e7ff      	b.n	58 <_ZN71_$LT$cstr_core..FromBytesWithNulError$u20$as$u20$core..fmt..Display$GT$3fmt17h8e3a88106d8b9be2E+0x58>
  58:	980a      	ldr	r0, [sp, #40]	; 0x28
  5a:	2801      	cmp	r0, #1
  5c:	d1e2      	bne.n	24 <_ZN71_$LT$cstr_core..FromBytesWithNulError$u20$as$u20$core..fmt..Display$GT$3fmt17h8e3a88106d8b9be2E+0x24>
  5e:	e7ff      	b.n	60 <_ZN71_$LT$cstr_core..FromBytesWithNulError$u20$as$u20$core..fmt..Display$GT$3fmt17h8e3a88106d8b9be2E+0x60>
  60:	f7ff fffe 	bl	0 <_ZN50_$LT$T$u20$as$u20$core..convert..From$LT$T$GT$$GT$4from17h9357a2148a3146cdE>
  64:	e7ff      	b.n	2 <_ZN73_$LT$core..result..Result$LT$T$C$E$GT$$u20$as$u20$core..ops..try..Try$GT$10from_error17hda7520318724b6f1E+0x2>
  66:	f7ff fffe 	bl	0 <_ZN73_$LT$core..result..Result$LT$T$C$E$GT$$u20$as$u20$core..ops..try..Try$GT$10from_error17hda7520318724b6f1E>
  6a:	f88d 0047 	strb.w	r0, [sp, #71]	; 0x47
  6e:	e7ff      	b.n	70 <_ZN71_$LT$cstr_core..FromBytesWithNulError$u20$as$u20$core..fmt..Display$GT$3fmt17h8e3a88106d8b9be2E+0x70>
  70:	e7ff      	b.n	72 <_ZN71_$LT$cstr_core..FromBytesWithNulError$u20$as$u20$core..fmt..Display$GT$3fmt17h8e3a88106d8b9be2E+0x72>
/Users/Luppy/.cargo/registry/src/github.com-1ecc6299db9ec823/cstr_core-0.1.2/src/lib.rs:833
    }
  72:	f89d 0047 	ldrb.w	r0, [sp, #71]	; 0x47
  76:	b026      	add	sp, #152	; 0x98
  78:	bd80      	pop	{r7, pc}
/Users/Luppy/.cargo/registry/src/github.com-1ecc6299db9ec823/cstr_core-0.1.2/src/lib.rs:821
        match self.kind {
  7a:	e026      	b.n	ca <_ZN71_$LT$cstr_core..FromBytesWithNulError$u20$as$u20$core..fmt..Display$GT$3fmt17h8e3a88106d8b9be2E+0xca>
/Users/Luppy/.cargo/registry/src/github.com-1ecc6299db9ec823/cstr_core-0.1.2/src/lib.rs:826
                f.write_str("data provided is not nul terminated")?
  7c:	9810      	ldr	r0, [sp, #64]	; 0x40
  7e:	f240 0100 	movw	r1, #0
  82:	f2c0 0100 	movt	r1, #0
  86:	2223      	movs	r2, #35	; 0x23
  88:	f7ff fffe 	bl	0 <_ZN4core3fmt9Formatter9write_str17hc5ae27b32f81ec5eE>
  8c:	9009      	str	r0, [sp, #36]	; 0x24
  8e:	e7ff      	b.n	90 <_ZN71_$LT$cstr_core..FromBytesWithNulError$u20$as$u20$core..fmt..Display$GT$3fmt17h8e3a88106d8b9be2E+0x90>
  90:	9809      	ldr	r0, [sp, #36]	; 0x24
  92:	f000 0001 	and.w	r0, r0, #1
  96:	f7ff fffe 	bl	0 <_ZN73_$LT$core..result..Result$LT$T$C$E$GT$$u20$as$u20$core..ops..try..Try$GT$11into_result17ha43963255be17051E>
  9a:	f88d 0053 	strb.w	r0, [sp, #83]	; 0x53
  9e:	e7ff      	b.n	a0 <_ZN71_$LT$cstr_core..FromBytesWithNulError$u20$as$u20$core..fmt..Display$GT$3fmt17h8e3a88106d8b9be2E+0xa0>
  a0:	f89d 0053 	ldrb.w	r0, [sp, #83]	; 0x53
  a4:	07c1      	lsls	r1, r0, #31
  a6:	2900      	cmp	r1, #0
  a8:	9008      	str	r0, [sp, #32]
  aa:	d00d      	beq.n	c8 <_ZN71_$LT$cstr_core..FromBytesWithNulError$u20$as$u20$core..fmt..Display$GT$3fmt17h8e3a88106d8b9be2E+0xc8>
  ac:	e7ff      	b.n	ae <_ZN71_$LT$cstr_core..FromBytesWithNulError$u20$as$u20$core..fmt..Display$GT$3fmt17h8e3a88106d8b9be2E+0xae>
  ae:	9808      	ldr	r0, [sp, #32]
  b0:	2801      	cmp	r0, #1
  b2:	d1b7      	bne.n	24 <_ZN71_$LT$cstr_core..FromBytesWithNulError$u20$as$u20$core..fmt..Display$GT$3fmt17h8e3a88106d8b9be2E+0x24>
  b4:	e7ff      	b.n	b6 <_ZN71_$LT$cstr_core..FromBytesWithNulError$u20$as$u20$core..fmt..Display$GT$3fmt17h8e3a88106d8b9be2E+0xb6>
  b6:	f7ff fffe 	bl	0 <_ZN50_$LT$T$u20$as$u20$core..convert..From$LT$T$GT$$GT$4from17h9357a2148a3146cdE>
  ba:	e7ff      	b.n	2 <_ZN73_$LT$core..result..Result$LT$T$C$E$GT$$u20$as$u20$core..ops..try..Try$GT$10from_error17hda7520318724b6f1E+0x2>
  bc:	f7ff fffe 	bl	0 <_ZN73_$LT$core..result..Result$LT$T$C$E$GT$$u20$as$u20$core..ops..try..Try$GT$10from_error17hda7520318724b6f1E>
  c0:	f88d 0047 	strb.w	r0, [sp, #71]	; 0x47
  c4:	e7ff      	b.n	c6 <_ZN71_$LT$cstr_core..FromBytesWithNulError$u20$as$u20$core..fmt..Display$GT$3fmt17h8e3a88106d8b9be2E+0xc6>
  c6:	e7d4      	b.n	72 <_ZN71_$LT$cstr_core..FromBytesWithNulError$u20$as$u20$core..fmt..Display$GT$3fmt17h8e3a88106d8b9be2E+0x72>
/Users/Luppy/.cargo/registry/src/github.com-1ecc6299db9ec823/cstr_core-0.1.2/src/lib.rs:821
        match self.kind {
  c8:	e7ff      	b.n	ca <_ZN71_$LT$cstr_core..FromBytesWithNulError$u20$as$u20$core..fmt..Display$GT$3fmt17h8e3a88106d8b9be2E+0xca>
/Users/Luppy/.cargo/registry/src/github.com-1ecc6299db9ec823/cstr_core-0.1.2/src/lib.rs:829
        if let FromBytesWithNulErrorKind::InteriorNul(pos) = self.kind {
  ca:	980f      	ldr	r0, [sp, #60]	; 0x3c
  cc:	6800      	ldr	r0, [r0, #0]
  ce:	2800      	cmp	r0, #0
  d0:	d14c      	bne.n	16c <_ZN71_$LT$cstr_core..FromBytesWithNulError$u20$as$u20$core..fmt..Display$GT$3fmt17h8e3a88106d8b9be2E+0x16c>
  d2:	e7ff      	b.n	d4 <_ZN71_$LT$cstr_core..FromBytesWithNulError$u20$as$u20$core..fmt..Display$GT$3fmt17h8e3a88106d8b9be2E+0xd4>
  d4:	980f      	ldr	r0, [sp, #60]	; 0x3c
  d6:	6840      	ldr	r0, [r0, #4]
  d8:	9017      	str	r0, [sp, #92]	; 0x5c
/Users/Luppy/.cargo/registry/src/github.com-1ecc6299db9ec823/cstr_core-0.1.2/src/lib.rs:830
            write!(f, " at byte pos {}", pos)?;
  da:	9810      	ldr	r0, [sp, #64]	; 0x40
  dc:	a917      	add	r1, sp, #92	; 0x5c
  de:	9121      	str	r1, [sp, #132]	; 0x84
  e0:	9921      	ldr	r1, [sp, #132]	; 0x84
  e2:	9122      	str	r1, [sp, #136]	; 0x88
  e4:	9922      	ldr	r1, [sp, #136]	; 0x88
  e6:	f240 0200 	movw	r2, #0
  ea:	f2c0 0200 	movt	r2, #0
  ee:	9007      	str	r0, [sp, #28]
  f0:	4608      	mov	r0, r1
  f2:	4611      	mov	r1, r2
  f4:	f7ff fffe 	bl	0 <_ZN4core3fmt10ArgumentV13new17h5d01f94c3a4e1f88E>
  f8:	9006      	str	r0, [sp, #24]
  fa:	9105      	str	r1, [sp, #20]
  fc:	e7ff      	b.n	fe <_ZN71_$LT$cstr_core..FromBytesWithNulError$u20$as$u20$core..fmt..Display$GT$3fmt17h8e3a88106d8b9be2E+0xfe>
  fe:	9806      	ldr	r0, [sp, #24]
 100:	901f      	str	r0, [sp, #124]	; 0x7c
 102:	9905      	ldr	r1, [sp, #20]
 104:	9120      	str	r1, [sp, #128]	; 0x80
 106:	466a      	mov	r2, sp
 108:	2301      	movs	r3, #1
 10a:	6013      	str	r3, [r2, #0]
 10c:	f240 0100 	movw	r1, #0
 110:	f2c0 0100 	movt	r1, #0
 114:	a819      	add	r0, sp, #100	; 0x64
 116:	aa1f      	add	r2, sp, #124	; 0x7c
 118:	9204      	str	r2, [sp, #16]
 11a:	461a      	mov	r2, r3
 11c:	9b04      	ldr	r3, [sp, #16]
 11e:	f7ff fffe 	bl	0 <_ZN4core3fmt9Arguments6new_v117h11374ddc397f6375E>
 122:	e7ff      	b.n	124 <_ZN71_$LT$cstr_core..FromBytesWithNulError$u20$as$u20$core..fmt..Display$GT$3fmt17h8e3a88106d8b9be2E+0x124>
 124:	a919      	add	r1, sp, #100	; 0x64
 126:	9807      	ldr	r0, [sp, #28]
 128:	f7ff fffe 	bl	0 <_ZN4core3fmt9Formatter9write_fmt17h5196b6ebbbf1f100E>
 12c:	9003      	str	r0, [sp, #12]
 12e:	e7ff      	b.n	130 <_ZN71_$LT$cstr_core..FromBytesWithNulError$u20$as$u20$core..fmt..Display$GT$3fmt17h8e3a88106d8b9be2E+0x130>
 130:	9803      	ldr	r0, [sp, #12]
 132:	f000 0001 	and.w	r0, r0, #1
 136:	f7ff fffe 	bl	0 <_ZN73_$LT$core..result..Result$LT$T$C$E$GT$$u20$as$u20$core..ops..try..Try$GT$11into_result17ha43963255be17051E>
 13a:	f88d 0063 	strb.w	r0, [sp, #99]	; 0x63
 13e:	e7ff      	b.n	140 <_ZN71_$LT$cstr_core..FromBytesWithNulError$u20$as$u20$core..fmt..Display$GT$3fmt17h8e3a88106d8b9be2E+0x140>
 140:	f89d 0063 	ldrb.w	r0, [sp, #99]	; 0x63
 144:	07c1      	lsls	r1, r0, #31
 146:	2900      	cmp	r1, #0
 148:	9002      	str	r0, [sp, #8]
 14a:	d00e      	beq.n	16a <_ZN71_$LT$cstr_core..FromBytesWithNulError$u20$as$u20$core..fmt..Display$GT$3fmt17h8e3a88106d8b9be2E+0x16a>
 14c:	e7ff      	b.n	14e <_ZN71_$LT$cstr_core..FromBytesWithNulError$u20$as$u20$core..fmt..Display$GT$3fmt17h8e3a88106d8b9be2E+0x14e>
 14e:	9802      	ldr	r0, [sp, #8]
 150:	2801      	cmp	r0, #1
 152:	f47f af67 	bne.w	24 <_ZN71_$LT$cstr_core..FromBytesWithNulError$u20$as$u20$core..fmt..Display$GT$3fmt17h8e3a88106d8b9be2E+0x24>
 156:	e7ff      	b.n	2 <_ZN50_$LT$T$u20$as$u20$core..convert..From$LT$T$GT$$GT$4from17h9357a2148a3146cdE+0x2>
 158:	f7ff fffe 	bl	0 <_ZN50_$LT$T$u20$as$u20$core..convert..From$LT$T$GT$$GT$4from17h9357a2148a3146cdE>
 15c:	e7ff      	b.n	2 <_ZN73_$LT$core..result..Result$LT$T$C$E$GT$$u20$as$u20$core..ops..try..Try$GT$10from_error17hda7520318724b6f1E+0x2>
 15e:	f7ff fffe 	bl	0 <_ZN73_$LT$core..result..Result$LT$T$C$E$GT$$u20$as$u20$core..ops..try..Try$GT$10from_error17hda7520318724b6f1E>
 162:	f88d 0047 	strb.w	r0, [sp, #71]	; 0x47
 166:	e7ff      	b.n	168 <_ZN71_$LT$cstr_core..FromBytesWithNulError$u20$as$u20$core..fmt..Display$GT$3fmt17h8e3a88106d8b9be2E+0x168>
 168:	e783      	b.n	72 <_ZN71_$LT$cstr_core..FromBytesWithNulError$u20$as$u20$core..fmt..Display$GT$3fmt17h8e3a88106d8b9be2E+0x72>
/Users/Luppy/.cargo/registry/src/github.com-1ecc6299db9ec823/cstr_core-0.1.2/src/lib.rs:829
        if let FromBytesWithNulErrorKind::InteriorNul(pos) = self.kind {
 16a:	e7ff      	b.n	16c <_ZN71_$LT$cstr_core..FromBytesWithNulError$u20$as$u20$core..fmt..Display$GT$3fmt17h8e3a88106d8b9be2E+0x16c>
 16c:	2000      	movs	r0, #0
/Users/Luppy/.cargo/registry/src/github.com-1ecc6299db9ec823/cstr_core-0.1.2/src/lib.rs:832
        Ok(())
 16e:	f88d 0047 	strb.w	r0, [sp, #71]	; 0x47
/Users/Luppy/.cargo/registry/src/github.com-1ecc6299db9ec823/cstr_core-0.1.2/src/lib.rs:833
    }
 172:	e77e      	b.n	72 <_ZN71_$LT$cstr_core..FromBytesWithNulError$u20$as$u20$core..fmt..Display$GT$3fmt17h8e3a88106d8b9be2E+0x72>

Disassembly of section .text._ZN9cstr_core4CStr8from_ptr17ha5d4992c233d069bE:

00000000 <_ZN9cstr_core4CStr8from_ptr17ha5d4992c233d069bE>:
_ZN9cstr_core4CStr8from_ptr17ha5d4992c233d069bE():
/Users/Luppy/.cargo/registry/src/github.com-1ecc6299db9ec823/cstr_core-0.1.2/src/lib.rs:895
    ///     let slice = CStr::from_ptr(my_string());
    ///     println!("string returned: {}", slice.to_str().unwrap());
    /// }
    /// # }
    /// ```
    pub unsafe fn from_ptr<'a>(ptr: *const c_char) -> &'a CStr {
   0:	b580      	push	{r7, lr}
   2:	b08a      	sub	sp, #40	; 0x28
   4:	4601      	mov	r1, r0
   6:	9007      	str	r0, [sp, #28]
/Users/Luppy/.cargo/registry/src/github.com-1ecc6299db9ec823/cstr_core-0.1.2/src/lib.rs:896
        let len = strlen(ptr);
   8:	9807      	ldr	r0, [sp, #28]
   a:	9106      	str	r1, [sp, #24]
   c:	f7ff fffe 	bl	0 <_ZN9cstr_core4CStr8from_ptr17ha5d4992c233d069bE>
  10:	9008      	str	r0, [sp, #32]
  12:	e7ff      	b.n	14 <_ZN9cstr_core4CStr8from_ptr17ha5d4992c233d069bE+0x14>
/Users/Luppy/.cargo/registry/src/github.com-1ecc6299db9ec823/cstr_core-0.1.2/src/lib.rs:897
        let ptr = ptr as *const u8;
  14:	9807      	ldr	r0, [sp, #28]
  16:	9009      	str	r0, [sp, #36]	; 0x24
/Users/Luppy/.cargo/registry/src/github.com-1ecc6299db9ec823/cstr_core-0.1.2/src/lib.rs:898
        CStr::from_bytes_with_nul_unchecked(slice::from_raw_parts(ptr, len as usize + 1))
  18:	9809      	ldr	r0, [sp, #36]	; 0x24
  1a:	9908      	ldr	r1, [sp, #32]
  1c:	1c4a      	adds	r2, r1, #1
  1e:	4613      	mov	r3, r2
  20:	428a      	cmp	r2, r1
  22:	9005      	str	r0, [sp, #20]
  24:	9304      	str	r3, [sp, #16]
  26:	d312      	bcc.n	4e <_ZN9cstr_core4CStr8from_ptr17ha5d4992c233d069bE+0x4e>
  28:	e7ff      	b.n	2a <_ZN9cstr_core4CStr8from_ptr17ha5d4992c233d069bE+0x2a>
  2a:	9805      	ldr	r0, [sp, #20]
  2c:	9904      	ldr	r1, [sp, #16]
  2e:	f7ff fffe 	bl	0 <_ZN4core5slice14from_raw_parts17h43814f7b9fdef66aE>
  32:	9003      	str	r0, [sp, #12]
  34:	9102      	str	r1, [sp, #8]
  36:	e7ff      	b.n	38 <_ZN9cstr_core4CStr8from_ptr17ha5d4992c233d069bE+0x38>
  38:	9803      	ldr	r0, [sp, #12]
  3a:	9902      	ldr	r1, [sp, #8]
  3c:	f7ff fffe 	bl	0 <_ZN9cstr_core4CStr8from_ptr17ha5d4992c233d069bE>
  40:	9001      	str	r0, [sp, #4]
  42:	9100      	str	r1, [sp, #0]
  44:	e7ff      	b.n	46 <_ZN9cstr_core4CStr8from_ptr17ha5d4992c233d069bE+0x46>
/Users/Luppy/.cargo/registry/src/github.com-1ecc6299db9ec823/cstr_core-0.1.2/src/lib.rs:899
    }
  46:	9801      	ldr	r0, [sp, #4]
  48:	9900      	ldr	r1, [sp, #0]
  4a:	b00a      	add	sp, #40	; 0x28
  4c:	bd80      	pop	{r7, pc}
/Users/Luppy/.cargo/registry/src/github.com-1ecc6299db9ec823/cstr_core-0.1.2/src/lib.rs:898
        CStr::from_bytes_with_nul_unchecked(slice::from_raw_parts(ptr, len as usize + 1))
  4e:	f240 0000 	movw	r0, #0
  52:	f2c0 0000 	movt	r0, #0
  56:	f7ff fffe 	bl	0 <_ZN4core9panicking5panic17h53ca63c6ac6312f8E>
  5a:	defe      	udf	#254	; 0xfe

Disassembly of section .text._ZN9cstr_core4CStr19from_bytes_with_nul17h7d4b1272f9f27478E:

00000000 <_ZN9cstr_core4CStr19from_bytes_with_nul17h7d4b1272f9f27478E>:
_ZN9cstr_core4CStr19from_bytes_with_nul17h7d4b1272f9f27478E():
/Users/Luppy/.cargo/registry/src/github.com-1ecc6299db9ec823/cstr_core-0.1.2/src/lib.rs:933
    /// use cstr_core::CStr;
    ///
    /// let c_str = CStr::from_bytes_with_nul(b"he\0llo\0");
    /// assert!(c_str.is_err());
    /// ```
    pub fn from_bytes_with_nul(bytes: &[u8]) -> Result<&CStr, FromBytesWithNulError> {
   0:	b580      	push	{r7, lr}
   2:	b090      	sub	sp, #64	; 0x40
   4:	4613      	mov	r3, r2
   6:	468c      	mov	ip, r1
   8:	910b      	str	r1, [sp, #44]	; 0x2c
   a:	920c      	str	r2, [sp, #48]	; 0x30
/Users/Luppy/.cargo/registry/src/github.com-1ecc6299db9ec823/cstr_core-0.1.2/src/lib.rs:934
        let nul_pos = memchr::memchr(0, bytes);
   c:	990b      	ldr	r1, [sp, #44]	; 0x2c
   e:	9a0c      	ldr	r2, [sp, #48]	; 0x30
  10:	f04f 0e00 	mov.w	lr, #0
  14:	900a      	str	r0, [sp, #40]	; 0x28
  16:	4670      	mov	r0, lr
  18:	9309      	str	r3, [sp, #36]	; 0x24
  1a:	f8cd c020 	str.w	ip, [sp, #32]
  1e:	f7ff fffe 	bl	0 <_ZN6memchr6memchr17hd4cfdd53cd31b2c5E>
  22:	910e      	str	r1, [sp, #56]	; 0x38
  24:	900d      	str	r0, [sp, #52]	; 0x34
  26:	e7ff      	b.n	28 <_ZN9cstr_core4CStr19from_bytes_with_nul17h7d4b1272f9f27478E+0x28>
/Users/Luppy/.cargo/registry/src/github.com-1ecc6299db9ec823/cstr_core-0.1.2/src/lib.rs:935
        if let Some(nul_pos) = nul_pos {
  28:	980d      	ldr	r0, [sp, #52]	; 0x34
  2a:	2801      	cmp	r0, #1
  2c:	d133      	bne.n	96 <_ZN9cstr_core4CStr19from_bytes_with_nul17h7d4b1272f9f27478E+0x96>
  2e:	e7ff      	b.n	30 <_ZN9cstr_core4CStr19from_bytes_with_nul17h7d4b1272f9f27478E+0x30>
  30:	980e      	ldr	r0, [sp, #56]	; 0x38
  32:	900f      	str	r0, [sp, #60]	; 0x3c
/Users/Luppy/.cargo/registry/src/github.com-1ecc6299db9ec823/cstr_core-0.1.2/src/lib.rs:936
            if nul_pos + 1 != bytes.len() {
  34:	980f      	ldr	r0, [sp, #60]	; 0x3c
  36:	1c41      	adds	r1, r0, #1
  38:	460a      	mov	r2, r1
  3a:	4281      	cmp	r1, r0
  3c:	9207      	str	r2, [sp, #28]
  3e:	d338      	bcc.n	b2 <_ZN9cstr_core4CStr19from_bytes_with_nul17h7d4b1272f9f27478E+0xb2>
  40:	e7ff      	b.n	42 <_ZN9cstr_core4CStr19from_bytes_with_nul17h7d4b1272f9f27478E+0x42>
  42:	980b      	ldr	r0, [sp, #44]	; 0x2c
  44:	990c      	ldr	r1, [sp, #48]	; 0x30
  46:	f7ff fffe 	bl	0 <_ZN4core5slice29_$LT$impl$u20$$u5b$T$u5d$$GT$3len17h63f985867d9f263fE>
  4a:	9006      	str	r0, [sp, #24]
  4c:	e7ff      	b.n	4e <_ZN9cstr_core4CStr19from_bytes_with_nul17h7d4b1272f9f27478E+0x4e>
  4e:	9807      	ldr	r0, [sp, #28]
  50:	9906      	ldr	r1, [sp, #24]
  52:	4288      	cmp	r0, r1
  54:	d010      	beq.n	78 <_ZN9cstr_core4CStr19from_bytes_with_nul17h7d4b1272f9f27478E+0x78>
  56:	e7ff      	b.n	58 <_ZN9cstr_core4CStr19from_bytes_with_nul17h7d4b1272f9f27478E+0x58>
/Users/Luppy/.cargo/registry/src/github.com-1ecc6299db9ec823/cstr_core-0.1.2/src/lib.rs:937
                return Err(FromBytesWithNulError::interior_nul(nul_pos));
  58:	980f      	ldr	r0, [sp, #60]	; 0x3c
  5a:	f7ff fffe 	bl	0 <_ZN9cstr_core4CStr19from_bytes_with_nul17h7d4b1272f9f27478E>
  5e:	9005      	str	r0, [sp, #20]
  60:	9104      	str	r1, [sp, #16]
  62:	e7ff      	b.n	64 <_ZN9cstr_core4CStr19from_bytes_with_nul17h7d4b1272f9f27478E+0x64>
  64:	9805      	ldr	r0, [sp, #20]
  66:	990a      	ldr	r1, [sp, #40]	; 0x28
  68:	6048      	str	r0, [r1, #4]
  6a:	9a04      	ldr	r2, [sp, #16]
  6c:	608a      	str	r2, [r1, #8]
  6e:	2301      	movs	r3, #1
  70:	600b      	str	r3, [r1, #0]
  72:	e7ff      	b.n	74 <_ZN9cstr_core4CStr19from_bytes_with_nul17h7d4b1272f9f27478E+0x74>
/Users/Luppy/.cargo/registry/src/github.com-1ecc6299db9ec823/cstr_core-0.1.2/src/lib.rs:943
            }
            Ok(unsafe { CStr::from_bytes_with_nul_unchecked(bytes) })
        } else {
            Err(FromBytesWithNulError::not_nul_terminated())
        }
    }
  74:	b010      	add	sp, #64	; 0x40
  76:	bd80      	pop	{r7, pc}
/Users/Luppy/.cargo/registry/src/github.com-1ecc6299db9ec823/cstr_core-0.1.2/src/lib.rs:939
            Ok(unsafe { CStr::from_bytes_with_nul_unchecked(bytes) })
  78:	980b      	ldr	r0, [sp, #44]	; 0x2c
  7a:	990c      	ldr	r1, [sp, #48]	; 0x30
  7c:	f7ff fffe 	bl	0 <_ZN9cstr_core4CStr19from_bytes_with_nul17h7d4b1272f9f27478E>
  80:	9003      	str	r0, [sp, #12]
  82:	9102      	str	r1, [sp, #8]
  84:	e7ff      	b.n	86 <_ZN9cstr_core4CStr19from_bytes_with_nul17h7d4b1272f9f27478E+0x86>
  86:	9803      	ldr	r0, [sp, #12]
  88:	990a      	ldr	r1, [sp, #40]	; 0x28
  8a:	6048      	str	r0, [r1, #4]
  8c:	9a02      	ldr	r2, [sp, #8]
  8e:	608a      	str	r2, [r1, #8]
  90:	2300      	movs	r3, #0
  92:	600b      	str	r3, [r1, #0]
/Users/Luppy/.cargo/registry/src/github.com-1ecc6299db9ec823/cstr_core-0.1.2/src/lib.rs:935
        if let Some(nul_pos) = nul_pos {
  94:	e00c      	b.n	b0 <_ZN9cstr_core4CStr19from_bytes_with_nul17h7d4b1272f9f27478E+0xb0>
/Users/Luppy/.cargo/registry/src/github.com-1ecc6299db9ec823/cstr_core-0.1.2/src/lib.rs:941
            Err(FromBytesWithNulError::not_nul_terminated())
  96:	f7ff fffe 	bl	0 <_ZN9cstr_core4CStr19from_bytes_with_nul17h7d4b1272f9f27478E>
  9a:	9001      	str	r0, [sp, #4]
  9c:	9100      	str	r1, [sp, #0]
  9e:	e7ff      	b.n	a0 <_ZN9cstr_core4CStr19from_bytes_with_nul17h7d4b1272f9f27478E+0xa0>
  a0:	9801      	ldr	r0, [sp, #4]
  a2:	990a      	ldr	r1, [sp, #40]	; 0x28
  a4:	6048      	str	r0, [r1, #4]
  a6:	9a00      	ldr	r2, [sp, #0]
  a8:	608a      	str	r2, [r1, #8]
  aa:	2301      	movs	r3, #1
  ac:	600b      	str	r3, [r1, #0]
/Users/Luppy/.cargo/registry/src/github.com-1ecc6299db9ec823/cstr_core-0.1.2/src/lib.rs:935
        if let Some(nul_pos) = nul_pos {
  ae:	e7ff      	b.n	b0 <_ZN9cstr_core4CStr19from_bytes_with_nul17h7d4b1272f9f27478E+0xb0>
/Users/Luppy/.cargo/registry/src/github.com-1ecc6299db9ec823/cstr_core-0.1.2/src/lib.rs:943
    }
  b0:	e7e0      	b.n	74 <_ZN9cstr_core4CStr19from_bytes_with_nul17h7d4b1272f9f27478E+0x74>
/Users/Luppy/.cargo/registry/src/github.com-1ecc6299db9ec823/cstr_core-0.1.2/src/lib.rs:936
            if nul_pos + 1 != bytes.len() {
  b2:	f240 0000 	movw	r0, #0
  b6:	f2c0 0000 	movt	r0, #0
  ba:	f7ff fffe 	bl	0 <_ZN4core9panicking5panic17h53ca63c6ac6312f8E>
  be:	defe      	udf	#254	; 0xfe

Disassembly of section .text._ZN9cstr_core4CStr29from_bytes_with_nul_unchecked17h548a02652c0eaf7dE:

00000000 <_ZN9cstr_core4CStr29from_bytes_with_nul_unchecked17h548a02652c0eaf7dE>:
_ZN9cstr_core4CStr29from_bytes_with_nul_unchecked17h548a02652c0eaf7dE():
/Users/Luppy/.cargo/registry/src/github.com-1ecc6299db9ec823/cstr_core-0.1.2/src/lib.rs:963
    ///     let cstr = CStr::from_bytes_with_nul_unchecked(cstring.to_bytes_with_nul());
    ///     assert_eq!(cstr, &*cstring);
    /// }
    /// ```
    #[inline]
    pub unsafe fn from_bytes_with_nul_unchecked(bytes: &[u8]) -> &CStr {
   0:	b084      	sub	sp, #16
   2:	460a      	mov	r2, r1
   4:	4603      	mov	r3, r0
   6:	9002      	str	r0, [sp, #8]
   8:	9103      	str	r1, [sp, #12]
/Users/Luppy/.cargo/registry/src/github.com-1ecc6299db9ec823/cstr_core-0.1.2/src/lib.rs:964
        &*(bytes as *const [u8] as *const CStr)
   a:	9802      	ldr	r0, [sp, #8]
   c:	9903      	ldr	r1, [sp, #12]
/Users/Luppy/.cargo/registry/src/github.com-1ecc6299db9ec823/cstr_core-0.1.2/src/lib.rs:965
    }
   e:	9201      	str	r2, [sp, #4]
  10:	9300      	str	r3, [sp, #0]
  12:	b004      	add	sp, #16
  14:	4770      	bx	lr

Disassembly of section .text._ZN9cstr_core4CStr8to_bytes17ha8e1434805790b77E:

00000000 <_ZN9cstr_core4CStr8to_bytes17ha8e1434805790b77E>:
_ZN9cstr_core4CStr8to_bytes17ha8e1434805790b77E():
/Users/Luppy/.cargo/registry/src/github.com-1ecc6299db9ec823/cstr_core-0.1.2/src/lib.rs:1031
    ///
    /// let c_str = CStr::from_bytes_with_nul(b"foo\0").unwrap();
    /// assert_eq!(c_str.to_bytes(), b"foo");
    /// ```
    #[inline]
    pub fn to_bytes(&self) -> &[u8] {
   0:	b580      	push	{r7, lr}
   2:	b08e      	sub	sp, #56	; 0x38
   4:	460a      	mov	r2, r1
   6:	4603      	mov	r3, r0
   8:	9009      	str	r0, [sp, #36]	; 0x24
   a:	910a      	str	r1, [sp, #40]	; 0x28
/Users/Luppy/.cargo/registry/src/github.com-1ecc6299db9ec823/cstr_core-0.1.2/src/lib.rs:1032
        let bytes = self.to_bytes_with_nul();
   c:	9809      	ldr	r0, [sp, #36]	; 0x24
   e:	990a      	ldr	r1, [sp, #40]	; 0x28
  10:	9208      	str	r2, [sp, #32]
  12:	9307      	str	r3, [sp, #28]
  14:	f7ff fffe 	bl	0 <_ZN9cstr_core4CStr8to_bytes17ha8e1434805790b77E>
  18:	910c      	str	r1, [sp, #48]	; 0x30
  1a:	900b      	str	r0, [sp, #44]	; 0x2c
  1c:	e7ff      	b.n	1e <_ZN9cstr_core4CStr8to_bytes17ha8e1434805790b77E+0x1e>
/Users/Luppy/.cargo/registry/src/github.com-1ecc6299db9ec823/cstr_core-0.1.2/src/lib.rs:1033
        &bytes[..bytes.len() - 1]
  1e:	980b      	ldr	r0, [sp, #44]	; 0x2c
  20:	990c      	ldr	r1, [sp, #48]	; 0x30
  22:	9006      	str	r0, [sp, #24]
  24:	9105      	str	r1, [sp, #20]
  26:	f7ff fffe 	bl	0 <_ZN4core5slice29_$LT$impl$u20$$u5b$T$u5d$$GT$3len17h63f985867d9f263fE>
  2a:	9004      	str	r0, [sp, #16]
  2c:	e7ff      	b.n	2e <_ZN9cstr_core4CStr8to_bytes17ha8e1434805790b77E+0x2e>
  2e:	9804      	ldr	r0, [sp, #16]
  30:	1e41      	subs	r1, r0, #1
  32:	2801      	cmp	r0, #1
  34:	9103      	str	r1, [sp, #12]
  36:	d30e      	bcc.n	56 <_ZN9cstr_core4CStr8to_bytes17ha8e1434805790b77E+0x56>
  38:	e7ff      	b.n	3a <_ZN9cstr_core4CStr8to_bytes17ha8e1434805790b77E+0x3a>
  3a:	9803      	ldr	r0, [sp, #12]
  3c:	900d      	str	r0, [sp, #52]	; 0x34
  3e:	9a0d      	ldr	r2, [sp, #52]	; 0x34
  40:	9806      	ldr	r0, [sp, #24]
  42:	9905      	ldr	r1, [sp, #20]
  44:	f7ff fffe 	bl	0 <_ZN4core5slice74_$LT$impl$u20$core..ops..index..Index$LT$I$GT$$u20$for$u20$$u5b$T$u5d$$GT$5index17h0593a8c433e1e3beE>
  48:	9002      	str	r0, [sp, #8]
  4a:	9101      	str	r1, [sp, #4]
  4c:	e7ff      	b.n	4e <_ZN9cstr_core4CStr8to_bytes17ha8e1434805790b77E+0x4e>
/Users/Luppy/.cargo/registry/src/github.com-1ecc6299db9ec823/cstr_core-0.1.2/src/lib.rs:1034
    }
  4e:	9802      	ldr	r0, [sp, #8]
  50:	9901      	ldr	r1, [sp, #4]
  52:	b00e      	add	sp, #56	; 0x38
  54:	bd80      	pop	{r7, pc}
/Users/Luppy/.cargo/registry/src/github.com-1ecc6299db9ec823/cstr_core-0.1.2/src/lib.rs:1033
        &bytes[..bytes.len() - 1]
  56:	f240 0000 	movw	r0, #0
  5a:	f2c0 0000 	movt	r0, #0
  5e:	f7ff fffe 	bl	0 <_ZN4core9panicking5panic17h53ca63c6ac6312f8E>
  62:	defe      	udf	#254	; 0xfe

Disassembly of section .text._ZN9cstr_core4CStr17to_bytes_with_nul17h4ab80d76fa999e26E:

00000000 <_ZN9cstr_core4CStr17to_bytes_with_nul17h4ab80d76fa999e26E>:
_ZN9cstr_core4CStr17to_bytes_with_nul17h4ab80d76fa999e26E():
/Users/Luppy/.cargo/registry/src/github.com-1ecc6299db9ec823/cstr_core-0.1.2/src/lib.rs:1056
    ///
    /// let c_str = CStr::from_bytes_with_nul(b"foo\0").unwrap();
    /// assert_eq!(c_str.to_bytes_with_nul(), b"foo\0");
    /// ```
    #[inline]
    pub fn to_bytes_with_nul(&self) -> &[u8] {
   0:	b084      	sub	sp, #16
   2:	460a      	mov	r2, r1
   4:	4603      	mov	r3, r0
   6:	9002      	str	r0, [sp, #8]
   8:	9103      	str	r1, [sp, #12]
/Users/Luppy/.cargo/registry/src/github.com-1ecc6299db9ec823/cstr_core-0.1.2/src/lib.rs:1057
        unsafe { &*(&self.inner as *const [c_char] as *const [u8]) }
   a:	9802      	ldr	r0, [sp, #8]
   c:	9903      	ldr	r1, [sp, #12]
/Users/Luppy/.cargo/registry/src/github.com-1ecc6299db9ec823/cstr_core-0.1.2/src/lib.rs:1058
    }
   e:	9201      	str	r2, [sp, #4]
  10:	9300      	str	r3, [sp, #0]
  12:	b004      	add	sp, #16
  14:	4770      	bx	lr

Disassembly of section .text._ZN9cstr_core4CStr6to_str17hf4495ee47611f0b8E:

00000000 <_ZN9cstr_core4CStr6to_str17hf4495ee47611f0b8E>:
_ZN9cstr_core4CStr6to_str17hf4495ee47611f0b8E():
/Users/Luppy/.cargo/registry/src/github.com-1ecc6299db9ec823/cstr_core-0.1.2/src/lib.rs:1080
    /// use cstr_core::CStr;
    ///
    /// let c_str = CStr::from_bytes_with_nul(b"foo\0").unwrap();
    /// assert_eq!(c_str.to_str(), Ok("foo"));
    /// ```
    pub fn to_str(&self) -> Result<&str, Utf8Error> {
   0:	b580      	push	{r7, lr}
   2:	b088      	sub	sp, #32
   4:	4613      	mov	r3, r2
   6:	468c      	mov	ip, r1
   8:	9106      	str	r1, [sp, #24]
   a:	9207      	str	r2, [sp, #28]
/Users/Luppy/.cargo/registry/src/github.com-1ecc6299db9ec823/cstr_core-0.1.2/src/lib.rs:1085
        // NB: When CStr is changed to perform the length check in .to_bytes()
        // instead of in from_ptr(), it may be worth considering if this should
        // be rewritten to do the UTF-8 check inline with the length calculation
        // instead of doing it afterwards.
        str::from_utf8(self.to_bytes())
   c:	9906      	ldr	r1, [sp, #24]
   e:	9a07      	ldr	r2, [sp, #28]
  10:	9005      	str	r0, [sp, #20]
  12:	4608      	mov	r0, r1
  14:	4611      	mov	r1, r2
  16:	9304      	str	r3, [sp, #16]
  18:	f8cd c00c 	str.w	ip, [sp, #12]
  1c:	f7ff fffe 	bl	0 <_ZN9cstr_core4CStr6to_str17hf4495ee47611f0b8E>
  20:	9002      	str	r0, [sp, #8]
  22:	9101      	str	r1, [sp, #4]
  24:	e7ff      	b.n	26 <_ZN9cstr_core4CStr6to_str17hf4495ee47611f0b8E+0x26>
  26:	9805      	ldr	r0, [sp, #20]
  28:	9902      	ldr	r1, [sp, #8]
  2a:	9a01      	ldr	r2, [sp, #4]
  2c:	f7ff fffe 	bl	0 <_ZN4core3str9from_utf817hd7172c09534810eaE>
  30:	e7ff      	b.n	32 <_ZN9cstr_core4CStr6to_str17hf4495ee47611f0b8E+0x32>
/Users/Luppy/.cargo/registry/src/github.com-1ecc6299db9ec823/cstr_core-0.1.2/src/lib.rs:1086
    }
  32:	b008      	add	sp, #32
  34:	bd80      	pop	{r7, pc}

Disassembly of section .text._ZN56_$LT$cstr_core..CStr$u20$as$u20$core..cmp..PartialEq$GT$2eq17h38086540918fdae5E:

00000000 <_ZN56_$LT$cstr_core..CStr$u20$as$u20$core..cmp..PartialEq$GT$2eq17h38086540918fdae5E>:
_ZN56_$LT$cstr_core..CStr$u20$as$u20$core..cmp..PartialEq$GT$2eq17h38086540918fdae5E():
/Users/Luppy/.cargo/registry/src/github.com-1ecc6299db9ec823/cstr_core-0.1.2/src/lib.rs:1156
        }
    }
}

impl PartialEq for CStr {
    fn eq(&self, other: &CStr) -> bool {
   0:	b5b0      	push	{r4, r5, r7, lr}
   2:	b08e      	sub	sp, #56	; 0x38
   4:	469c      	mov	ip, r3
   6:	4696      	mov	lr, r2
   8:	460c      	mov	r4, r1
   a:	4605      	mov	r5, r0
   c:	900a      	str	r0, [sp, #40]	; 0x28
   e:	910b      	str	r1, [sp, #44]	; 0x2c
  10:	920c      	str	r2, [sp, #48]	; 0x30
  12:	930d      	str	r3, [sp, #52]	; 0x34
/Users/Luppy/.cargo/registry/src/github.com-1ecc6299db9ec823/cstr_core-0.1.2/src/lib.rs:1157
        self.to_bytes().eq(other.to_bytes())
  14:	980a      	ldr	r0, [sp, #40]	; 0x28
  16:	990b      	ldr	r1, [sp, #44]	; 0x2c
  18:	f8cd c024 	str.w	ip, [sp, #36]	; 0x24
  1c:	f8cd e020 	str.w	lr, [sp, #32]
  20:	9407      	str	r4, [sp, #28]
  22:	9506      	str	r5, [sp, #24]
  24:	f7ff fffe 	bl	0 <_ZN56_$LT$cstr_core..CStr$u20$as$u20$core..cmp..PartialEq$GT$2eq17h38086540918fdae5E>
  28:	9005      	str	r0, [sp, #20]
  2a:	9104      	str	r1, [sp, #16]
  2c:	e7ff      	b.n	2e <_ZN56_$LT$cstr_core..CStr$u20$as$u20$core..cmp..PartialEq$GT$2eq17h38086540918fdae5E+0x2e>
  2e:	980c      	ldr	r0, [sp, #48]	; 0x30
  30:	990d      	ldr	r1, [sp, #52]	; 0x34
  32:	f7ff fffe 	bl	0 <_ZN56_$LT$cstr_core..CStr$u20$as$u20$core..cmp..PartialEq$GT$2eq17h38086540918fdae5E>
  36:	9003      	str	r0, [sp, #12]
  38:	9102      	str	r1, [sp, #8]
  3a:	e7ff      	b.n	3c <_ZN56_$LT$cstr_core..CStr$u20$as$u20$core..cmp..PartialEq$GT$2eq17h38086540918fdae5E+0x3c>
  3c:	9805      	ldr	r0, [sp, #20]
  3e:	9904      	ldr	r1, [sp, #16]
  40:	9a03      	ldr	r2, [sp, #12]
  42:	9b02      	ldr	r3, [sp, #8]
  44:	f7ff fffe 	bl	0 <_ZN4core5slice81_$LT$impl$u20$core..cmp..PartialEq$LT$$u5b$B$u5d$$GT$$u20$for$u20$$u5b$A$u5d$$GT$2eq17hc091c42e680bb162E>
  48:	9001      	str	r0, [sp, #4]
  4a:	e7ff      	b.n	4c <_ZN56_$LT$cstr_core..CStr$u20$as$u20$core..cmp..PartialEq$GT$2eq17h38086540918fdae5E+0x4c>
/Users/Luppy/.cargo/registry/src/github.com-1ecc6299db9ec823/cstr_core-0.1.2/src/lib.rs:1158
    }
  4c:	9801      	ldr	r0, [sp, #4]
  4e:	f000 0001 	and.w	r0, r0, #1
  52:	b00e      	add	sp, #56	; 0x38
  54:	bdb0      	pop	{r4, r5, r7, pc}

Disassembly of section .text._ZN57_$LT$cstr_core..CStr$u20$as$u20$core..cmp..PartialOrd$GT$11partial_cmp17h01c77043b42fb9d5E:

00000000 <_ZN57_$LT$cstr_core..CStr$u20$as$u20$core..cmp..PartialOrd$GT$11partial_cmp17h01c77043b42fb9d5E>:
_ZN57_$LT$cstr_core..CStr$u20$as$u20$core..cmp..PartialOrd$GT$11partial_cmp17h01c77043b42fb9d5E():
/Users/Luppy/.cargo/registry/src/github.com-1ecc6299db9ec823/cstr_core-0.1.2/src/lib.rs:1162
}
impl Eq for CStr {}
impl PartialOrd for CStr {
    fn partial_cmp(&self, other: &CStr) -> Option<Ordering> {
   0:	b5b0      	push	{r4, r5, r7, lr}
   2:	b08e      	sub	sp, #56	; 0x38
   4:	469c      	mov	ip, r3
   6:	4696      	mov	lr, r2
   8:	460c      	mov	r4, r1
   a:	4605      	mov	r5, r0
   c:	9008      	str	r0, [sp, #32]
   e:	9109      	str	r1, [sp, #36]	; 0x24
  10:	920a      	str	r2, [sp, #40]	; 0x28
  12:	930b      	str	r3, [sp, #44]	; 0x2c
/Users/Luppy/.cargo/registry/src/github.com-1ecc6299db9ec823/cstr_core-0.1.2/src/lib.rs:1163
        self.to_bytes().partial_cmp(&other.to_bytes())
  14:	9808      	ldr	r0, [sp, #32]
  16:	9909      	ldr	r1, [sp, #36]	; 0x24
  18:	f8cd c01c 	str.w	ip, [sp, #28]
  1c:	f8cd e018 	str.w	lr, [sp, #24]
  20:	9405      	str	r4, [sp, #20]
  22:	9504      	str	r5, [sp, #16]
  24:	f7ff fffe 	bl	0 <_ZN57_$LT$cstr_core..CStr$u20$as$u20$core..cmp..PartialOrd$GT$11partial_cmp17h01c77043b42fb9d5E>
  28:	9003      	str	r0, [sp, #12]
  2a:	9102      	str	r1, [sp, #8]
  2c:	e7ff      	b.n	2e <_ZN57_$LT$cstr_core..CStr$u20$as$u20$core..cmp..PartialOrd$GT$11partial_cmp17h01c77043b42fb9d5E+0x2e>
  2e:	980a      	ldr	r0, [sp, #40]	; 0x28
  30:	990b      	ldr	r1, [sp, #44]	; 0x2c
  32:	f7ff fffe 	bl	0 <_ZN57_$LT$cstr_core..CStr$u20$as$u20$core..cmp..PartialOrd$GT$11partial_cmp17h01c77043b42fb9d5E>
  36:	910d      	str	r1, [sp, #52]	; 0x34
  38:	900c      	str	r0, [sp, #48]	; 0x30
  3a:	e7ff      	b.n	3c <_ZN57_$LT$cstr_core..CStr$u20$as$u20$core..cmp..PartialOrd$GT$11partial_cmp17h01c77043b42fb9d5E+0x3c>
  3c:	9a0c      	ldr	r2, [sp, #48]	; 0x30
  3e:	9b0d      	ldr	r3, [sp, #52]	; 0x34
  40:	9803      	ldr	r0, [sp, #12]
  42:	9902      	ldr	r1, [sp, #8]
  44:	f7ff fffe 	bl	0 <_ZN4core5slice63_$LT$impl$u20$core..cmp..PartialOrd$u20$for$u20$$u5b$T$u5d$$GT$11partial_cmp17hba9501e00aaedbdcE>
  48:	9001      	str	r0, [sp, #4]
  4a:	e7ff      	b.n	4c <_ZN57_$LT$cstr_core..CStr$u20$as$u20$core..cmp..PartialOrd$GT$11partial_cmp17h01c77043b42fb9d5E+0x4c>
/Users/Luppy/.cargo/registry/src/github.com-1ecc6299db9ec823/cstr_core-0.1.2/src/lib.rs:1164
    }
  4c:	9801      	ldr	r0, [sp, #4]
  4e:	b00e      	add	sp, #56	; 0x38
  50:	bdb0      	pop	{r4, r5, r7, pc}

Disassembly of section .text._ZN50_$LT$cstr_core..CStr$u20$as$u20$core..cmp..Ord$GT$3cmp17hf8d2c8e5631bcd86E:

00000000 <_ZN50_$LT$cstr_core..CStr$u20$as$u20$core..cmp..Ord$GT$3cmp17hf8d2c8e5631bcd86E>:
_ZN50_$LT$cstr_core..CStr$u20$as$u20$core..cmp..Ord$GT$3cmp17hf8d2c8e5631bcd86E():
/Users/Luppy/.cargo/registry/src/github.com-1ecc6299db9ec823/cstr_core-0.1.2/src/lib.rs:1167
}
impl Ord for CStr {
    fn cmp(&self, other: &CStr) -> Ordering {
   0:	b5b0      	push	{r4, r5, r7, lr}
   2:	b08e      	sub	sp, #56	; 0x38
   4:	469c      	mov	ip, r3
   6:	4696      	mov	lr, r2
   8:	460c      	mov	r4, r1
   a:	4605      	mov	r5, r0
   c:	9008      	str	r0, [sp, #32]
   e:	9109      	str	r1, [sp, #36]	; 0x24
  10:	920a      	str	r2, [sp, #40]	; 0x28
  12:	930b      	str	r3, [sp, #44]	; 0x2c
/Users/Luppy/.cargo/registry/src/github.com-1ecc6299db9ec823/cstr_core-0.1.2/src/lib.rs:1168
        self.to_bytes().cmp(&other.to_bytes())
  14:	9808      	ldr	r0, [sp, #32]
  16:	9909      	ldr	r1, [sp, #36]	; 0x24
  18:	f8cd c01c 	str.w	ip, [sp, #28]
  1c:	f8cd e018 	str.w	lr, [sp, #24]
  20:	9405      	str	r4, [sp, #20]
  22:	9504      	str	r5, [sp, #16]
  24:	f7ff fffe 	bl	0 <_ZN50_$LT$cstr_core..CStr$u20$as$u20$core..cmp..Ord$GT$3cmp17hf8d2c8e5631bcd86E>
  28:	9003      	str	r0, [sp, #12]
  2a:	9102      	str	r1, [sp, #8]
  2c:	e7ff      	b.n	2e <_ZN50_$LT$cstr_core..CStr$u20$as$u20$core..cmp..Ord$GT$3cmp17hf8d2c8e5631bcd86E+0x2e>
  2e:	980a      	ldr	r0, [sp, #40]	; 0x28
  30:	990b      	ldr	r1, [sp, #44]	; 0x2c
  32:	f7ff fffe 	bl	0 <_ZN50_$LT$cstr_core..CStr$u20$as$u20$core..cmp..Ord$GT$3cmp17hf8d2c8e5631bcd86E>
  36:	910d      	str	r1, [sp, #52]	; 0x34
  38:	900c      	str	r0, [sp, #48]	; 0x30
  3a:	e7ff      	b.n	3c <_ZN50_$LT$cstr_core..CStr$u20$as$u20$core..cmp..Ord$GT$3cmp17hf8d2c8e5631bcd86E+0x3c>
  3c:	9a0c      	ldr	r2, [sp, #48]	; 0x30
  3e:	9b0d      	ldr	r3, [sp, #52]	; 0x34
  40:	9803      	ldr	r0, [sp, #12]
  42:	9902      	ldr	r1, [sp, #8]
  44:	f7ff fffe 	bl	0 <_ZN4core5slice56_$LT$impl$u20$core..cmp..Ord$u20$for$u20$$u5b$T$u5d$$GT$3cmp17h5677eb130bb1f03dE>
  48:	9001      	str	r0, [sp, #4]
  4a:	e7ff      	b.n	4c <_ZN50_$LT$cstr_core..CStr$u20$as$u20$core..cmp..Ord$GT$3cmp17hf8d2c8e5631bcd86E+0x4c>
/Users/Luppy/.cargo/registry/src/github.com-1ecc6299db9ec823/cstr_core-0.1.2/src/lib.rs:1169
    }
  4c:	9801      	ldr	r0, [sp, #4]
  4e:	b00e      	add	sp, #56	; 0x38
  50:	bdb0      	pop	{r4, r5, r7, pc}

Disassembly of section .text._ZN69_$LT$cstr_core..FromBytesWithNulError$u20$as$u20$core..fmt..Debug$GT$3fmt17hbdb2b74657df673cE:

00000000 <_ZN69_$LT$cstr_core..FromBytesWithNulError$u20$as$u20$core..fmt..Debug$GT$3fmt17hbdb2b74657df673cE>:
_ZN69_$LT$cstr_core..FromBytesWithNulError$u20$as$u20$core..fmt..Debug$GT$3fmt17hbdb2b74657df673cE():
/Users/Luppy/.cargo/registry/src/github.com-1ecc6299db9ec823/cstr_core-0.1.2/src/lib.rs:320
#[derive(Clone, PartialEq, Eq, Debug)]
   0:	b580      	push	{r7, lr}
   2:	b08c      	sub	sp, #48	; 0x30
   4:	460a      	mov	r2, r1
   6:	4603      	mov	r3, r0
   8:	9006      	str	r0, [sp, #24]
   a:	9107      	str	r1, [sp, #28]
/Users/Luppy/.cargo/registry/src/github.com-1ecc6299db9ec823/cstr_core-0.1.2/src/lib.rs:322
    kind: FromBytesWithNulErrorKind,
   c:	9806      	ldr	r0, [sp, #24]
   e:	9008      	str	r0, [sp, #32]
/Users/Luppy/.cargo/registry/src/github.com-1ecc6299db9ec823/cstr_core-0.1.2/src/lib.rs:320
#[derive(Clone, PartialEq, Eq, Debug)]
  10:	9907      	ldr	r1, [sp, #28]
  12:	f240 0000 	movw	r0, #0
  16:	f2c0 0000 	movt	r0, #0
  1a:	f10d 0c24 	add.w	ip, sp, #36	; 0x24
  1e:	f04f 0e15 	mov.w	lr, #21
  22:	9005      	str	r0, [sp, #20]
  24:	4660      	mov	r0, ip
  26:	f8dd c014 	ldr.w	ip, [sp, #20]
  2a:	9204      	str	r2, [sp, #16]
  2c:	4662      	mov	r2, ip
  2e:	9303      	str	r3, [sp, #12]
  30:	4673      	mov	r3, lr
  32:	f7ff fffe 	bl	0 <_ZN4core3fmt9Formatter12debug_struct17h0a14031b095ee1baE>
  36:	e7ff      	b.n	38 <_ZN69_$LT$cstr_core..FromBytesWithNulError$u20$as$u20$core..fmt..Debug$GT$3fmt17hbdb2b74657df673cE+0x38>
/Users/Luppy/.cargo/registry/src/github.com-1ecc6299db9ec823/cstr_core-0.1.2/src/lib.rs:322
    kind: FromBytesWithNulErrorKind,
  38:	9808      	ldr	r0, [sp, #32]
  3a:	900b      	str	r0, [sp, #44]	; 0x2c
/Users/Luppy/.cargo/registry/src/github.com-1ecc6299db9ec823/cstr_core-0.1.2/src/lib.rs:320
#[derive(Clone, PartialEq, Eq, Debug)]
  3c:	f240 0000 	movw	r0, #0
  40:	f2c0 0000 	movt	r0, #0
  44:	4669      	mov	r1, sp
  46:	6008      	str	r0, [r1, #0]
  48:	f240 0100 	movw	r1, #0
  4c:	f2c0 0100 	movt	r1, #0
  50:	a809      	add	r0, sp, #36	; 0x24
  52:	2204      	movs	r2, #4
  54:	ab0b      	add	r3, sp, #44	; 0x2c
  56:	f7ff fffe 	bl	0 <_ZN4core3fmt8builders11DebugStruct5field17h80023aaf54882542E>
  5a:	9002      	str	r0, [sp, #8]
  5c:	e7ff      	b.n	5e <_ZN69_$LT$cstr_core..FromBytesWithNulError$u20$as$u20$core..fmt..Debug$GT$3fmt17hbdb2b74657df673cE+0x5e>
  5e:	a809      	add	r0, sp, #36	; 0x24
  60:	f7ff fffe 	bl	0 <_ZN4core3fmt8builders11DebugStruct6finish17h9090cd1e84004b71E>
  64:	9001      	str	r0, [sp, #4]
  66:	e7ff      	b.n	68 <_ZN69_$LT$cstr_core..FromBytesWithNulError$u20$as$u20$core..fmt..Debug$GT$3fmt17hbdb2b74657df673cE+0x68>
  68:	9801      	ldr	r0, [sp, #4]
  6a:	f000 0001 	and.w	r0, r0, #1
  6e:	b00c      	add	sp, #48	; 0x30
  70:	bd80      	pop	{r7, pc}

Disassembly of section .text._ZN73_$LT$cstr_core..FromBytesWithNulErrorKind$u20$as$u20$core..fmt..Debug$GT$3fmt17h1c1622a841bc7d3aE:

00000000 <_ZN73_$LT$cstr_core..FromBytesWithNulErrorKind$u20$as$u20$core..fmt..Debug$GT$3fmt17h1c1622a841bc7d3aE>:
_ZN73_$LT$cstr_core..FromBytesWithNulErrorKind$u20$as$u20$core..fmt..Debug$GT$3fmt17h1c1622a841bc7d3aE():
/Users/Luppy/.cargo/registry/src/github.com-1ecc6299db9ec823/cstr_core-0.1.2/src/lib.rs:325
#[derive(Clone, PartialEq, Eq, Debug)]
   0:	b580      	push	{r7, lr}
   2:	b090      	sub	sp, #64	; 0x40
   4:	460a      	mov	r2, r1
   6:	4603      	mov	r3, r0
   8:	9004      	str	r0, [sp, #16]
   a:	9105      	str	r1, [sp, #20]
   c:	9804      	ldr	r0, [sp, #16]
   e:	9007      	str	r0, [sp, #28]
  10:	9807      	ldr	r0, [sp, #28]
  12:	6800      	ldr	r0, [r0, #0]
  14:	2800      	cmp	r0, #0
  16:	9203      	str	r2, [sp, #12]
  18:	9302      	str	r3, [sp, #8]
  1a:	9001      	str	r0, [sp, #4]
  1c:	d005      	beq.n	2a <_ZN73_$LT$cstr_core..FromBytesWithNulErrorKind$u20$as$u20$core..fmt..Debug$GT$3fmt17h1c1622a841bc7d3aE+0x2a>
  1e:	e7ff      	b.n	20 <_ZN73_$LT$cstr_core..FromBytesWithNulErrorKind$u20$as$u20$core..fmt..Debug$GT$3fmt17h1c1622a841bc7d3aE+0x20>
  20:	9801      	ldr	r0, [sp, #4]
  22:	2801      	cmp	r0, #1
  24:	d021      	beq.n	6a <_ZN73_$LT$cstr_core..FromBytesWithNulErrorKind$u20$as$u20$core..fmt..Debug$GT$3fmt17h1c1622a841bc7d3aE+0x6a>
  26:	e7ff      	b.n	28 <_ZN73_$LT$cstr_core..FromBytesWithNulErrorKind$u20$as$u20$core..fmt..Debug$GT$3fmt17h1c1622a841bc7d3aE+0x28>
  28:	defe      	udf	#254	; 0xfe
/Users/Luppy/.cargo/registry/src/github.com-1ecc6299db9ec823/cstr_core-0.1.2/src/lib.rs:327
    InteriorNul(usize),
  2a:	9807      	ldr	r0, [sp, #28]
  2c:	3004      	adds	r0, #4
  2e:	9008      	str	r0, [sp, #32]
/Users/Luppy/.cargo/registry/src/github.com-1ecc6299db9ec823/cstr_core-0.1.2/src/lib.rs:325
#[derive(Clone, PartialEq, Eq, Debug)]
  30:	9905      	ldr	r1, [sp, #20]
  32:	f240 0200 	movw	r2, #0
  36:	f2c0 0200 	movt	r2, #0
  3a:	a809      	add	r0, sp, #36	; 0x24
  3c:	230b      	movs	r3, #11
  3e:	f7ff fffe 	bl	0 <_ZN4core3fmt9Formatter11debug_tuple17h793087e8ecab9022E>
  42:	e7ff      	b.n	44 <_ZN73_$LT$cstr_core..FromBytesWithNulErrorKind$u20$as$u20$core..fmt..Debug$GT$3fmt17h1c1622a841bc7d3aE+0x44>
/Users/Luppy/.cargo/registry/src/github.com-1ecc6299db9ec823/cstr_core-0.1.2/src/lib.rs:327
    InteriorNul(usize),
  44:	9808      	ldr	r0, [sp, #32]
  46:	900c      	str	r0, [sp, #48]	; 0x30
/Users/Luppy/.cargo/registry/src/github.com-1ecc6299db9ec823/cstr_core-0.1.2/src/lib.rs:325
#[derive(Clone, PartialEq, Eq, Debug)]
  48:	f240 0200 	movw	r2, #0
  4c:	f2c0 0200 	movt	r2, #0
  50:	a809      	add	r0, sp, #36	; 0x24
  52:	a90c      	add	r1, sp, #48	; 0x30
  54:	f7ff fffe 	bl	0 <_ZN4core3fmt8builders10DebugTuple5field17h7da5ac79cde13c49E>
  58:	9000      	str	r0, [sp, #0]
  5a:	e7ff      	b.n	5c <_ZN73_$LT$cstr_core..FromBytesWithNulErrorKind$u20$as$u20$core..fmt..Debug$GT$3fmt17h1c1622a841bc7d3aE+0x5c>
  5c:	a809      	add	r0, sp, #36	; 0x24
  5e:	f7ff fffe 	bl	0 <_ZN4core3fmt8builders10DebugTuple6finish17h24d91625b3672e6dE>
  62:	f88d 001b 	strb.w	r0, [sp, #27]
  66:	e7ff      	b.n	68 <_ZN73_$LT$cstr_core..FromBytesWithNulErrorKind$u20$as$u20$core..fmt..Debug$GT$3fmt17h1c1622a841bc7d3aE+0x68>
  68:	e010      	b.n	8c <_ZN73_$LT$cstr_core..FromBytesWithNulErrorKind$u20$as$u20$core..fmt..Debug$GT$3fmt17h1c1622a841bc7d3aE+0x8c>
  6a:	9905      	ldr	r1, [sp, #20]
  6c:	f240 0200 	movw	r2, #0
  70:	f2c0 0200 	movt	r2, #0
  74:	a80d      	add	r0, sp, #52	; 0x34
  76:	2310      	movs	r3, #16
  78:	f7ff fffe 	bl	0 <_ZN4core3fmt9Formatter11debug_tuple17h793087e8ecab9022E>
  7c:	e7ff      	b.n	7e <_ZN73_$LT$cstr_core..FromBytesWithNulErrorKind$u20$as$u20$core..fmt..Debug$GT$3fmt17h1c1622a841bc7d3aE+0x7e>
  7e:	a80d      	add	r0, sp, #52	; 0x34
  80:	f7ff fffe 	bl	0 <_ZN4core3fmt8builders10DebugTuple6finish17h24d91625b3672e6dE>
  84:	f88d 001b 	strb.w	r0, [sp, #27]
  88:	e7ff      	b.n	8a <_ZN73_$LT$cstr_core..FromBytesWithNulErrorKind$u20$as$u20$core..fmt..Debug$GT$3fmt17h1c1622a841bc7d3aE+0x8a>
  8a:	e7ff      	b.n	8c <_ZN73_$LT$cstr_core..FromBytesWithNulErrorKind$u20$as$u20$core..fmt..Debug$GT$3fmt17h1c1622a841bc7d3aE+0x8c>
  8c:	f89d 001b 	ldrb.w	r0, [sp, #27]
  90:	b010      	add	sp, #64	; 0x40
  92:	bd80      	pop	{r7, pc}

cstr_core-002f35632daba805.cstr_core.4br1pvmw-cgu.1.rcgu.o:     file format elf32-littlearm

SYMBOL TABLE:
00000000 l    df *ABS*	00000000 cstr_core.4br1pvmw-cgu.1
00000b0f l       .debug_str	00000000 
00000aa1 l       .debug_str	00000000 
00000aac l       .debug_str	00000000 
00000afe l       .debug_str	00000000 
00000b19 l       .debug_str	00000000 
00000b6e l       .debug_str	00000000 
00000b82 l       .debug_str	00000000 
00000bce l       .debug_str	00000000 
00000bda l       .debug_str	00000000 
00000bdf l       .debug_str	00000000 
00000c05 l       .debug_str	00000000 
00000c0e l       .debug_str	00000000 
00000c34 l       .debug_str	00000000 
00000c40 l       .debug_str	00000000 
00000c67 l       .debug_str	00000000 
00000c74 l       .debug_str	00000000 
00000c76 l       .debug_str	00000000 
00000c78 l       .debug_str	00000000 
00000c7e l       .debug_str	00000000 
00000c82 l       .debug_str	00000000 
00000c84 l       .debug_str	00000000 
00000c8f l       .debug_str	00000000 
00000c91 l       .debug_str	00000000 
00000c93 l       .debug_str	00000000 
00000c97 l       .debug_str	00000000 
00000c9d l       .debug_str	00000000 
00000ca1 l       .debug_str	00000000 
00000cae l       .debug_str	00000000 
00000cb2 l       .debug_str	00000000 
00000000 l       .debug_str	00000000 
00000041 l       .debug_str	00000000 
00000099 l       .debug_str	00000000 
000000e6 l       .debug_str	00000000 
000000eb l       .debug_str	00000000 
000000ef l       .debug_str	00000000 
000000f3 l       .debug_str	00000000 
000000fa l       .debug_str	00000000 
000000fd l       .debug_str	00000000 
00000103 l       .debug_str	00000000 
0000011d l       .debug_str	00000000 
00000121 l       .debug_str	00000000 
00000125 l       .debug_str	00000000 
00000129 l       .debug_str	00000000 
0000012d l       .debug_str	00000000 
00000131 l       .debug_str	00000000 
00000137 l       .debug_str	00000000 
00000139 l       .debug_str	00000000 
00000173 l       .debug_str	00000000 
000001ac l       .debug_str	00000000 
000001ef l       .debug_str	00000000 
00000227 l       .debug_str	00000000 
00000258 l       .debug_str	00000000 
0000025d l       .debug_str	00000000 
000002a6 l       .debug_str	00000000 
000002af l       .debug_str	00000000 
00000322 l       .debug_str	00000000 
00000359 l       .debug_str	00000000 
0000038a l       .debug_str	00000000 
000003d4 l       .debug_str	00000000 
000003e3 l       .debug_str	00000000 
00000426 l       .debug_str	00000000 
00000468 l       .debug_str	00000000 
000004ab l       .debug_str	00000000 
000004ec l       .debug_str	00000000 
00000526 l       .debug_str	00000000 
00000578 l       .debug_str	00000000 
000005eb l       .debug_str	00000000 
0000062b l       .debug_str	00000000 
00000665 l       .debug_str	00000000 
000006b8 l       .debug_str	00000000 
000006be l       .debug_str	00000000 
000006d2 l       .debug_str	00000000 
000006e5 l       .debug_str	00000000 
00000723 l       .debug_str	00000000 
00000731 l       .debug_str	00000000 
00000774 l       .debug_str	00000000 
00000786 l       .debug_str	00000000 
00000791 l       .debug_str	00000000 
000007b4 l       .debug_str	00000000 
00000827 l       .debug_str	00000000 
00000838 l       .debug_str	00000000 
00000843 l       .debug_str	00000000 
00000867 l       .debug_str	00000000 
000008ab l       .debug_str	00000000 
000008be l       .debug_str	00000000 
00000902 l       .debug_str	00000000 
00000914 l       .debug_str	00000000 
00000919 l       .debug_str	00000000 
0000094f l       .debug_str	00000000 
0000096a l       .debug_str	00000000 
000009a4 l       .debug_str	00000000 
000009c3 l       .debug_str	00000000 
000009ff l       .debug_str	00000000 
00000a02 l       .debug_str	00000000 
00000a48 l       .debug_str	00000000 
00000a50 l       .debug_str	00000000 
00000a58 l       .debug_str	00000000 
00000000 l     F .text._ZN4core3ptr25swap_nonoverlapping_bytes17h8f7f51ded7d36facE	00000106 _ZN4core3ptr25swap_nonoverlapping_bytes17h8f7f51ded7d36facE
00000000 l    d  .text._ZN4core3ptr19swap_nonoverlapping17ha620648bc0a20261E	00000000 .text._ZN4core3ptr19swap_nonoverlapping17ha620648bc0a20261E
00000000 l    d  .text._ZN4core3ptr23swap_nonoverlapping_one17h34abe6b6202b2c58E	00000000 .text._ZN4core3ptr23swap_nonoverlapping_one17h34abe6b6202b2c58E
00000000 l    d  .text._ZN4core3ptr25swap_nonoverlapping_bytes17h8f7f51ded7d36facE	00000000 .text._ZN4core3ptr25swap_nonoverlapping_bytes17h8f7f51ded7d36facE
00000000 l    d  .text._ZN4core3ptr31_$LT$impl$u20$$BP$mut$u20$T$GT$3add17he095d1e83d7c72c3E	00000000 .text._ZN4core3ptr31_$LT$impl$u20$$BP$mut$u20$T$GT$3add17he095d1e83d7c72c3E
00000000 l    d  .text._ZN4core3ptr31_$LT$impl$u20$$BP$mut$u20$T$GT$6offset17he3ed0b5e2c9f3406E	00000000 .text._ZN4core3ptr31_$LT$impl$u20$$BP$mut$u20$T$GT$6offset17he3ed0b5e2c9f3406E
00000000 l    d  .text._ZN4core3ptr33_$LT$impl$u20$$BP$const$u20$T$GT$12wrapping_add17h1080285cddf344e4E	00000000 .text._ZN4core3ptr33_$LT$impl$u20$$BP$const$u20$T$GT$12wrapping_add17h1080285cddf344e4E
00000000 l    d  .text._ZN4core3ptr33_$LT$impl$u20$$BP$const$u20$T$GT$15wrapping_offset17hd71f8a6979fbad80E	00000000 .text._ZN4core3ptr33_$LT$impl$u20$$BP$const$u20$T$GT$15wrapping_offset17hd71f8a6979fbad80E
00000000 l    d  .text._ZN4core3ptr33_$LT$impl$u20$$BP$const$u20$T$GT$7is_null17h5dfc35f677b1147aE	00000000 .text._ZN4core3ptr33_$LT$impl$u20$$BP$const$u20$T$GT$7is_null17h5dfc35f677b1147aE
00000000 l    d  .text._ZN4core3ptr4null17h8bbb43e46b26b74aE	00000000 .text._ZN4core3ptr4null17h8bbb43e46b26b74aE
00000000 l    d  .text._ZN4core3ptr4read17hd502bbc8ba3aabd4E	00000000 .text._ZN4core3ptr4read17hd502bbc8ba3aabd4E
00000000 l    d  .text._ZN4core3ptr5write17h4641f61a88075460E	00000000 .text._ZN4core3ptr5write17h4641f61a88075460E
00000000 l    d  .debug_abbrev	00000000 .debug_abbrev
00000000 l    d  .debug_info	00000000 .debug_info
00000000 l    d  .debug_ranges	00000000 .debug_ranges
00000000 l    d  .debug_frame	00000000 .debug_frame
00000000 l    d  .debug_line	00000000 .debug_line
00000000         *UND*	00000000 _ZN4core10intrinsics19copy_nonoverlapping17h0bdf6ae081c159c2E
00000000         *UND*	00000000 _ZN4core10intrinsics19copy_nonoverlapping17h5595299192d6abf2E
00000000         *UND*	00000000 _ZN4core3mem7size_of17ha5be24a1917b21b8E
00000000         *UND*	00000000 _ZN4core3mem7size_of17hd6e821d2e278c7d8E
00000000 g     F .text._ZN4core3ptr19swap_nonoverlapping17ha620648bc0a20261E	00000042 _ZN4core3ptr19swap_nonoverlapping17ha620648bc0a20261E
00000000 g     F .text._ZN4core3ptr23swap_nonoverlapping_one17h34abe6b6202b2c58E	00000054 _ZN4core3ptr23swap_nonoverlapping_one17h34abe6b6202b2c58E
00000000 g     F .text._ZN4core3ptr31_$LT$impl$u20$$BP$mut$u20$T$GT$3add17he095d1e83d7c72c3E	00000022 _ZN4core3ptr31_$LT$impl$u20$$BP$mut$u20$T$GT$3add17he095d1e83d7c72c3E
00000000 g     F .text._ZN4core3ptr31_$LT$impl$u20$$BP$mut$u20$T$GT$6offset17he3ed0b5e2c9f3406E	00000022 _ZN4core3ptr31_$LT$impl$u20$$BP$mut$u20$T$GT$6offset17he3ed0b5e2c9f3406E
00000000 g     F .text._ZN4core3ptr33_$LT$impl$u20$$BP$const$u20$T$GT$12wrapping_add17h1080285cddf344e4E	00000022 _ZN4core3ptr33_$LT$impl$u20$$BP$const$u20$T$GT$12wrapping_add17h1080285cddf344e4E
00000000 g     F .text._ZN4core3ptr33_$LT$impl$u20$$BP$const$u20$T$GT$15wrapping_offset17hd71f8a6979fbad80E	00000022 _ZN4core3ptr33_$LT$impl$u20$$BP$const$u20$T$GT$15wrapping_offset17hd71f8a6979fbad80E
00000000 g     F .text._ZN4core3ptr33_$LT$impl$u20$$BP$const$u20$T$GT$7is_null17h5dfc35f677b1147aE	00000026 _ZN4core3ptr33_$LT$impl$u20$$BP$const$u20$T$GT$7is_null17h5dfc35f677b1147aE
00000000 g     F .text._ZN4core3ptr4null17h8bbb43e46b26b74aE	00000004 _ZN4core3ptr4null17h8bbb43e46b26b74aE
00000000 g     F .text._ZN4core3ptr4read17hd502bbc8ba3aabd4E	00000042 _ZN4core3ptr4read17hd502bbc8ba3aabd4E
00000000 g     F .text._ZN4core3ptr5write17h4641f61a88075460E	00000018 _ZN4core3ptr5write17h4641f61a88075460E



Disassembly of section .text._ZN4core3ptr19swap_nonoverlapping17ha620648bc0a20261E:

00000000 <_ZN4core3ptr19swap_nonoverlapping17ha620648bc0a20261E>:
_ZN4core3ptr19swap_nonoverlapping17ha620648bc0a20261E():
/rustc/50a0defd5a93523067ef239936cc2e0755220904/src/libcore/ptr.rs:349
   0:	b580      	push	{r7, lr}
   2:	b08a      	sub	sp, #40	; 0x28
   4:	4613      	mov	r3, r2
   6:	468c      	mov	ip, r1
   8:	4686      	mov	lr, r0
   a:	9004      	str	r0, [sp, #16]
   c:	9105      	str	r1, [sp, #20]
   e:	9206      	str	r2, [sp, #24]
/rustc/50a0defd5a93523067ef239936cc2e0755220904/src/libcore/ptr.rs:350
  10:	9804      	ldr	r0, [sp, #16]
  12:	9007      	str	r0, [sp, #28]
/rustc/50a0defd5a93523067ef239936cc2e0755220904/src/libcore/ptr.rs:351
  14:	9805      	ldr	r0, [sp, #20]
  16:	9008      	str	r0, [sp, #32]
/rustc/50a0defd5a93523067ef239936cc2e0755220904/src/libcore/ptr.rs:352
  18:	9303      	str	r3, [sp, #12]
  1a:	f8cd c008 	str.w	ip, [sp, #8]
  1e:	f8cd e004 	str.w	lr, [sp, #4]
  22:	f7ff fffe 	bl	0 <_ZN4core3mem7size_of17hd6e821d2e278c7d8E>
  26:	9000      	str	r0, [sp, #0]
  28:	e7ff      	b.n	2a <_ZN4core3ptr19swap_nonoverlapping17ha620648bc0a20261E+0x2a>
  2a:	9806      	ldr	r0, [sp, #24]
  2c:	9900      	ldr	r1, [sp, #0]
  2e:	4348      	muls	r0, r1
  30:	9009      	str	r0, [sp, #36]	; 0x24
/rustc/50a0defd5a93523067ef239936cc2e0755220904/src/libcore/ptr.rs:353
  32:	9807      	ldr	r0, [sp, #28]
  34:	9908      	ldr	r1, [sp, #32]
  36:	9a09      	ldr	r2, [sp, #36]	; 0x24
  38:	f7ff fffe 	bl	0 <_ZN4core3ptr19swap_nonoverlapping17ha620648bc0a20261E>
  3c:	e7ff      	b.n	3e <_ZN4core3ptr19swap_nonoverlapping17ha620648bc0a20261E+0x3e>
/rustc/50a0defd5a93523067ef239936cc2e0755220904/src/libcore/ptr.rs:354
  3e:	b00a      	add	sp, #40	; 0x28
  40:	bd80      	pop	{r7, pc}

Disassembly of section .text._ZN4core3ptr23swap_nonoverlapping_one17h34abe6b6202b2c58E:

00000000 <_ZN4core3ptr23swap_nonoverlapping_one17h34abe6b6202b2c58E>:
_ZN4core3ptr23swap_nonoverlapping_one17h34abe6b6202b2c58E():
/rustc/50a0defd5a93523067ef239936cc2e0755220904/src/libcore/ptr.rs:357
   0:	b580      	push	{r7, lr}
   2:	b086      	sub	sp, #24
   4:	460a      	mov	r2, r1
   6:	4603      	mov	r3, r0
   8:	9003      	str	r0, [sp, #12]
   a:	9104      	str	r1, [sp, #16]
/rustc/50a0defd5a93523067ef239936cc2e0755220904/src/libcore/ptr.rs:360
   c:	9202      	str	r2, [sp, #8]
   e:	9301      	str	r3, [sp, #4]
  10:	f7ff fffe 	bl	0 <_ZN4core3mem7size_of17hd6e821d2e278c7d8E>
  14:	9000      	str	r0, [sp, #0]
  16:	e7ff      	b.n	18 <_ZN4core3ptr23swap_nonoverlapping_one17h34abe6b6202b2c58E+0x18>
  18:	9800      	ldr	r0, [sp, #0]
  1a:	281f      	cmp	r0, #31
  1c:	d811      	bhi.n	42 <_ZN4core3ptr23swap_nonoverlapping_one17h34abe6b6202b2c58E+0x42>
  1e:	e7ff      	b.n	20 <_ZN4core3ptr23swap_nonoverlapping_one17h34abe6b6202b2c58E+0x20>
/rustc/50a0defd5a93523067ef239936cc2e0755220904/src/libcore/ptr.rs:361
  20:	9803      	ldr	r0, [sp, #12]
  22:	f7ff fffe 	bl	0 <_ZN4core3ptr23swap_nonoverlapping_one17h34abe6b6202b2c58E>
  26:	9005      	str	r0, [sp, #20]
  28:	e7ff      	b.n	2a <_ZN4core3ptr23swap_nonoverlapping_one17h34abe6b6202b2c58E+0x2a>
/rustc/50a0defd5a93523067ef239936cc2e0755220904/src/libcore/ptr.rs:362
  2a:	9804      	ldr	r0, [sp, #16]
  2c:	9903      	ldr	r1, [sp, #12]
  2e:	2201      	movs	r2, #1
  30:	f7ff fffe 	bl	0 <_ZN4core10intrinsics19copy_nonoverlapping17h5595299192d6abf2E>
  34:	e7ff      	b.n	36 <_ZN4core3ptr23swap_nonoverlapping_one17h34abe6b6202b2c58E+0x36>
/rustc/50a0defd5a93523067ef239936cc2e0755220904/src/libcore/ptr.rs:363
  36:	9804      	ldr	r0, [sp, #16]
  38:	9905      	ldr	r1, [sp, #20]
  3a:	f7ff fffe 	bl	0 <_ZN4core3ptr23swap_nonoverlapping_one17h34abe6b6202b2c58E>
  3e:	e7ff      	b.n	40 <_ZN4core3ptr23swap_nonoverlapping_one17h34abe6b6202b2c58E+0x40>
/rustc/50a0defd5a93523067ef239936cc2e0755220904/src/libcore/ptr.rs:360
  40:	e006      	b.n	50 <_ZN4core3ptr23swap_nonoverlapping_one17h34abe6b6202b2c58E+0x50>
/rustc/50a0defd5a93523067ef239936cc2e0755220904/src/libcore/ptr.rs:365
  42:	9803      	ldr	r0, [sp, #12]
  44:	9904      	ldr	r1, [sp, #16]
  46:	2201      	movs	r2, #1
  48:	f7ff fffe 	bl	0 <_ZN4core3ptr23swap_nonoverlapping_one17h34abe6b6202b2c58E>
  4c:	e7ff      	b.n	4e <_ZN4core3ptr23swap_nonoverlapping_one17h34abe6b6202b2c58E+0x4e>
/rustc/50a0defd5a93523067ef239936cc2e0755220904/src/libcore/ptr.rs:360
  4e:	e7ff      	b.n	50 <_ZN4core3ptr23swap_nonoverlapping_one17h34abe6b6202b2c58E+0x50>
/rustc/50a0defd5a93523067ef239936cc2e0755220904/src/libcore/ptr.rs:367
  50:	b006      	add	sp, #24
  52:	bd80      	pop	{r7, pc}

Disassembly of section .text._ZN4core3ptr25swap_nonoverlapping_bytes17h8f7f51ded7d36facE:

00000000 <_ZN4core3ptr25swap_nonoverlapping_bytes17h8f7f51ded7d36facE>:
_ZN4core3ptr25swap_nonoverlapping_bytes17h8f7f51ded7d36facE():
/rustc/50a0defd5a93523067ef239936cc2e0755220904/src/libcore/ptr.rs:370
   0:	b5d0      	push	{r4, r6, r7, lr}
   2:	af02      	add	r7, sp, #8
   4:	b0ac      	sub	sp, #176	; 0xb0
   6:	466c      	mov	r4, sp
   8:	f36f 0404 	bfc	r4, #0, #5
   c:	46a5      	mov	sp, r4
   e:	4613      	mov	r3, r2
  10:	468c      	mov	ip, r1
  12:	4686      	mov	lr, r0
  14:	900b      	str	r0, [sp, #44]	; 0x2c
  16:	910c      	str	r1, [sp, #48]	; 0x30
  18:	920d      	str	r2, [sp, #52]	; 0x34
/rustc/50a0defd5a93523067ef239936cc2e0755220904/src/libcore/ptr.rs:381
  1a:	930a      	str	r3, [sp, #40]	; 0x28
  1c:	f8cd c024 	str.w	ip, [sp, #36]	; 0x24
  20:	f8cd e020 	str.w	lr, [sp, #32]
  24:	f7ff fffe 	bl	0 <_ZN4core3mem7size_of17ha5be24a1917b21b8E>
  28:	900e      	str	r0, [sp, #56]	; 0x38
  2a:	e7ff      	b.n	2c <_ZN4core3ptr25swap_nonoverlapping_bytes17h8f7f51ded7d36facE+0x2c>
  2c:	2000      	movs	r0, #0
/rustc/50a0defd5a93523067ef239936cc2e0755220904/src/libcore/ptr.rs:386
  2e:	900f      	str	r0, [sp, #60]	; 0x3c
/rustc/50a0defd5a93523067ef239936cc2e0755220904/src/libcore/ptr.rs:387
  30:	e7ff      	b.n	32 <_ZN4core3ptr25swap_nonoverlapping_bytes17h8f7f51ded7d36facE+0x32>
  32:	980f      	ldr	r0, [sp, #60]	; 0x3c
  34:	990e      	ldr	r1, [sp, #56]	; 0x38
  36:	4408      	add	r0, r1
  38:	990d      	ldr	r1, [sp, #52]	; 0x34
  3a:	4288      	cmp	r0, r1
  3c:	d905      	bls.n	4a <_ZN4core3ptr25swap_nonoverlapping_bytes17h8f7f51ded7d36facE+0x4a>
  3e:	e7ff      	b.n	40 <_ZN4core3ptr25swap_nonoverlapping_bytes17h8f7f51ded7d36facE+0x40>
/rustc/50a0defd5a93523067ef239936cc2e0755220904/src/libcore/ptr.rs:403
  40:	980f      	ldr	r0, [sp, #60]	; 0x3c
  42:	990d      	ldr	r1, [sp, #52]	; 0x34
  44:	4288      	cmp	r0, r1
  46:	d32d      	bcc.n	a4 <_ZN4core3ptr25swap_nonoverlapping_bytes17h8f7f51ded7d36facE+0xa4>
  48:	e059      	b.n	fe <_ZN4core3ptr25swap_nonoverlapping_bytes17h8f7f51ded7d36facE+0xfe>
/rustc/50a0defd5a93523067ef239936cc2e0755220904/src/libcore/ptr.rs:390
  4a:	e7ff      	b.n	4c <_ZN4core3ptr25swap_nonoverlapping_bytes17h8f7f51ded7d36facE+0x4c>
  4c:	a810      	add	r0, sp, #64	; 0x40
  4e:	9028      	str	r0, [sp, #160]	; 0xa0
_ZN4core3mem20MaybeUninit$LT$T$GT$10as_mut_ptr17h1ff4bbdb97db744aE():
/rustc/50a0defd5a93523067ef239936cc2e0755220904/src/libcore/mem.rs:1252
  50:	9828      	ldr	r0, [sp, #160]	; 0xa0
  52:	9029      	str	r0, [sp, #164]	; 0xa4
_ZN79_$LT$core..mem..ManuallyDrop$LT$T$GT$$u20$as$u20$core..ops..deref..DerefMut$GT$9deref_mut17h3b314e1000496f99E():
/rustc/50a0defd5a93523067ef239936cc2e0755220904/src/libcore/mem.rs:887
  54:	9829      	ldr	r0, [sp, #164]	; 0xa4
_ZN4core3ptr25swap_nonoverlapping_bytes17h8f7f51ded7d36facE():
/rustc/50a0defd5a93523067ef239936cc2e0755220904/src/libcore/ptr.rs:391
  56:	9007      	str	r0, [sp, #28]
  58:	e7ff      	b.n	5a <_ZN4core3ptr25swap_nonoverlapping_bytes17h8f7f51ded7d36facE+0x5a>
  5a:	9807      	ldr	r0, [sp, #28]
  5c:	9019      	str	r0, [sp, #100]	; 0x64
/rustc/50a0defd5a93523067ef239936cc2e0755220904/src/libcore/ptr.rs:392
  5e:	980b      	ldr	r0, [sp, #44]	; 0x2c
  60:	990f      	ldr	r1, [sp, #60]	; 0x3c
  62:	f7ff fffe 	bl	0 <_ZN4core3ptr25swap_nonoverlapping_bytes17h8f7f51ded7d36facE>
  66:	901a      	str	r0, [sp, #104]	; 0x68
  68:	e7ff      	b.n	6a <_ZN4core3ptr25swap_nonoverlapping_bytes17h8f7f51ded7d36facE+0x6a>
/rustc/50a0defd5a93523067ef239936cc2e0755220904/src/libcore/ptr.rs:393
  6a:	980c      	ldr	r0, [sp, #48]	; 0x30
  6c:	990f      	ldr	r1, [sp, #60]	; 0x3c
  6e:	f7ff fffe 	bl	0 <_ZN4core3ptr25swap_nonoverlapping_bytes17h8f7f51ded7d36facE>
  72:	901b      	str	r0, [sp, #108]	; 0x6c
  74:	e7ff      	b.n	76 <_ZN4core3ptr25swap_nonoverlapping_bytes17h8f7f51ded7d36facE+0x76>
/rustc/50a0defd5a93523067ef239936cc2e0755220904/src/libcore/ptr.rs:397
  76:	981a      	ldr	r0, [sp, #104]	; 0x68
  78:	9919      	ldr	r1, [sp, #100]	; 0x64
  7a:	9a0e      	ldr	r2, [sp, #56]	; 0x38
  7c:	f7ff fffe 	bl	0 <_ZN4core10intrinsics19copy_nonoverlapping17h0bdf6ae081c159c2E>
  80:	e7ff      	b.n	82 <_ZN4core3ptr25swap_nonoverlapping_bytes17h8f7f51ded7d36facE+0x82>
/rustc/50a0defd5a93523067ef239936cc2e0755220904/src/libcore/ptr.rs:398
  82:	981b      	ldr	r0, [sp, #108]	; 0x6c
  84:	991a      	ldr	r1, [sp, #104]	; 0x68
  86:	9a0e      	ldr	r2, [sp, #56]	; 0x38
  88:	f7ff fffe 	bl	0 <_ZN4core10intrinsics19copy_nonoverlapping17h0bdf6ae081c159c2E>
  8c:	e7ff      	b.n	8e <_ZN4core3ptr25swap_nonoverlapping_bytes17h8f7f51ded7d36facE+0x8e>
/rustc/50a0defd5a93523067ef239936cc2e0755220904/src/libcore/ptr.rs:399
  8e:	9819      	ldr	r0, [sp, #100]	; 0x64
  90:	991b      	ldr	r1, [sp, #108]	; 0x6c
  92:	9a0e      	ldr	r2, [sp, #56]	; 0x38
  94:	f7ff fffe 	bl	0 <_ZN4core10intrinsics19copy_nonoverlapping17h0bdf6ae081c159c2E>
  98:	e7ff      	b.n	9a <_ZN4core3ptr25swap_nonoverlapping_bytes17h8f7f51ded7d36facE+0x9a>
/rustc/50a0defd5a93523067ef239936cc2e0755220904/src/libcore/ptr.rs:400
  9a:	980e      	ldr	r0, [sp, #56]	; 0x38
  9c:	990f      	ldr	r1, [sp, #60]	; 0x3c
  9e:	4408      	add	r0, r1
  a0:	900f      	str	r0, [sp, #60]	; 0x3c
/rustc/50a0defd5a93523067ef239936cc2e0755220904/src/libcore/ptr.rs:387
  a2:	e7c6      	b.n	32 <_ZN4core3ptr25swap_nonoverlapping_bytes17h8f7f51ded7d36facE+0x32>
/rustc/50a0defd5a93523067ef239936cc2e0755220904/src/libcore/ptr.rs:405
  a4:	e7ff      	b.n	a6 <_ZN4core3ptr25swap_nonoverlapping_bytes17h8f7f51ded7d36facE+0xa6>
/rustc/50a0defd5a93523067ef239936cc2e0755220904/src/libcore/ptr.rs:406
  a6:	980d      	ldr	r0, [sp, #52]	; 0x34
  a8:	990f      	ldr	r1, [sp, #60]	; 0x3c
  aa:	1a40      	subs	r0, r0, r1
  ac:	9024      	str	r0, [sp, #144]	; 0x90
  ae:	a81c      	add	r0, sp, #112	; 0x70
  b0:	902a      	str	r0, [sp, #168]	; 0xa8
_ZN4core3mem20MaybeUninit$LT$T$GT$10as_mut_ptr17h5c7c2da70805ae1cE():
/rustc/50a0defd5a93523067ef239936cc2e0755220904/src/libcore/mem.rs:1252
  b2:	982a      	ldr	r0, [sp, #168]	; 0xa8
  b4:	902b      	str	r0, [sp, #172]	; 0xac
_ZN79_$LT$core..mem..ManuallyDrop$LT$T$GT$$u20$as$u20$core..ops..deref..DerefMut$GT$9deref_mut17hdf9d9edc2a55c095E():
/rustc/50a0defd5a93523067ef239936cc2e0755220904/src/libcore/mem.rs:887
  b6:	982b      	ldr	r0, [sp, #172]	; 0xac
_ZN4core3ptr25swap_nonoverlapping_bytes17h8f7f51ded7d36facE():
/rustc/50a0defd5a93523067ef239936cc2e0755220904/src/libcore/ptr.rs:408
  b8:	9006      	str	r0, [sp, #24]
  ba:	e7ff      	b.n	bc <_ZN4core3ptr25swap_nonoverlapping_bytes17h8f7f51ded7d36facE+0xbc>
  bc:	9806      	ldr	r0, [sp, #24]
  be:	9025      	str	r0, [sp, #148]	; 0x94
/rustc/50a0defd5a93523067ef239936cc2e0755220904/src/libcore/ptr.rs:409
  c0:	980b      	ldr	r0, [sp, #44]	; 0x2c
  c2:	990f      	ldr	r1, [sp, #60]	; 0x3c
  c4:	f7ff fffe 	bl	0 <_ZN4core3ptr25swap_nonoverlapping_bytes17h8f7f51ded7d36facE>
  c8:	9026      	str	r0, [sp, #152]	; 0x98
  ca:	e7ff      	b.n	cc <_ZN4core3ptr25swap_nonoverlapping_bytes17h8f7f51ded7d36facE+0xcc>
/rustc/50a0defd5a93523067ef239936cc2e0755220904/src/libcore/ptr.rs:410
  cc:	980c      	ldr	r0, [sp, #48]	; 0x30
  ce:	990f      	ldr	r1, [sp, #60]	; 0x3c
  d0:	f7ff fffe 	bl	0 <_ZN4core3ptr25swap_nonoverlapping_bytes17h8f7f51ded7d36facE>
  d4:	9027      	str	r0, [sp, #156]	; 0x9c
  d6:	e7ff      	b.n	d8 <_ZN4core3ptr25swap_nonoverlapping_bytes17h8f7f51ded7d36facE+0xd8>
/rustc/50a0defd5a93523067ef239936cc2e0755220904/src/libcore/ptr.rs:412
  d8:	9826      	ldr	r0, [sp, #152]	; 0x98
  da:	9925      	ldr	r1, [sp, #148]	; 0x94
  dc:	9a24      	ldr	r2, [sp, #144]	; 0x90
  de:	f7ff fffe 	bl	0 <_ZN4core10intrinsics19copy_nonoverlapping17h0bdf6ae081c159c2E>
  e2:	e7ff      	b.n	e4 <_ZN4core3ptr25swap_nonoverlapping_bytes17h8f7f51ded7d36facE+0xe4>
/rustc/50a0defd5a93523067ef239936cc2e0755220904/src/libcore/ptr.rs:413
  e4:	9827      	ldr	r0, [sp, #156]	; 0x9c
  e6:	9926      	ldr	r1, [sp, #152]	; 0x98
  e8:	9a24      	ldr	r2, [sp, #144]	; 0x90
  ea:	f7ff fffe 	bl	0 <_ZN4core10intrinsics19copy_nonoverlapping17h0bdf6ae081c159c2E>
  ee:	e7ff      	b.n	f0 <_ZN4core3ptr25swap_nonoverlapping_bytes17h8f7f51ded7d36facE+0xf0>
/rustc/50a0defd5a93523067ef239936cc2e0755220904/src/libcore/ptr.rs:414
  f0:	9825      	ldr	r0, [sp, #148]	; 0x94
  f2:	9927      	ldr	r1, [sp, #156]	; 0x9c
  f4:	9a24      	ldr	r2, [sp, #144]	; 0x90
  f6:	f7ff fffe 	bl	0 <_ZN4core10intrinsics19copy_nonoverlapping17h0bdf6ae081c159c2E>
  fa:	e7ff      	b.n	fc <_ZN4core3ptr25swap_nonoverlapping_bytes17h8f7f51ded7d36facE+0xfc>
/rustc/50a0defd5a93523067ef239936cc2e0755220904/src/libcore/ptr.rs:403
  fc:	e7ff      	b.n	fe <_ZN4core3ptr25swap_nonoverlapping_bytes17h8f7f51ded7d36facE+0xfe>
/rustc/50a0defd5a93523067ef239936cc2e0755220904/src/libcore/ptr.rs:416
  fe:	f1a7 0408 	sub.w	r4, r7, #8
 102:	46a5      	mov	sp, r4
 104:	bdd0      	pop	{r4, r6, r7, pc}

Disassembly of section .text._ZN4core3ptr31_$LT$impl$u20$$BP$mut$u20$T$GT$3add17he095d1e83d7c72c3E:

00000000 <_ZN4core3ptr31_$LT$impl$u20$$BP$mut$u20$T$GT$3add17he095d1e83d7c72c3E>:
_ZN4core3ptr31_$LT$impl$u20$$BP$mut$u20$T$GT$3add17he095d1e83d7c72c3E():
/rustc/50a0defd5a93523067ef239936cc2e0755220904/src/libcore/ptr.rs:1938
   0:	b580      	push	{r7, lr}
   2:	b086      	sub	sp, #24
   4:	460a      	mov	r2, r1
   6:	4603      	mov	r3, r0
   8:	9004      	str	r0, [sp, #16]
   a:	9105      	str	r1, [sp, #20]
/rustc/50a0defd5a93523067ef239936cc2e0755220904/src/libcore/ptr.rs:1941
   c:	9804      	ldr	r0, [sp, #16]
   e:	9905      	ldr	r1, [sp, #20]
  10:	9203      	str	r2, [sp, #12]
  12:	9302      	str	r3, [sp, #8]
  14:	f7ff fffe 	bl	0 <_ZN4core3ptr31_$LT$impl$u20$$BP$mut$u20$T$GT$3add17he095d1e83d7c72c3E>
  18:	9001      	str	r0, [sp, #4]
  1a:	e7ff      	b.n	1c <_ZN4core3ptr31_$LT$impl$u20$$BP$mut$u20$T$GT$3add17he095d1e83d7c72c3E+0x1c>
/rustc/50a0defd5a93523067ef239936cc2e0755220904/src/libcore/ptr.rs:1942
  1c:	9801      	ldr	r0, [sp, #4]
  1e:	b006      	add	sp, #24
  20:	bd80      	pop	{r7, pc}

Disassembly of section .text._ZN4core3ptr31_$LT$impl$u20$$BP$mut$u20$T$GT$6offset17he3ed0b5e2c9f3406E:

00000000 <_ZN4core3ptr31_$LT$impl$u20$$BP$mut$u20$T$GT$6offset17he3ed0b5e2c9f3406E>:
_ZN4core3ptr31_$LT$impl$u20$$BP$mut$u20$T$GT$6offset17he3ed0b5e2c9f3406E():
/rustc/50a0defd5a93523067ef239936cc2e0755220904/src/libcore/ptr.rs:1702
   0:	b086      	sub	sp, #24
   2:	460a      	mov	r2, r1
   4:	4603      	mov	r3, r0
   6:	9003      	str	r0, [sp, #12]
   8:	9104      	str	r1, [sp, #16]
/rustc/50a0defd5a93523067ef239936cc2e0755220904/src/libcore/ptr.rs:1703
   a:	9803      	ldr	r0, [sp, #12]
   c:	9904      	ldr	r1, [sp, #16]
   e:	4408      	add	r0, r1
  10:	9005      	str	r0, [sp, #20]
  12:	9805      	ldr	r0, [sp, #20]
  14:	9202      	str	r2, [sp, #8]
  16:	9301      	str	r3, [sp, #4]
  18:	9000      	str	r0, [sp, #0]
  1a:	e7ff      	b.n	1c <_ZN4core3ptr31_$LT$impl$u20$$BP$mut$u20$T$GT$6offset17he3ed0b5e2c9f3406E+0x1c>
/rustc/50a0defd5a93523067ef239936cc2e0755220904/src/libcore/ptr.rs:1704
  1c:	9800      	ldr	r0, [sp, #0]
  1e:	b006      	add	sp, #24
  20:	4770      	bx	lr

Disassembly of section .text._ZN4core3ptr33_$LT$impl$u20$$BP$const$u20$T$GT$12wrapping_add17h1080285cddf344e4E:

00000000 <_ZN4core3ptr33_$LT$impl$u20$$BP$const$u20$T$GT$12wrapping_add17h1080285cddf344e4E>:
_ZN4core3ptr33_$LT$impl$u20$$BP$const$u20$T$GT$12wrapping_add17h1080285cddf344e4E():
/rustc/50a0defd5a93523067ef239936cc2e0755220904/src/libcore/ptr.rs:1392
   0:	b580      	push	{r7, lr}
   2:	b086      	sub	sp, #24
   4:	460a      	mov	r2, r1
   6:	4603      	mov	r3, r0
   8:	9004      	str	r0, [sp, #16]
   a:	9105      	str	r1, [sp, #20]
/rustc/50a0defd5a93523067ef239936cc2e0755220904/src/libcore/ptr.rs:1395
   c:	9804      	ldr	r0, [sp, #16]
   e:	9905      	ldr	r1, [sp, #20]
  10:	9203      	str	r2, [sp, #12]
  12:	9302      	str	r3, [sp, #8]
  14:	f7ff fffe 	bl	0 <_ZN4core3ptr33_$LT$impl$u20$$BP$const$u20$T$GT$12wrapping_add17h1080285cddf344e4E>
  18:	9001      	str	r0, [sp, #4]
  1a:	e7ff      	b.n	1c <_ZN4core3ptr33_$LT$impl$u20$$BP$const$u20$T$GT$12wrapping_add17h1080285cddf344e4E+0x1c>
/rustc/50a0defd5a93523067ef239936cc2e0755220904/src/libcore/ptr.rs:1396
  1c:	9801      	ldr	r0, [sp, #4]
  1e:	b006      	add	sp, #24
  20:	bd80      	pop	{r7, pc}

Disassembly of section .text._ZN4core3ptr33_$LT$impl$u20$$BP$const$u20$T$GT$15wrapping_offset17hd71f8a6979fbad80E:

00000000 <_ZN4core3ptr33_$LT$impl$u20$$BP$const$u20$T$GT$15wrapping_offset17hd71f8a6979fbad80E>:
_ZN4core3ptr33_$LT$impl$u20$$BP$const$u20$T$GT$15wrapping_offset17hd71f8a6979fbad80E():
/rustc/50a0defd5a93523067ef239936cc2e0755220904/src/libcore/ptr.rs:1120
   0:	b086      	sub	sp, #24
   2:	460a      	mov	r2, r1
   4:	4603      	mov	r3, r0
   6:	9003      	str	r0, [sp, #12]
   8:	9104      	str	r1, [sp, #16]
/rustc/50a0defd5a93523067ef239936cc2e0755220904/src/libcore/ptr.rs:1122
   a:	9803      	ldr	r0, [sp, #12]
   c:	9904      	ldr	r1, [sp, #16]
   e:	4408      	add	r0, r1
  10:	9005      	str	r0, [sp, #20]
  12:	9805      	ldr	r0, [sp, #20]
  14:	9202      	str	r2, [sp, #8]
  16:	9301      	str	r3, [sp, #4]
  18:	9000      	str	r0, [sp, #0]
  1a:	e7ff      	b.n	1c <_ZN4core3ptr33_$LT$impl$u20$$BP$const$u20$T$GT$15wrapping_offset17hd71f8a6979fbad80E+0x1c>
/rustc/50a0defd5a93523067ef239936cc2e0755220904/src/libcore/ptr.rs:1124
  1c:	9800      	ldr	r0, [sp, #0]
  1e:	b006      	add	sp, #24
  20:	4770      	bx	lr

Disassembly of section .text._ZN4core3ptr33_$LT$impl$u20$$BP$const$u20$T$GT$7is_null17h5dfc35f677b1147aE:

00000000 <_ZN4core3ptr33_$LT$impl$u20$$BP$const$u20$T$GT$7is_null17h5dfc35f677b1147aE>:
_ZN4core3ptr33_$LT$impl$u20$$BP$const$u20$T$GT$7is_null17h5dfc35f677b1147aE():
/rustc/50a0defd5a93523067ef239936cc2e0755220904/src/libcore/ptr.rs:962
   0:	b580      	push	{r7, lr}
   2:	b084      	sub	sp, #16
   4:	4601      	mov	r1, r0
   6:	9003      	str	r0, [sp, #12]
/rustc/50a0defd5a93523067ef239936cc2e0755220904/src/libcore/ptr.rs:965
   8:	9803      	ldr	r0, [sp, #12]
   a:	9102      	str	r1, [sp, #8]
   c:	9001      	str	r0, [sp, #4]
   e:	f7ff fffe 	bl	0 <_ZN4core3ptr33_$LT$impl$u20$$BP$const$u20$T$GT$7is_null17h5dfc35f677b1147aE>
  12:	9000      	str	r0, [sp, #0]
  14:	e7ff      	b.n	16 <_ZN4core3ptr33_$LT$impl$u20$$BP$const$u20$T$GT$7is_null17h5dfc35f677b1147aE+0x16>
  16:	9801      	ldr	r0, [sp, #4]
  18:	9900      	ldr	r1, [sp, #0]
  1a:	1a42      	subs	r2, r0, r1
  1c:	fab2 f282 	clz	r2, r2
  20:	0950      	lsrs	r0, r2, #5
/rustc/50a0defd5a93523067ef239936cc2e0755220904/src/libcore/ptr.rs:966
  22:	b004      	add	sp, #16
  24:	bd80      	pop	{r7, pc}

Disassembly of section .text._ZN4core3ptr4null17h8bbb43e46b26b74aE:

00000000 <_ZN4core3ptr4null17h8bbb43e46b26b74aE>:
_ZN4core3ptr4null17h8bbb43e46b26b74aE():
/rustc/50a0defd5a93523067ef239936cc2e0755220904/src/libcore/ptr.rs:214
   0:	2000      	movs	r0, #0
   2:	4770      	bx	lr

Disassembly of section .text._ZN4core3ptr4read17hd502bbc8ba3aabd4E:

00000000 <_ZN4core3ptr4read17hd502bbc8ba3aabd4E>:
_ZN4core3ptr4read17hd502bbc8ba3aabd4E():
/rustc/50a0defd5a93523067ef239936cc2e0755220904/src/libcore/ptr.rs:572
   0:	b580      	push	{r7, lr}
   2:	b08c      	sub	sp, #48	; 0x30
   4:	4601      	mov	r1, r0
   6:	9005      	str	r0, [sp, #20]
_ZN4core3mem20MaybeUninit$LT$T$GT$6uninit17h83f81624c7eb5fbeE():
/rustc/50a0defd5a93523067ef239936cc2e0755220904/src/libcore/mem.rs:1121
   8:	9807      	ldr	r0, [sp, #28]
_ZN4core3ptr4read17hd502bbc8ba3aabd4E():
/rustc/50a0defd5a93523067ef239936cc2e0755220904/src/libcore/ptr.rs:573
   a:	9006      	str	r0, [sp, #24]
   c:	9104      	str	r1, [sp, #16]
   e:	e7ff      	b.n	10 <_ZN4core3ptr4read17hd502bbc8ba3aabd4E+0x10>
/rustc/50a0defd5a93523067ef239936cc2e0755220904/src/libcore/ptr.rs:574
  10:	9805      	ldr	r0, [sp, #20]
  12:	a906      	add	r1, sp, #24
  14:	910a      	str	r1, [sp, #40]	; 0x28
_ZN4core3mem20MaybeUninit$LT$T$GT$10as_mut_ptr17he5389b4806e43dc2E():
/rustc/50a0defd5a93523067ef239936cc2e0755220904/src/libcore/mem.rs:1252
  16:	990a      	ldr	r1, [sp, #40]	; 0x28
  18:	910b      	str	r1, [sp, #44]	; 0x2c
_ZN79_$LT$core..mem..ManuallyDrop$LT$T$GT$$u20$as$u20$core..ops..deref..DerefMut$GT$9deref_mut17hbd40763c79ca01efE():
/rustc/50a0defd5a93523067ef239936cc2e0755220904/src/libcore/mem.rs:887
  1a:	990b      	ldr	r1, [sp, #44]	; 0x2c
_ZN4core3ptr4read17hd502bbc8ba3aabd4E():
/rustc/50a0defd5a93523067ef239936cc2e0755220904/src/libcore/ptr.rs:574
  1c:	9003      	str	r0, [sp, #12]
  1e:	9102      	str	r1, [sp, #8]
  20:	e7ff      	b.n	22 <_ZN4core3ptr4read17hd502bbc8ba3aabd4E+0x22>
  22:	2201      	movs	r2, #1
  24:	9803      	ldr	r0, [sp, #12]
  26:	9902      	ldr	r1, [sp, #8]
  28:	f7ff fffe 	bl	0 <_ZN4core10intrinsics19copy_nonoverlapping17h5595299192d6abf2E>
  2c:	e7ff      	b.n	2e <_ZN4core3ptr4read17hd502bbc8ba3aabd4E+0x2e>
/rustc/50a0defd5a93523067ef239936cc2e0755220904/src/libcore/ptr.rs:575
  2e:	9806      	ldr	r0, [sp, #24]
  30:	9008      	str	r0, [sp, #32]
_ZN4core3mem20MaybeUninit$LT$T$GT$11assume_init17hf2d90c74b4979b81E():
/rustc/50a0defd5a93523067ef239936cc2e0755220904/src/libcore/mem.rs:1294
  32:	9808      	ldr	r0, [sp, #32]
  34:	9009      	str	r0, [sp, #36]	; 0x24
_ZN4core3mem21ManuallyDrop$LT$T$GT$10into_inner17h46a15e1f3b76b6edE():
/rustc/50a0defd5a93523067ef239936cc2e0755220904/src/libcore/mem.rs:828
  36:	9809      	ldr	r0, [sp, #36]	; 0x24
_ZN4core3ptr4read17hd502bbc8ba3aabd4E():
/rustc/50a0defd5a93523067ef239936cc2e0755220904/src/libcore/ptr.rs:575
  38:	9001      	str	r0, [sp, #4]
  3a:	e7ff      	b.n	3c <_ZN4core3ptr4read17hd502bbc8ba3aabd4E+0x3c>
/rustc/50a0defd5a93523067ef239936cc2e0755220904/src/libcore/ptr.rs:576
  3c:	9801      	ldr	r0, [sp, #4]
  3e:	b00c      	add	sp, #48	; 0x30
  40:	bd80      	pop	{r7, pc}

Disassembly of section .text._ZN4core3ptr5write17h4641f61a88075460E:

00000000 <_ZN4core3ptr5write17h4641f61a88075460E>:
_ZN4core3ptr5write17h4641f61a88075460E():
/rustc/50a0defd5a93523067ef239936cc2e0755220904/src/libcore/ptr.rs:733
   0:	b084      	sub	sp, #16
   2:	460a      	mov	r2, r1
   4:	4603      	mov	r3, r0
   6:	9002      	str	r0, [sp, #8]
   8:	9103      	str	r1, [sp, #12]
/rustc/50a0defd5a93523067ef239936cc2e0755220904/src/libcore/ptr.rs:734
   a:	9802      	ldr	r0, [sp, #8]
   c:	9903      	ldr	r1, [sp, #12]
   e:	6001      	str	r1, [r0, #0]
/rustc/50a0defd5a93523067ef239936cc2e0755220904/src/libcore/ptr.rs:735
  10:	9201      	str	r2, [sp, #4]
  12:	9300      	str	r3, [sp, #0]
  14:	b004      	add	sp, #16
  16:	4770      	bx	lr

cstr_core-002f35632daba805.cstr_core.4br1pvmw-cgu.10.rcgu.o:     file format elf32-littlearm

SYMBOL TABLE:
00000000 l    df *ABS*	00000000 cstr_core.4br1pvmw-cgu.10
000003dd l       .debug_str	00000000 
000004c4 l       .debug_str	00000000 
000004cf l       .debug_str	00000000 
00000501 l       .debug_str	00000000 
00000508 l       .debug_str	00000000 
0000050e l       .debug_str	00000000 
0000055f l       .debug_str	00000000 
00000576 l       .debug_str	00000000 
00000578 l       .debug_str	00000000 
0000057f l       .debug_str	00000000 
00000581 l       .debug_str	00000000 
000005d5 l       .debug_str	00000000 
00000000 l       .debug_str	00000000 
00000041 l       .debug_str	00000000 
00000099 l       .debug_str	00000000 
000000e6 l       .debug_str	00000000 
000000eb l       .debug_str	00000000 
000000f2 l       .debug_str	00000000 
000000f5 l       .debug_str	00000000 
000000f8 l       .debug_str	00000000 
000000fc l       .debug_str	00000000 
00000103 l       .debug_str	00000000 
00000107 l       .debug_str	00000000 
0000010a l       .debug_str	00000000 
0000010d l       .debug_str	00000000 
00000112 l       .debug_str	00000000 
00000118 l       .debug_str	00000000 
0000011f l       .debug_str	00000000 
00000127 l       .debug_str	00000000 
00000131 l       .debug_str	00000000 
00000137 l       .debug_str	00000000 
0000013d l       .debug_str	00000000 
00000140 l       .debug_str	00000000 
0000014f l       .debug_str	00000000 
00000156 l       .debug_str	00000000 
0000015a l       .debug_str	00000000 
00000163 l       .debug_str	00000000 
0000016b l       .debug_str	00000000 
00000173 l       .debug_str	00000000 
0000017a l       .debug_str	00000000 
00000180 l       .debug_str	00000000 
00000194 l       .debug_str	00000000 
000001a0 l       .debug_str	00000000 
000001ac l       .debug_str	00000000 
000001ae l       .debug_str	00000000 
000001c7 l       .debug_str	00000000 
000001cc l       .debug_str	00000000 
000001dd l       .debug_str	00000000 
000001e7 l       .debug_str	00000000 
000001ed l       .debug_str	00000000 
000001f1 l       .debug_str	00000000 
000001f6 l       .debug_str	00000000 
000001fb l       .debug_str	00000000 
00000201 l       .debug_str	00000000 
00000207 l       .debug_str	00000000 
0000020e l       .debug_str	00000000 
00000213 l       .debug_str	00000000 
00000218 l       .debug_str	00000000 
0000021c l       .debug_str	00000000 
0000022a l       .debug_str	00000000 
00000234 l       .debug_str	00000000 
00000238 l       .debug_str	00000000 
00000243 l       .debug_str	00000000 
0000024a l       .debug_str	00000000 
00000250 l       .debug_str	00000000 
00000254 l       .debug_str	00000000 
00000271 l       .debug_str	00000000 
00000275 l       .debug_str	00000000 
0000027d l       .debug_str	00000000 
00000294 l       .debug_str	00000000 
000002b8 l       .debug_str	00000000 
000002d4 l       .debug_str	00000000 
000002d9 l       .debug_str	00000000 
000002e2 l       .debug_str	00000000 
000002e9 l       .debug_str	00000000 
00000302 l       .debug_str	00000000 
0000030c l       .debug_str	00000000 
00000326 l       .debug_str	00000000 
00000384 l       .debug_str	00000000 
0000038f l       .debug_str	00000000 
00000396 l       .debug_str	00000000 
000003a0 l       .debug_str	00000000 
000003a5 l       .debug_str	00000000 
000003b1 l       .debug_str	00000000 
000003b9 l       .debug_str	00000000 
000003c2 l       .debug_str	00000000 
000003c7 l       .debug_str	00000000 
000003ca l       .debug_str	00000000 
000003d3 l       .debug_str	00000000 
000003da l       .debug_str	00000000 
000003e3 l       .debug_str	00000000 
000003ed l       .debug_str	00000000 
000003f5 l       .debug_str	00000000 
000003fb l       .debug_str	00000000 
00000406 l       .debug_str	00000000 
0000040f l       .debug_str	00000000 
00000432 l       .debug_str	00000000 
00000451 l       .debug_str	00000000 
00000478 l       .debug_str	00000000 
00000482 l       .debug_str	00000000 
0000048a l       .debug_str	00000000 
00000493 l       .debug_str	00000000 
00000000 l    d  .text._ZN4core3fmt10ArgumentV13new17h5d01f94c3a4e1f88E	00000000 .text._ZN4core3fmt10ArgumentV13new17h5d01f94c3a4e1f88E
00000000 l    d  .text._ZN4core3fmt9Arguments6new_v117h11374ddc397f6375E	00000000 .text._ZN4core3fmt9Arguments6new_v117h11374ddc397f6375E
00000000 l    d  .text._ZN50_$LT$T$u20$as$u20$core..convert..From$LT$T$GT$$GT$4from17h9357a2148a3146cdE	00000000 .text._ZN50_$LT$T$u20$as$u20$core..convert..From$LT$T$GT$$GT$4from17h9357a2148a3146cdE
00000000 l    d  .debug_abbrev	00000000 .debug_abbrev
00000000 l    d  .debug_info	00000000 .debug_info
00000000 l    d  .debug_ranges	00000000 .debug_ranges
00000000 l    d  .debug_frame	00000000 .debug_frame
00000000 l    d  .debug_line	00000000 .debug_line
00000000 g     F .text._ZN4core3fmt10ArgumentV13new17h5d01f94c3a4e1f88E	00000032 _ZN4core3fmt10ArgumentV13new17h5d01f94c3a4e1f88E
00000000 g     F .text._ZN4core3fmt9Arguments6new_v117h11374ddc397f6375E	0000004c .hidden _ZN4core3fmt9Arguments6new_v117h11374ddc397f6375E
00000000 g     F .text._ZN50_$LT$T$u20$as$u20$core..convert..From$LT$T$GT$$GT$4from17h9357a2148a3146cdE	00000006 _ZN50_$LT$T$u20$as$u20$core..convert..From$LT$T$GT$$GT$4from17h9357a2148a3146cdE



Disassembly of section .text._ZN4core3fmt10ArgumentV13new17h5d01f94c3a4e1f88E:

00000000 <_ZN4core3fmt10ArgumentV13new17h5d01f94c3a4e1f88E>:
_ZN4core3fmt10ArgumentV13new17h5d01f94c3a4e1f88E():
/rustc/50a0defd5a93523067ef239936cc2e0755220904/src/libcore/fmt/mod.rs:278
   0:	b08a      	sub	sp, #40	; 0x28
   2:	460a      	mov	r2, r1
   4:	4603      	mov	r3, r0
   6:	9004      	str	r0, [sp, #16]
   8:	9105      	str	r1, [sp, #20]
/rustc/50a0defd5a93523067ef239936cc2e0755220904/src/libcore/fmt/mod.rs:282
   a:	9805      	ldr	r0, [sp, #20]
   c:	9008      	str	r0, [sp, #32]
   e:	9808      	ldr	r0, [sp, #32]
  10:	9203      	str	r2, [sp, #12]
  12:	9302      	str	r3, [sp, #8]
  14:	9001      	str	r0, [sp, #4]
  16:	e7ff      	b.n	18 <_ZN4core3fmt10ArgumentV13new17h5d01f94c3a4e1f88E+0x18>
/rustc/50a0defd5a93523067ef239936cc2e0755220904/src/libcore/fmt/mod.rs:283
  18:	9804      	ldr	r0, [sp, #16]
  1a:	9009      	str	r0, [sp, #36]	; 0x24
  1c:	9809      	ldr	r0, [sp, #36]	; 0x24
  1e:	9000      	str	r0, [sp, #0]
  20:	e7ff      	b.n	22 <_ZN4core3fmt10ArgumentV13new17h5d01f94c3a4e1f88E+0x22>
/rustc/50a0defd5a93523067ef239936cc2e0755220904/src/libcore/fmt/mod.rs:281
  22:	9800      	ldr	r0, [sp, #0]
  24:	9006      	str	r0, [sp, #24]
  26:	9901      	ldr	r1, [sp, #4]
  28:	9107      	str	r1, [sp, #28]
/rustc/50a0defd5a93523067ef239936cc2e0755220904/src/libcore/fmt/mod.rs:286
  2a:	9806      	ldr	r0, [sp, #24]
  2c:	9907      	ldr	r1, [sp, #28]
  2e:	b00a      	add	sp, #40	; 0x28
  30:	4770      	bx	lr

Disassembly of section .text._ZN4core3fmt9Arguments6new_v117h11374ddc397f6375E:

00000000 <_ZN4core3fmt9Arguments6new_v117h11374ddc397f6375E>:
_ZN4core3fmt9Arguments6new_v117h11374ddc397f6375E():
/rustc/50a0defd5a93523067ef239936cc2e0755220904/src/libcore/fmt/mod.rs:314
   0:	b570      	push	{r4, r5, r6, lr}
   2:	b08a      	sub	sp, #40	; 0x28
   4:	f8dd c038 	ldr.w	ip, [sp, #56]	; 0x38
   8:	469e      	mov	lr, r3
   a:	4614      	mov	r4, r2
   c:	460d      	mov	r5, r1
   e:	4606      	mov	r6, r0
  10:	9104      	str	r1, [sp, #16]
  12:	9205      	str	r2, [sp, #20]
  14:	9306      	str	r3, [sp, #24]
  16:	f8cd c01c 	str.w	ip, [sp, #28]
/rustc/50a0defd5a93523067ef239936cc2e0755220904/src/libcore/fmt/mod.rs:317
  1a:	9904      	ldr	r1, [sp, #16]
  1c:	9a05      	ldr	r2, [sp, #20]
  1e:	2300      	movs	r3, #0
/rustc/50a0defd5a93523067ef239936cc2e0755220904/src/libcore/fmt/mod.rs:318
  20:	9309      	str	r3, [sp, #36]	; 0x24
  22:	9308      	str	r3, [sp, #32]
  24:	9308      	str	r3, [sp, #32]
/rustc/50a0defd5a93523067ef239936cc2e0755220904/src/libcore/fmt/mod.rs:319
  26:	9b06      	ldr	r3, [sp, #24]
  28:	f8dd c01c 	ldr.w	ip, [sp, #28]
/rustc/50a0defd5a93523067ef239936cc2e0755220904/src/libcore/fmt/mod.rs:316
  2c:	6001      	str	r1, [r0, #0]
  2e:	6042      	str	r2, [r0, #4]
  30:	9908      	ldr	r1, [sp, #32]
  32:	9a09      	ldr	r2, [sp, #36]	; 0x24
  34:	6081      	str	r1, [r0, #8]
  36:	60c2      	str	r2, [r0, #12]
  38:	6103      	str	r3, [r0, #16]
  3a:	f8c0 c014 	str.w	ip, [r0, #20]
/rustc/50a0defd5a93523067ef239936cc2e0755220904/src/libcore/fmt/mod.rs:321
  3e:	f8cd e00c 	str.w	lr, [sp, #12]
  42:	9402      	str	r4, [sp, #8]
  44:	9501      	str	r5, [sp, #4]
  46:	9600      	str	r6, [sp, #0]
  48:	b00a      	add	sp, #40	; 0x28
  4a:	bd70      	pop	{r4, r5, r6, pc}

Disassembly of section .text._ZN50_$LT$T$u20$as$u20$core..convert..From$LT$T$GT$$GT$4from17h9357a2148a3146cdE:

00000000 <_ZN50_$LT$T$u20$as$u20$core..convert..From$LT$T$GT$$GT$4from17h9357a2148a3146cdE>:
_ZN50_$LT$T$u20$as$u20$core..convert..From$LT$T$GT$$GT$4from17h9357a2148a3146cdE():
/rustc/50a0defd5a93523067ef239936cc2e0755220904/src/libcore/convert.rs:547
   0:	b081      	sub	sp, #4
   2:	b001      	add	sp, #4
   4:	4770      	bx	lr

cstr_core-002f35632daba805.cstr_core.4br1pvmw-cgu.11.rcgu.o:     file format elf32-littlearm

SYMBOL TABLE:
00000000 l    df *ABS*	00000000 cstr_core.4br1pvmw-cgu.11
00000255 l       .debug_str	00000000 
000001c6 l       .debug_str	00000000 
000001cb l       .debug_str	00000000 
000001d9 l       .debug_str	00000000 
000001dc l       .debug_str	00000000 
000001e0 l       .debug_str	00000000 
000001e6 l       .debug_str	00000000 
00000275 l       .debug_str	00000000 
000002e5 l       .debug_str	00000000 
00000306 l       .debug_str	00000000 
0000030b l       .debug_str	00000000 
0000030d l       .debug_str	00000000 
00000000 l       .debug_str	00000000 
00000041 l       .debug_str	00000000 
00000099 l       .debug_str	00000000 
000000e6 l       .debug_str	00000000 
000000eb l       .debug_str	00000000 
000000f2 l       .debug_str	00000000 
000000f5 l       .debug_str	00000000 
000000f8 l       .debug_str	00000000 
000000fc l       .debug_str	00000000 
00000103 l       .debug_str	00000000 
00000107 l       .debug_str	00000000 
0000010d l       .debug_str	00000000 
0000010f l       .debug_str	00000000 
00000117 l       .debug_str	00000000 
00000122 l       .debug_str	00000000 
00000124 l       .debug_str	00000000 
0000014d l       .debug_str	00000000 
00000156 l       .debug_str	00000000 
00000192 l       .debug_str	00000000 
000001b6 l       .debug_str	00000000 
000001bd l       .debug_str	00000000 
000001c1 l       .debug_str	00000000 
00000000 l    d  .text._ZN4core6result19Result$LT$T$C$E$GT$2ok17h2a92b6f25b4a5c7cE	00000000 .text._ZN4core6result19Result$LT$T$C$E$GT$2ok17h2a92b6f25b4a5c7cE
00000000 l    d  .text._ZN73_$LT$core..result..Result$LT$T$C$E$GT$$u20$as$u20$core..ops..try..Try$GT$10from_error17hda7520318724b6f1E	00000000 .text._ZN73_$LT$core..result..Result$LT$T$C$E$GT$$u20$as$u20$core..ops..try..Try$GT$10from_error17hda7520318724b6f1E
00000000 l    d  .text._ZN73_$LT$core..result..Result$LT$T$C$E$GT$$u20$as$u20$core..ops..try..Try$GT$11into_result17ha43963255be17051E	00000000 .text._ZN73_$LT$core..result..Result$LT$T$C$E$GT$$u20$as$u20$core..ops..try..Try$GT$11into_result17ha43963255be17051E
00000000 l    d  .debug_abbrev	00000000 .debug_abbrev
00000000 l    d  .debug_info	00000000 .debug_info
00000000 l    d  .debug_ranges	00000000 .debug_ranges
00000000 l    d  .debug_frame	00000000 .debug_frame
00000000 l    d  .debug_line	00000000 .debug_line
00000000 g     F .text._ZN4core6result19Result$LT$T$C$E$GT$2ok17h2a92b6f25b4a5c7cE	00000064 _ZN4core6result19Result$LT$T$C$E$GT$2ok17h2a92b6f25b4a5c7cE
00000000 g     F .text._ZN73_$LT$core..result..Result$LT$T$C$E$GT$$u20$as$u20$core..ops..try..Try$GT$10from_error17hda7520318724b6f1E	00000010 _ZN73_$LT$core..result..Result$LT$T$C$E$GT$$u20$as$u20$core..ops..try..Try$GT$10from_error17hda7520318724b6f1E
00000000 g     F .text._ZN73_$LT$core..result..Result$LT$T$C$E$GT$$u20$as$u20$core..ops..try..Try$GT$11into_result17ha43963255be17051E	00000012 _ZN73_$LT$core..result..Result$LT$T$C$E$GT$$u20$as$u20$core..ops..try..Try$GT$11into_result17ha43963255be17051E



Disassembly of section .text._ZN4core6result19Result$LT$T$C$E$GT$2ok17h2a92b6f25b4a5c7cE:

00000000 <_ZN4core6result19Result$LT$T$C$E$GT$2ok17h2a92b6f25b4a5c7cE>:
_ZN4core6result19Result$LT$T$C$E$GT$2ok17h2a92b6f25b4a5c7cE():
/rustc/50a0defd5a93523067ef239936cc2e0755220904/src/libcore/result.rs:336
   0:	b086      	sub	sp, #24
   2:	4601      	mov	r1, r0
   4:	9001      	str	r0, [sp, #4]
   6:	2000      	movs	r0, #0
/rustc/50a0defd5a93523067ef239936cc2e0755220904/src/libcore/result.rs:338
   8:	f88d 0017 	strb.w	r0, [sp, #23]
   c:	2001      	movs	r0, #1
   e:	f88d 0017 	strb.w	r0, [sp, #23]
  12:	2800      	cmp	r0, #0
  14:	9100      	str	r1, [sp, #0]
  16:	d105      	bne.n	24 <_ZN4core6result19Result$LT$T$C$E$GT$2ok17h2a92b6f25b4a5c7cE+0x24>
  18:	e7ff      	b.n	1a <_ZN4core6result19Result$LT$T$C$E$GT$2ok17h2a92b6f25b4a5c7cE+0x1a>
  1a:	2000      	movs	r0, #0
  1c:	2800      	cmp	r0, #0
  1e:	d10b      	bne.n	38 <_ZN4core6result19Result$LT$T$C$E$GT$2ok17h2a92b6f25b4a5c7cE+0x38>
  20:	e7ff      	b.n	22 <_ZN4core6result19Result$LT$T$C$E$GT$2ok17h2a92b6f25b4a5c7cE+0x22>
/rustc/50a0defd5a93523067ef239936cc2e0755220904/src/libcore/result.rs:341
  22:	defe      	udf	#254	; 0xfe
  24:	2000      	movs	r0, #0
/rustc/50a0defd5a93523067ef239936cc2e0755220904/src/libcore/result.rs:338
  26:	f88d 0017 	strb.w	r0, [sp, #23]
  2a:	9801      	ldr	r0, [sp, #4]
  2c:	9004      	str	r0, [sp, #16]
  2e:	9804      	ldr	r0, [sp, #16]
  30:	9003      	str	r0, [sp, #12]
  32:	2001      	movs	r0, #1
  34:	9002      	str	r0, [sp, #8]
/rustc/50a0defd5a93523067ef239936cc2e0755220904/src/libcore/result.rs:337
  36:	e002      	b.n	3e <_ZN4core6result19Result$LT$T$C$E$GT$2ok17h2a92b6f25b4a5c7cE+0x3e>
  38:	2000      	movs	r0, #0
/rustc/50a0defd5a93523067ef239936cc2e0755220904/src/libcore/result.rs:339
  3a:	9002      	str	r0, [sp, #8]
/rustc/50a0defd5a93523067ef239936cc2e0755220904/src/libcore/result.rs:337
  3c:	e7ff      	b.n	3e <_ZN4core6result19Result$LT$T$C$E$GT$2ok17h2a92b6f25b4a5c7cE+0x3e>
  3e:	2001      	movs	r0, #1
/rustc/50a0defd5a93523067ef239936cc2e0755220904/src/libcore/result.rs:341
  40:	2800      	cmp	r0, #0
  42:	d104      	bne.n	4e <_ZN4core6result19Result$LT$T$C$E$GT$2ok17h2a92b6f25b4a5c7cE+0x4e>
  44:	e00d      	b.n	62 <_ZN4core6result19Result$LT$T$C$E$GT$2ok17h2a92b6f25b4a5c7cE+0x62>
  46:	9802      	ldr	r0, [sp, #8]
  48:	9903      	ldr	r1, [sp, #12]
  4a:	b006      	add	sp, #24
  4c:	4770      	bx	lr
  4e:	f89d 0017 	ldrb.w	r0, [sp, #23]
  52:	07c0      	lsls	r0, r0, #31
  54:	2800      	cmp	r0, #0
  56:	d0f6      	beq.n	46 <_ZN4core6result19Result$LT$T$C$E$GT$2ok17h2a92b6f25b4a5c7cE+0x46>
  58:	e7ff      	b.n	5a <_ZN4core6result19Result$LT$T$C$E$GT$2ok17h2a92b6f25b4a5c7cE+0x5a>
  5a:	2000      	movs	r0, #0
  5c:	f88d 0017 	strb.w	r0, [sp, #23]
  60:	e7f1      	b.n	46 <_ZN4core6result19Result$LT$T$C$E$GT$2ok17h2a92b6f25b4a5c7cE+0x46>
  62:	e7f0      	b.n	46 <_ZN4core6result19Result$LT$T$C$E$GT$2ok17h2a92b6f25b4a5c7cE+0x46>

Disassembly of section .text._ZN73_$LT$core..result..Result$LT$T$C$E$GT$$u20$as$u20$core..ops..try..Try$GT$10from_error17hda7520318724b6f1E:

00000000 <_ZN73_$LT$core..result..Result$LT$T$C$E$GT$$u20$as$u20$core..ops..try..Try$GT$10from_error17hda7520318724b6f1E>:
_ZN73_$LT$core..result..Result$LT$T$C$E$GT$$u20$as$u20$core..ops..try..Try$GT$10from_error17hda7520318724b6f1E():
/rustc/50a0defd5a93523067ef239936cc2e0755220904/src/libcore/result.rs:1292
   0:	b081      	sub	sp, #4
   2:	2001      	movs	r0, #1
/rustc/50a0defd5a93523067ef239936cc2e0755220904/src/libcore/result.rs:1293
   4:	f88d 0003 	strb.w	r0, [sp, #3]
/rustc/50a0defd5a93523067ef239936cc2e0755220904/src/libcore/result.rs:1294
   8:	f89d 0003 	ldrb.w	r0, [sp, #3]
   c:	b001      	add	sp, #4
   e:	4770      	bx	lr

Disassembly of section .text._ZN73_$LT$core..result..Result$LT$T$C$E$GT$$u20$as$u20$core..ops..try..Try$GT$11into_result17ha43963255be17051E:

00000000 <_ZN73_$LT$core..result..Result$LT$T$C$E$GT$$u20$as$u20$core..ops..try..Try$GT$11into_result17ha43963255be17051E>:
_ZN73_$LT$core..result..Result$LT$T$C$E$GT$$u20$as$u20$core..ops..try..Try$GT$11into_result17ha43963255be17051E():
/rustc/50a0defd5a93523067ef239936cc2e0755220904/src/libcore/result.rs:1282
   0:	b082      	sub	sp, #8
   2:	4601      	mov	r1, r0
   4:	f88d 0007 	strb.w	r0, [sp, #7]
/rustc/50a0defd5a93523067ef239936cc2e0755220904/src/libcore/result.rs:1283
   8:	f89d 0007 	ldrb.w	r0, [sp, #7]
/rustc/50a0defd5a93523067ef239936cc2e0755220904/src/libcore/result.rs:1284
   c:	9100      	str	r1, [sp, #0]
   e:	b002      	add	sp, #8
  10:	4770      	bx	lr

cstr_core-002f35632daba805.cstr_core.4br1pvmw-cgu.12.rcgu.o:     file format elf32-littlearm

SYMBOL TABLE:
00000000 l    df *ABS*	00000000 cstr_core.4br1pvmw-cgu.12
000003c8 l       .debug_str	00000000 
00000353 l       .debug_str	00000000 
0000035c l       .debug_str	00000000 
0000035e l       .debug_str	00000000 
00000411 l       .debug_str	00000000 
00000446 l       .debug_str	00000000 
000004c2 l       .debug_str	00000000 
000004ce l       .debug_str	00000000 
000004df l       .debug_str	00000000 
000004f9 l       .debug_str	00000000 
0000051f l       .debug_str	00000000 
00000554 l       .debug_str	00000000 
0000058e l       .debug_str	00000000 
000005f5 l       .debug_str	00000000 
000005fa l       .debug_str	00000000 
00000600 l       .debug_str	00000000 
00000604 l       .debug_str	00000000 
00000611 l       .debug_str	00000000 
00000615 l       .debug_str	00000000 
00000620 l       .debug_str	00000000 
00000626 l       .debug_str	00000000 
00000632 l       .debug_str	00000000 
0000069f l       .debug_str	00000000 
00000000 l       .debug_str	00000000 
00000041 l       .debug_str	00000000 
00000099 l       .debug_str	00000000 
000000e6 l       .debug_str	00000000 
000000eb l       .debug_str	00000000 
000000ef l       .debug_str	00000000 
000000f5 l       .debug_str	00000000 
000000fe l       .debug_str	00000000 
00000109 l       .debug_str	00000000 
0000010d l       .debug_str	00000000 
00000113 l       .debug_str	00000000 
00000119 l       .debug_str	00000000 
00000166 l       .debug_str	00000000 
0000016a l       .debug_str	00000000 
00000170 l       .debug_str	00000000 
00000172 l       .debug_str	00000000 
000001b0 l       .debug_str	00000000 
000001cb l       .debug_str	00000000 
000001d2 l       .debug_str	00000000 
00000207 l       .debug_str	00000000 
00000222 l       .debug_str	00000000 
00000227 l       .debug_str	00000000 
00000230 l       .debug_str	00000000 
00000238 l       .debug_str	00000000 
0000023e l       .debug_str	00000000 
00000244 l       .debug_str	00000000 
00000247 l       .debug_str	00000000 
00000251 l       .debug_str	00000000 
00000255 l       .debug_str	00000000 
0000025d l       .debug_str	00000000 
00000264 l       .debug_str	00000000 
00000268 l       .debug_str	00000000 
00000279 l       .debug_str	00000000 
00000282 l       .debug_str	00000000 
00000284 l       .debug_str	00000000 
0000028c l       .debug_str	00000000 
0000028e l       .debug_str	00000000 
00000290 l       .debug_str	00000000 
000002b4 l       .debug_str	00000000 
000002be l       .debug_str	00000000 
000002c5 l       .debug_str	00000000 
000002c9 l       .debug_str	00000000 
000002ce l       .debug_str	00000000 
000002d8 l       .debug_str	00000000 
000002de l       .debug_str	00000000 
000002e4 l       .debug_str	00000000 
000002ea l       .debug_str	00000000 
000002ee l       .debug_str	00000000 
000002fb l       .debug_str	00000000 
00000300 l       .debug_str	00000000 
00000314 l       .debug_str	00000000 
00000322 l       .debug_str	00000000 
00000327 l       .debug_str	00000000 
0000032b l       .debug_str	00000000 
00000000 l     O .rodata..Lanon.5d716e8c69885095e0e1223c44e3cf92.0	00000018 .Lanon.5d716e8c69885095e0e1223c44e3cf92.0
00000000 l     O .rodata.str.0	00000048 str.0
00000000 l     O .rodata.str.1	00000021 str.1
00000000 l    d  .text._ZN47_$LT$usize$u20$as$u20$core..ops..arith..Sub$GT$3sub17h2b2c258a8ad07617E	00000000 .text._ZN47_$LT$usize$u20$as$u20$core..ops..arith..Sub$GT$3sub17h2b2c258a8ad07617E
00000000 l    d  .text._ZN4core10intrinsics19copy_nonoverlapping17h5595299192d6abf2E	00000000 .text._ZN4core10intrinsics19copy_nonoverlapping17h5595299192d6abf2E
00000000 l    d  .text._ZN4core3ptr18real_drop_in_place17hb485aa4705f5cf8eE	00000000 .text._ZN4core3ptr18real_drop_in_place17hb485aa4705f5cf8eE
00000000 l    d  .text._ZN4core3ptr18real_drop_in_place17he0f61884cb8f035bE	00000000 .text._ZN4core3ptr18real_drop_in_place17he0f61884cb8f035bE
00000000 l    d  .text._ZN4core3ptr18real_drop_in_place17he476cadd166b370cE	00000000 .text._ZN4core3ptr18real_drop_in_place17he476cadd166b370cE
00000000 l    d  .text._ZN4core5clone5impls54_$LT$impl$u20$core..clone..Clone$u20$for$u20$usize$GT$5clone17h4b80b75fb82a9f47E	00000000 .text._ZN4core5clone5impls54_$LT$impl$u20$core..clone..Clone$u20$for$u20$usize$GT$5clone17h4b80b75fb82a9f47E
00000000 l    d  .rodata.str.0	00000000 .rodata.str.0
00000000 l    d  .rodata.str.1	00000000 .rodata.str.1
00000000 l    d  .debug_abbrev	00000000 .debug_abbrev
00000000 l    d  .debug_info	00000000 .debug_info
00000000 l    d  .debug_ranges	00000000 .debug_ranges
00000000 l    d  .debug_frame	00000000 .debug_frame
00000000 l    d  .debug_line	00000000 .debug_line
00000000 g     F .text._ZN47_$LT$usize$u20$as$u20$core..ops..arith..Sub$GT$3sub17h2b2c258a8ad07617E	00000034 .hidden _ZN47_$LT$usize$u20$as$u20$core..ops..arith..Sub$GT$3sub17h2b2c258a8ad07617E
00000000 g     F .text._ZN4core10intrinsics19copy_nonoverlapping17h5595299192d6abf2E	0000002c _ZN4core10intrinsics19copy_nonoverlapping17h5595299192d6abf2E
00000000 g     F .text._ZN4core3ptr18real_drop_in_place17hb485aa4705f5cf8eE	0000000c .hidden _ZN4core3ptr18real_drop_in_place17hb485aa4705f5cf8eE
00000000 g     F .text._ZN4core3ptr18real_drop_in_place17he0f61884cb8f035bE	0000000c .hidden _ZN4core3ptr18real_drop_in_place17he0f61884cb8f035bE
00000000 g     F .text._ZN4core3ptr18real_drop_in_place17he476cadd166b370cE	0000000c .hidden _ZN4core3ptr18real_drop_in_place17he476cadd166b370cE
00000000 g     F .text._ZN4core5clone5impls54_$LT$impl$u20$core..clone..Clone$u20$for$u20$usize$GT$5clone17h4b80b75fb82a9f47E	00000010 .hidden _ZN4core5clone5impls54_$LT$impl$u20$core..clone..Clone$u20$for$u20$usize$GT$5clone17h4b80b75fb82a9f47E
00000000         *UND*	00000000 _ZN4core9panicking5panic17h53ca63c6ac6312f8E
00000000         *UND*	00000000 __aeabi_memcpy4



Disassembly of section .text._ZN47_$LT$usize$u20$as$u20$core..ops..arith..Sub$GT$3sub17h2b2c258a8ad07617E:

00000000 <_ZN47_$LT$usize$u20$as$u20$core..ops..arith..Sub$GT$3sub17h2b2c258a8ad07617E>:
_ZN47_$LT$usize$u20$as$u20$core..ops..arith..Sub$GT$3sub17h2b2c258a8ad07617E():
/rustc/50a0defd5a93523067ef239936cc2e0755220904/src/libcore/ops/arith.rs:198
   0:	b086      	sub	sp, #24
   2:	460a      	mov	r2, r1
   4:	4603      	mov	r3, r0
   6:	9004      	str	r0, [sp, #16]
   8:	9105      	str	r1, [sp, #20]
   a:	9804      	ldr	r0, [sp, #16]
   c:	9905      	ldr	r1, [sp, #20]
   e:	eba0 0c01 	sub.w	ip, r0, r1
  12:	4288      	cmp	r0, r1
  14:	9203      	str	r2, [sp, #12]
  16:	9302      	str	r3, [sp, #8]
  18:	f8cd c004 	str.w	ip, [sp, #4]
  1c:	d303      	bcc.n	26 <_ZN47_$LT$usize$u20$as$u20$core..ops..arith..Sub$GT$3sub17h2b2c258a8ad07617E+0x26>
  1e:	e7ff      	b.n	20 <_ZN47_$LT$usize$u20$as$u20$core..ops..arith..Sub$GT$3sub17h2b2c258a8ad07617E+0x20>
  20:	9801      	ldr	r0, [sp, #4]
  22:	b006      	add	sp, #24
  24:	4770      	bx	lr
  26:	f240 0000 	movw	r0, #0
  2a:	f2c0 0000 	movt	r0, #0
  2e:	f7ff fffe 	bl	0 <_ZN4core9panicking5panic17h53ca63c6ac6312f8E>
  32:	defe      	udf	#254	; 0xfe

Disassembly of section .text._ZN4core10intrinsics19copy_nonoverlapping17h5595299192d6abf2E:

00000000 <_ZN4core10intrinsics19copy_nonoverlapping17h5595299192d6abf2E>:
_ZN4core10intrinsics19copy_nonoverlapping17h5595299192d6abf2E():
/rustc/50a0defd5a93523067ef239936cc2e0755220904/src/libcore/intrinsics.rs:1411
   0:	b580      	push	{r7, lr}
   2:	b086      	sub	sp, #24
   4:	4613      	mov	r3, r2
   6:	468c      	mov	ip, r1
   8:	4686      	mov	lr, r0
   a:	9003      	str	r0, [sp, #12]
   c:	9104      	str	r1, [sp, #16]
   e:	9205      	str	r2, [sp, #20]
/rustc/50a0defd5a93523067ef239936cc2e0755220904/src/libcore/intrinsics.rs:1412
  10:	9903      	ldr	r1, [sp, #12]
  12:	9804      	ldr	r0, [sp, #16]
  14:	9a05      	ldr	r2, [sp, #20]
  16:	0092      	lsls	r2, r2, #2
  18:	9302      	str	r3, [sp, #8]
  1a:	f8cd c004 	str.w	ip, [sp, #4]
  1e:	f8cd e000 	str.w	lr, [sp]
  22:	f7ff fffe 	bl	0 <__aeabi_memcpy4>
  26:	e7ff      	b.n	28 <_ZN4core10intrinsics19copy_nonoverlapping17h5595299192d6abf2E+0x28>
/rustc/50a0defd5a93523067ef239936cc2e0755220904/src/libcore/intrinsics.rs:1413
  28:	b006      	add	sp, #24
  2a:	bd80      	pop	{r7, pc}

Disassembly of section .text._ZN4core3ptr18real_drop_in_place17hb485aa4705f5cf8eE:

00000000 <_ZN4core3ptr18real_drop_in_place17hb485aa4705f5cf8eE>:
_ZN4core3ptr18real_drop_in_place17hb485aa4705f5cf8eE():
/rustc/50a0defd5a93523067ef239936cc2e0755220904/src/libcore/ptr.rs:195
   0:	b082      	sub	sp, #8
   2:	4601      	mov	r1, r0
   4:	9001      	str	r0, [sp, #4]
   6:	9100      	str	r1, [sp, #0]
   8:	b002      	add	sp, #8
   a:	4770      	bx	lr

Disassembly of section .text._ZN4core3ptr18real_drop_in_place17he0f61884cb8f035bE:

00000000 <_ZN4core3ptr18real_drop_in_place17he0f61884cb8f035bE>:
_ZN4core3ptr18real_drop_in_place17he0f61884cb8f035bE():
/rustc/50a0defd5a93523067ef239936cc2e0755220904/src/libcore/ptr.rs:195
   0:	b082      	sub	sp, #8
   2:	4601      	mov	r1, r0
   4:	9001      	str	r0, [sp, #4]
   6:	9100      	str	r1, [sp, #0]
   8:	b002      	add	sp, #8
   a:	4770      	bx	lr

Disassembly of section .text._ZN4core3ptr18real_drop_in_place17he476cadd166b370cE:

00000000 <_ZN4core3ptr18real_drop_in_place17he476cadd166b370cE>:
_ZN4core3ptr18real_drop_in_place17he476cadd166b370cE():
/rustc/50a0defd5a93523067ef239936cc2e0755220904/src/libcore/ptr.rs:195
   0:	b082      	sub	sp, #8
   2:	4601      	mov	r1, r0
   4:	9001      	str	r0, [sp, #4]
   6:	9100      	str	r1, [sp, #0]
   8:	b002      	add	sp, #8
   a:	4770      	bx	lr

Disassembly of section .text._ZN4core5clone5impls54_$LT$impl$u20$core..clone..Clone$u20$for$u20$usize$GT$5clone17h4b80b75fb82a9f47E:

00000000 <_ZN4core5clone5impls54_$LT$impl$u20$core..clone..Clone$u20$for$u20$usize$GT$5clone17h4b80b75fb82a9f47E>:
_ZN4core5clone5impls54_$LT$impl$u20$core..clone..Clone$u20$for$u20$usize$GT$5clone17h4b80b75fb82a9f47E():
/rustc/50a0defd5a93523067ef239936cc2e0755220904/src/libcore/clone.rs:167
   0:	b082      	sub	sp, #8
   2:	4601      	mov	r1, r0
   4:	9001      	str	r0, [sp, #4]
/rustc/50a0defd5a93523067ef239936cc2e0755220904/src/libcore/clone.rs:168
   6:	9801      	ldr	r0, [sp, #4]
   8:	6800      	ldr	r0, [r0, #0]
/rustc/50a0defd5a93523067ef239936cc2e0755220904/src/libcore/clone.rs:169
   a:	9100      	str	r1, [sp, #0]
   c:	b002      	add	sp, #8
   e:	4770      	bx	lr

cstr_core-002f35632daba805.cstr_core.4br1pvmw-cgu.13.rcgu.o:     file format elf32-littlearm

SYMBOL TABLE:
00000000 l    df *ABS*	00000000 cstr_core.4br1pvmw-cgu.13
00000242 l       .debug_str	00000000 
000002c2 l       .debug_str	00000000 
00000306 l       .debug_str	00000000 
0000030d l       .debug_str	00000000 
00000311 l       .debug_str	00000000 
00000316 l       .debug_str	00000000 
0000031b l       .debug_str	00000000 
0000031f l       .debug_str	00000000 
00000347 l       .debug_str	00000000 
0000034c l       .debug_str	00000000 
00000000 l       .debug_str	00000000 
00000041 l       .debug_str	00000000 
00000099 l       .debug_str	00000000 
000000e6 l       .debug_str	00000000 
000000eb l       .debug_str	00000000 
000000f0 l       .debug_str	00000000 
000000f9 l       .debug_str	00000000 
000000ff l       .debug_str	00000000 
00000103 l       .debug_str	00000000 
00000106 l       .debug_str	00000000 
00000110 l       .debug_str	00000000 
00000114 l       .debug_str	00000000 
0000011c l       .debug_str	00000000 
00000123 l       .debug_str	00000000 
00000127 l       .debug_str	00000000 
00000129 l       .debug_str	00000000 
0000013a l       .debug_str	00000000 
00000143 l       .debug_str	00000000 
00000145 l       .debug_str	00000000 
0000014d l       .debug_str	00000000 
0000014f l       .debug_str	00000000 
00000151 l       .debug_str	00000000 
00000175 l       .debug_str	00000000 
0000017e l       .debug_str	00000000 
000001bf l       .debug_str	00000000 
000001e2 l       .debug_str	00000000 
000001ec l       .debug_str	00000000 
000001f2 l       .debug_str	00000000 
000001f8 l       .debug_str	00000000 
000001fc l       .debug_str	00000000 
00000202 l       .debug_str	00000000 
00000208 l       .debug_str	00000000 
0000020c l       .debug_str	00000000 
00000219 l       .debug_str	00000000 
0000021e l       .debug_str	00000000 
00000232 l       .debug_str	00000000 
00000240 l       .debug_str	00000000 
00000000 l    d  .text._ZN4core4iter8adapters16Map$LT$I$C$F$GT$3new17hafc38d3a071e0836E	00000000 .text._ZN4core4iter8adapters16Map$LT$I$C$F$GT$3new17hafc38d3a071e0836E
00000000 l    d  .text._ZN97_$LT$core..iter..adapters..Map$LT$I$C$F$GT$$u20$as$u20$core..iter..traits..iterator..Iterator$GT$4next17h18e299b4c35438deE	00000000 .text._ZN97_$LT$core..iter..adapters..Map$LT$I$C$F$GT$$u20$as$u20$core..iter..traits..iterator..Iterator$GT$4next17h18e299b4c35438deE
00000000 l    d  .debug_abbrev	00000000 .debug_abbrev
00000000 l    d  .debug_info	00000000 .debug_info
00000000 l    d  .debug_ranges	00000000 .debug_ranges
00000000 l    d  .debug_frame	00000000 .debug_frame
00000000 l    d  .debug_line	00000000 .debug_line
00000000 g     F .text._ZN4core4iter8adapters16Map$LT$I$C$F$GT$3new17hafc38d3a071e0836E	0000001e _ZN4core4iter8adapters16Map$LT$I$C$F$GT$3new17hafc38d3a071e0836E
00000000         *UND*	00000000 _ZN4core6option15Option$LT$T$GT$3map17h2f72f1db9a955fbfE
00000000         *UND*	00000000 _ZN85_$LT$core..slice..Iter$LT$T$GT$$u20$as$u20$core..iter..traits..iterator..Iterator$GT$4next17h6227c951e142856aE
00000000 g     F .text._ZN97_$LT$core..iter..adapters..Map$LT$I$C$F$GT$$u20$as$u20$core..iter..traits..iterator..Iterator$GT$4next17h18e299b4c35438deE	00000028 _ZN97_$LT$core..iter..adapters..Map$LT$I$C$F$GT$$u20$as$u20$core..iter..traits..iterator..Iterator$GT$4next17h18e299b4c35438deE



Disassembly of section .text._ZN4core4iter8adapters16Map$LT$I$C$F$GT$3new17hafc38d3a071e0836E:

00000000 <_ZN4core4iter8adapters16Map$LT$I$C$F$GT$3new17hafc38d3a071e0836E>:
_ZN4core4iter8adapters16Map$LT$I$C$F$GT$3new17hafc38d3a071e0836E():
/rustc/50a0defd5a93523067ef239936cc2e0755220904/src/libcore/iter/adapters/mod.rs:555
   0:	b087      	sub	sp, #28
   2:	460a      	mov	r2, r1
   4:	4603      	mov	r3, r0
   6:	9002      	str	r0, [sp, #8]
   8:	9103      	str	r1, [sp, #12]
/rustc/50a0defd5a93523067ef239936cc2e0755220904/src/libcore/iter/adapters/mod.rs:556
   a:	9802      	ldr	r0, [sp, #8]
   c:	9903      	ldr	r1, [sp, #12]
   e:	9005      	str	r0, [sp, #20]
  10:	9106      	str	r1, [sp, #24]
/rustc/50a0defd5a93523067ef239936cc2e0755220904/src/libcore/iter/adapters/mod.rs:557
  12:	9805      	ldr	r0, [sp, #20]
  14:	9906      	ldr	r1, [sp, #24]
  16:	9201      	str	r2, [sp, #4]
  18:	9300      	str	r3, [sp, #0]
  1a:	b007      	add	sp, #28
  1c:	4770      	bx	lr

Disassembly of section .text._ZN97_$LT$core..iter..adapters..Map$LT$I$C$F$GT$$u20$as$u20$core..iter..traits..iterator..Iterator$GT$4next17h18e299b4c35438deE:

00000000 <_ZN97_$LT$core..iter..adapters..Map$LT$I$C$F$GT$$u20$as$u20$core..iter..traits..iterator..Iterator$GT$4next17h18e299b4c35438deE>:
_ZN97_$LT$core..iter..adapters..Map$LT$I$C$F$GT$$u20$as$u20$core..iter..traits..iterator..Iterator$GT$4next17h18e299b4c35438deE():
/rustc/50a0defd5a93523067ef239936cc2e0755220904/src/libcore/iter/adapters/mod.rs:574
   0:	b580      	push	{r7, lr}
   2:	b084      	sub	sp, #16
   4:	460a      	mov	r2, r1
   6:	9103      	str	r1, [sp, #12]
/rustc/50a0defd5a93523067ef239936cc2e0755220904/src/libcore/iter/adapters/mod.rs:575
   8:	9903      	ldr	r1, [sp, #12]
   a:	9002      	str	r0, [sp, #8]
   c:	4608      	mov	r0, r1
   e:	9201      	str	r2, [sp, #4]
  10:	f7ff fffe 	bl	0 <_ZN85_$LT$core..slice..Iter$LT$T$GT$$u20$as$u20$core..iter..traits..iterator..Iterator$GT$4next17h6227c951e142856aE>
  14:	9000      	str	r0, [sp, #0]
  16:	e7ff      	b.n	18 <_ZN97_$LT$core..iter..adapters..Map$LT$I$C$F$GT$$u20$as$u20$core..iter..traits..iterator..Iterator$GT$4next17h18e299b4c35438deE+0x18>
  18:	9a03      	ldr	r2, [sp, #12]
  1a:	9802      	ldr	r0, [sp, #8]
  1c:	9900      	ldr	r1, [sp, #0]
  1e:	f7ff fffe 	bl	0 <_ZN4core6option15Option$LT$T$GT$3map17h2f72f1db9a955fbfE>
  22:	e7ff      	b.n	24 <_ZN97_$LT$core..iter..adapters..Map$LT$I$C$F$GT$$u20$as$u20$core..iter..traits..iterator..Iterator$GT$4next17h18e299b4c35438deE+0x24>
/rustc/50a0defd5a93523067ef239936cc2e0755220904/src/libcore/iter/adapters/mod.rs:576
  24:	b004      	add	sp, #16
  26:	bd80      	pop	{r7, pc}

cstr_core-002f35632daba805.cstr_core.4br1pvmw-cgu.14.rcgu.o:     file format elf32-littlearm

SYMBOL TABLE:
00000000 l    df *ABS*	00000000 cstr_core.4br1pvmw-cgu.14
0000025b l       .debug_str	00000000 
000001ae l       .debug_str	00000000 
000001b2 l       .debug_str	00000000 
000001b8 l       .debug_str	00000000 
000001e1 l       .debug_str	00000000 
00000216 l       .debug_str	00000000 
0000023f l       .debug_str	00000000 
0000024e l       .debug_str	00000000 
00000252 l       .debug_str	00000000 
00000265 l       .debug_str	00000000 
0000026c l       .debug_str	00000000 
00000272 l       .debug_str	00000000 
00000274 l       .debug_str	00000000 
0000027f l       .debug_str	00000000 
00000000 l       .debug_str	00000000 
00000041 l       .debug_str	00000000 
00000099 l       .debug_str	00000000 
000000e6 l       .debug_str	00000000 
000000eb l       .debug_str	00000000 
000000ef l       .debug_str	00000000 
000000f2 l       .debug_str	00000000 
00000106 l       .debug_str	00000000 
00000108 l       .debug_str	00000000 
00000136 l       .debug_str	00000000 
00000148 l       .debug_str	00000000 
0000014e l       .debug_str	00000000 
00000174 l       .debug_str	00000000 
00000180 l       .debug_str	00000000 
00000184 l       .debug_str	00000000 
0000019e l       .debug_str	00000000 
000001a2 l       .debug_str	00000000 
000001a6 l       .debug_str	00000000 
000001aa l       .debug_str	00000000 
00000000 l    d  .text._ZN4core3mem11size_of_val17h6de3211d084661dfE	00000000 .text._ZN4core3mem11size_of_val17h6de3211d084661dfE
00000000 l    d  .text._ZN4core3mem4swap17hb484fae726ea8945E	00000000 .text._ZN4core3mem4swap17hb484fae726ea8945E
00000000 l    d  .text._ZN4core3mem7size_of17ha5be24a1917b21b8E	00000000 .text._ZN4core3mem7size_of17ha5be24a1917b21b8E
00000000 l    d  .text._ZN4core3mem7size_of17hd6e821d2e278c7d8E	00000000 .text._ZN4core3mem7size_of17hd6e821d2e278c7d8E
00000000 l    d  .debug_abbrev	00000000 .debug_abbrev
00000000 l    d  .debug_info	00000000 .debug_info
00000000 l    d  .debug_ranges	00000000 .debug_ranges
00000000 l    d  .debug_frame	00000000 .debug_frame
00000000 l    d  .debug_line	00000000 .debug_line
00000000 g     F .text._ZN4core3mem11size_of_val17h6de3211d084661dfE	0000001e _ZN4core3mem11size_of_val17h6de3211d084661dfE
00000000 g     F .text._ZN4core3mem4swap17hb484fae726ea8945E	0000001e _ZN4core3mem4swap17hb484fae726ea8945E
00000000 g     F .text._ZN4core3mem7size_of17ha5be24a1917b21b8E	00000012 _ZN4core3mem7size_of17ha5be24a1917b21b8E
00000000 g     F .text._ZN4core3mem7size_of17hd6e821d2e278c7d8E	00000012 _ZN4core3mem7size_of17hd6e821d2e278c7d8E
00000000         *UND*	00000000 _ZN4core3ptr23swap_nonoverlapping_one17h34abe6b6202b2c58E



Disassembly of section .text._ZN4core3mem11size_of_val17h6de3211d084661dfE:

00000000 <_ZN4core3mem11size_of_val17h6de3211d084661dfE>:
_ZN4core3mem11size_of_val17h6de3211d084661dfE():
/rustc/50a0defd5a93523067ef239936cc2e0755220904/src/libcore/mem.rs:261
   0:	b086      	sub	sp, #24
   2:	460a      	mov	r2, r1
   4:	4603      	mov	r3, r0
   6:	9003      	str	r0, [sp, #12]
   8:	9104      	str	r1, [sp, #16]
/rustc/50a0defd5a93523067ef239936cc2e0755220904/src/libcore/mem.rs:262
   a:	9804      	ldr	r0, [sp, #16]
   c:	9005      	str	r0, [sp, #20]
   e:	9805      	ldr	r0, [sp, #20]
  10:	9202      	str	r2, [sp, #8]
  12:	9301      	str	r3, [sp, #4]
  14:	9000      	str	r0, [sp, #0]
  16:	e7ff      	b.n	18 <_ZN4core3mem11size_of_val17h6de3211d084661dfE+0x18>
/rustc/50a0defd5a93523067ef239936cc2e0755220904/src/libcore/mem.rs:263
  18:	9800      	ldr	r0, [sp, #0]
  1a:	b006      	add	sp, #24
  1c:	4770      	bx	lr

Disassembly of section .text._ZN4core3mem4swap17hb484fae726ea8945E:

00000000 <_ZN4core3mem4swap17hb484fae726ea8945E>:
_ZN4core3mem4swap17hb484fae726ea8945E():
/rustc/50a0defd5a93523067ef239936cc2e0755220904/src/libcore/mem.rs:493
   0:	b580      	push	{r7, lr}
   2:	b084      	sub	sp, #16
   4:	460a      	mov	r2, r1
   6:	4603      	mov	r3, r0
   8:	9002      	str	r0, [sp, #8]
   a:	9103      	str	r1, [sp, #12]
/rustc/50a0defd5a93523067ef239936cc2e0755220904/src/libcore/mem.rs:495
   c:	9802      	ldr	r0, [sp, #8]
   e:	9903      	ldr	r1, [sp, #12]
  10:	9201      	str	r2, [sp, #4]
  12:	9300      	str	r3, [sp, #0]
  14:	f7ff fffe 	bl	0 <_ZN4core3ptr23swap_nonoverlapping_one17h34abe6b6202b2c58E>
  18:	e7ff      	b.n	1a <_ZN4core3mem4swap17hb484fae726ea8945E+0x1a>
/rustc/50a0defd5a93523067ef239936cc2e0755220904/src/libcore/mem.rs:497
  1a:	b004      	add	sp, #16
  1c:	bd80      	pop	{r7, pc}

Disassembly of section .text._ZN4core3mem7size_of17ha5be24a1917b21b8E:

00000000 <_ZN4core3mem7size_of17ha5be24a1917b21b8E>:
_ZN4core3mem7size_of17ha5be24a1917b21b8E():
/rustc/50a0defd5a93523067ef239936cc2e0755220904/src/libcore/mem.rs:235
   0:	b082      	sub	sp, #8
   2:	2020      	movs	r0, #32
/rustc/50a0defd5a93523067ef239936cc2e0755220904/src/libcore/mem.rs:236
   4:	9001      	str	r0, [sp, #4]
   6:	9801      	ldr	r0, [sp, #4]
   8:	9000      	str	r0, [sp, #0]
   a:	e7ff      	b.n	c <_ZN4core3mem7size_of17ha5be24a1917b21b8E+0xc>
/rustc/50a0defd5a93523067ef239936cc2e0755220904/src/libcore/mem.rs:237
   c:	9800      	ldr	r0, [sp, #0]
   e:	b002      	add	sp, #8
  10:	4770      	bx	lr

Disassembly of section .text._ZN4core3mem7size_of17hd6e821d2e278c7d8E:

00000000 <_ZN4core3mem7size_of17hd6e821d2e278c7d8E>:
_ZN4core3mem7size_of17hd6e821d2e278c7d8E():
/rustc/50a0defd5a93523067ef239936cc2e0755220904/src/libcore/mem.rs:235
   0:	b082      	sub	sp, #8
   2:	2004      	movs	r0, #4
/rustc/50a0defd5a93523067ef239936cc2e0755220904/src/libcore/mem.rs:236
   4:	9001      	str	r0, [sp, #4]
   6:	9801      	ldr	r0, [sp, #4]
   8:	9000      	str	r0, [sp, #0]
   a:	e7ff      	b.n	c <_ZN4core3mem7size_of17hd6e821d2e278c7d8E+0xc>
/rustc/50a0defd5a93523067ef239936cc2e0755220904/src/libcore/mem.rs:237
   c:	9800      	ldr	r0, [sp, #0]
   e:	b002      	add	sp, #8
  10:	4770      	bx	lr

cstr_core-002f35632daba805.cstr_core.4br1pvmw-cgu.15.rcgu.o:     file format elf32-littlearm

SYMBOL TABLE:
00000000 l    df *ABS*	00000000 cstr_core.4br1pvmw-cgu.15
000002c9 l       .debug_str	00000000 
000001ee l       .debug_str	00000000 
0000023f l       .debug_str	00000000 
00000251 l       .debug_str	00000000 
000002a9 l       .debug_str	00000000 
000002bf l       .debug_str	00000000 
000002c6 l       .debug_str	00000000 
000002d4 l       .debug_str	00000000 
000002d6 l       .debug_str	00000000 
000002ff l       .debug_str	00000000 
00000325 l       .debug_str	00000000 
00000327 l       .debug_str	00000000 
0000032c l       .debug_str	00000000 
00000332 l       .debug_str	00000000 
00000000 l       .debug_str	00000000 
00000041 l       .debug_str	00000000 
00000099 l       .debug_str	00000000 
000000e6 l       .debug_str	00000000 
000000eb l       .debug_str	00000000 
000000f3 l       .debug_str	00000000 
000000fc l       .debug_str	00000000 
00000103 l       .debug_str	00000000 
0000012d l       .debug_str	00000000 
00000131 l       .debug_str	00000000 
00000138 l       .debug_str	00000000 
0000013c l       .debug_str	00000000 
00000141 l       .debug_str	00000000 
00000147 l       .debug_str	00000000 
00000149 l       .debug_str	00000000 
0000014e l       .debug_str	00000000 
00000152 l       .debug_str	00000000 
00000160 l       .debug_str	00000000 
00000163 l       .debug_str	00000000 
00000166 l       .debug_str	00000000 
0000016f l       .debug_str	00000000 
00000178 l       .debug_str	00000000 
00000182 l       .debug_str	00000000 
00000189 l       .debug_str	00000000 
0000018f l       .debug_str	00000000 
000001e0 l       .debug_str	00000000 
000001ec l       .debug_str	00000000 
00000000 l    d  .text._ZN50_$LT$T$u20$as$u20$core..convert..From$LT$T$GT$$GT$4from17h961716e0b7c83112E	00000000 .text._ZN50_$LT$T$u20$as$u20$core..convert..From$LT$T$GT$$GT$4from17h961716e0b7c83112E
00000000 l    d  .text._ZN50_$LT$T$u20$as$u20$core..convert..Into$LT$U$GT$$GT$4into17h06272b98ac4d8924E	00000000 .text._ZN50_$LT$T$u20$as$u20$core..convert..Into$LT$U$GT$$GT$4into17h06272b98ac4d8924E
00000000 l    d  .text._ZN53_$LT$T$u20$as$u20$core..convert..TryFrom$LT$U$GT$$GT$8try_from17heb29fdb01680adabE	00000000 .text._ZN53_$LT$T$u20$as$u20$core..convert..TryFrom$LT$U$GT$$GT$8try_from17heb29fdb01680adabE
00000000 l    d  .text._ZN6memchr6memchr17hd4cfdd53cd31b2c5E	00000000 .text._ZN6memchr6memchr17hd4cfdd53cd31b2c5E
00000000 l    d  .debug_abbrev	00000000 .debug_abbrev
00000000 l    d  .debug_info	00000000 .debug_info
00000000 l    d  .debug_ranges	00000000 .debug_ranges
00000000 l    d  .debug_frame	00000000 .debug_frame
00000000 l    d  .debug_line	00000000 .debug_line
00000000         *UND*	00000000 _ZN4core5slice29_$LT$impl$u20$$u5b$T$u5d$$GT$8is_empty17hfb27ed7bef85421cE
00000000 g     F .text._ZN50_$LT$T$u20$as$u20$core..convert..From$LT$T$GT$$GT$4from17h961716e0b7c83112E	0000000e _ZN50_$LT$T$u20$as$u20$core..convert..From$LT$T$GT$$GT$4from17h961716e0b7c83112E
00000000 g     F .text._ZN50_$LT$T$u20$as$u20$core..convert..Into$LT$U$GT$$GT$4into17h06272b98ac4d8924E	0000001a _ZN50_$LT$T$u20$as$u20$core..convert..Into$LT$U$GT$$GT$4into17h06272b98ac4d8924E
00000000 g     F .text._ZN53_$LT$T$u20$as$u20$core..convert..TryFrom$LT$U$GT$$GT$8try_from17heb29fdb01680adabE	0000001e _ZN53_$LT$T$u20$as$u20$core..convert..TryFrom$LT$U$GT$$GT$8try_from17heb29fdb01680adabE
00000000 g     F .text._ZN6memchr6memchr17hd4cfdd53cd31b2c5E	00000064 .hidden _ZN6memchr6memchr17hd4cfdd53cd31b2c5E
00000000         *UND*	00000000 _ZN6memchr8fallback6memchr17hb7c8a5efdf5c9368E



Disassembly of section .text._ZN50_$LT$T$u20$as$u20$core..convert..From$LT$T$GT$$GT$4from17h961716e0b7c83112E:

00000000 <_ZN50_$LT$T$u20$as$u20$core..convert..From$LT$T$GT$$GT$4from17h961716e0b7c83112E>:
_ZN50_$LT$T$u20$as$u20$core..convert..From$LT$T$GT$$GT$4from17h961716e0b7c83112E():
/rustc/50a0defd5a93523067ef239936cc2e0755220904/src/libcore/convert.rs:547
   0:	b082      	sub	sp, #8
   2:	4601      	mov	r1, r0
   4:	9001      	str	r0, [sp, #4]
   6:	9801      	ldr	r0, [sp, #4]
   8:	9100      	str	r1, [sp, #0]
   a:	b002      	add	sp, #8
   c:	4770      	bx	lr

Disassembly of section .text._ZN50_$LT$T$u20$as$u20$core..convert..Into$LT$U$GT$$GT$4into17h06272b98ac4d8924E:

00000000 <_ZN50_$LT$T$u20$as$u20$core..convert..Into$LT$U$GT$$GT$4into17h06272b98ac4d8924E>:
_ZN50_$LT$T$u20$as$u20$core..convert..Into$LT$U$GT$$GT$4into17h06272b98ac4d8924E():
/rustc/50a0defd5a93523067ef239936cc2e0755220904/src/libcore/convert.rs:539
   0:	b580      	push	{r7, lr}
   2:	b084      	sub	sp, #16
   4:	4601      	mov	r1, r0
   6:	9003      	str	r0, [sp, #12]
/rustc/50a0defd5a93523067ef239936cc2e0755220904/src/libcore/convert.rs:540
   8:	9803      	ldr	r0, [sp, #12]
   a:	9102      	str	r1, [sp, #8]
   c:	f7ff fffe 	bl	0 <_ZN50_$LT$T$u20$as$u20$core..convert..Into$LT$U$GT$$GT$4into17h06272b98ac4d8924E>
  10:	9001      	str	r0, [sp, #4]
  12:	e7ff      	b.n	14 <_ZN50_$LT$T$u20$as$u20$core..convert..Into$LT$U$GT$$GT$4into17h06272b98ac4d8924E+0x14>
/rustc/50a0defd5a93523067ef239936cc2e0755220904/src/libcore/convert.rs:541
  14:	9801      	ldr	r0, [sp, #4]
  16:	b004      	add	sp, #16
  18:	bd80      	pop	{r7, pc}

Disassembly of section .text._ZN53_$LT$T$u20$as$u20$core..convert..TryFrom$LT$U$GT$$GT$8try_from17heb29fdb01680adabE:

00000000 <_ZN53_$LT$T$u20$as$u20$core..convert..TryFrom$LT$U$GT$$GT$8try_from17heb29fdb01680adabE>:
_ZN53_$LT$T$u20$as$u20$core..convert..TryFrom$LT$U$GT$$GT$8try_from17heb29fdb01680adabE():
/rustc/50a0defd5a93523067ef239936cc2e0755220904/src/libcore/convert.rs:568
   0:	b580      	push	{r7, lr}
   2:	b084      	sub	sp, #16
   4:	4601      	mov	r1, r0
   6:	9002      	str	r0, [sp, #8]
/rustc/50a0defd5a93523067ef239936cc2e0755220904/src/libcore/convert.rs:569
   8:	9802      	ldr	r0, [sp, #8]
   a:	9101      	str	r1, [sp, #4]
   c:	f7ff fffe 	bl	0 <_ZN53_$LT$T$u20$as$u20$core..convert..TryFrom$LT$U$GT$$GT$8try_from17heb29fdb01680adabE>
  10:	9000      	str	r0, [sp, #0]
  12:	e7ff      	b.n	14 <_ZN53_$LT$T$u20$as$u20$core..convert..TryFrom$LT$U$GT$$GT$8try_from17heb29fdb01680adabE+0x14>
  14:	9800      	ldr	r0, [sp, #0]
  16:	9003      	str	r0, [sp, #12]
/rustc/50a0defd5a93523067ef239936cc2e0755220904/src/libcore/convert.rs:570
  18:	9803      	ldr	r0, [sp, #12]
  1a:	b004      	add	sp, #16
  1c:	bd80      	pop	{r7, pc}

Disassembly of section .text._ZN6memchr6memchr17hd4cfdd53cd31b2c5E:

00000000 <_ZN6memchr6memchr17hd4cfdd53cd31b2c5E>:
_ZN6memchr6memchr17hd4cfdd53cd31b2c5E():
/Users/Luppy/.cargo/registry/src/github.com-1ecc6299db9ec823/memchr-2.2.0/src/lib.rs:131
///
/// let haystack = b"the quick brown fox";
/// assert_eq!(memchr(b'k', haystack), Some(8));
/// ```
#[inline]
pub fn memchr(needle: u8, haystack: &[u8]) -> Option<usize> {
   0:	b580      	push	{r7, lr}
   2:	b08c      	sub	sp, #48	; 0x30
   4:	4613      	mov	r3, r2
   6:	468c      	mov	ip, r1
   8:	4686      	mov	lr, r0
   a:	f88d 0013 	strb.w	r0, [sp, #19]
   e:	9105      	str	r1, [sp, #20]
  10:	9206      	str	r2, [sp, #24]
/Users/Luppy/.cargo/registry/src/github.com-1ecc6299db9ec823/memchr-2.2.0/src/lib.rs:156
    #[inline(always)]
    fn imp(n1: u8, haystack: &[u8]) -> Option<usize> {
        fallback::memchr(n1, haystack)
    }

    if haystack.is_empty() {
  12:	9805      	ldr	r0, [sp, #20]
  14:	9906      	ldr	r1, [sp, #24]
  16:	9303      	str	r3, [sp, #12]
  18:	f8cd c008 	str.w	ip, [sp, #8]
  1c:	f8cd e004 	str.w	lr, [sp, #4]
  20:	f7ff fffe 	bl	0 <_ZN4core5slice29_$LT$impl$u20$$u5b$T$u5d$$GT$8is_empty17hfb27ed7bef85421cE>
  24:	9000      	str	r0, [sp, #0]
  26:	e7ff      	b.n	28 <_ZN6memchr6memchr17hd4cfdd53cd31b2c5E+0x28>
  28:	9800      	ldr	r0, [sp, #0]
  2a:	07c1      	lsls	r1, r0, #31
  2c:	2900      	cmp	r1, #0
  2e:	d003      	beq.n	38 <_ZN6memchr6memchr17hd4cfdd53cd31b2c5E+0x38>
  30:	e7ff      	b.n	32 <_ZN6memchr6memchr17hd4cfdd53cd31b2c5E+0x32>
  32:	2000      	movs	r0, #0
/Users/Luppy/.cargo/registry/src/github.com-1ecc6299db9ec823/memchr-2.2.0/src/lib.rs:157
        None
  34:	9007      	str	r0, [sp, #28]
/Users/Luppy/.cargo/registry/src/github.com-1ecc6299db9ec823/memchr-2.2.0/src/lib.rs:156
    if haystack.is_empty() {
  36:	e011      	b.n	5c <_ZN6memchr6memchr17hd4cfdd53cd31b2c5E+0x5c>
/Users/Luppy/.cargo/registry/src/github.com-1ecc6299db9ec823/memchr-2.2.0/src/lib.rs:159
    } else {
        imp(needle, haystack)
  38:	f89d 0013 	ldrb.w	r0, [sp, #19]
  3c:	9905      	ldr	r1, [sp, #20]
  3e:	9a06      	ldr	r2, [sp, #24]
  40:	f88d 0027 	strb.w	r0, [sp, #39]	; 0x27
  44:	910a      	str	r1, [sp, #40]	; 0x28
  46:	920b      	str	r2, [sp, #44]	; 0x2c
_ZN6memchr6memchr3imp17hf3d0674e494e4cb2E():
/Users/Luppy/.cargo/registry/src/github.com-1ecc6299db9ec823/memchr-2.2.0/src/lib.rs:153
        fallback::memchr(n1, haystack)
  48:	990a      	ldr	r1, [sp, #40]	; 0x28
  4a:	9a0b      	ldr	r2, [sp, #44]	; 0x2c
  4c:	f89d 0027 	ldrb.w	r0, [sp, #39]	; 0x27
  50:	f7ff fffe 	bl	0 <_ZN6memchr8fallback6memchr17hb7c8a5efdf5c9368E>
_ZN6memchr6memchr17hd4cfdd53cd31b2c5E():
/Users/Luppy/.cargo/registry/src/github.com-1ecc6299db9ec823/memchr-2.2.0/src/lib.rs:159
        imp(needle, haystack)
  54:	9108      	str	r1, [sp, #32]
  56:	9007      	str	r0, [sp, #28]
  58:	e7ff      	b.n	5a <_ZN6memchr6memchr17hd4cfdd53cd31b2c5E+0x5a>
/Users/Luppy/.cargo/registry/src/github.com-1ecc6299db9ec823/memchr-2.2.0/src/lib.rs:156
    if haystack.is_empty() {
  5a:	e7ff      	b.n	5c <_ZN6memchr6memchr17hd4cfdd53cd31b2c5E+0x5c>
/Users/Luppy/.cargo/registry/src/github.com-1ecc6299db9ec823/memchr-2.2.0/src/lib.rs:161
    }
}
  5c:	9807      	ldr	r0, [sp, #28]
  5e:	9908      	ldr	r1, [sp, #32]
  60:	b00c      	add	sp, #48	; 0x30
  62:	bd80      	pop	{r7, pc}

cstr_core-002f35632daba805.cstr_core.4br1pvmw-cgu.2.rcgu.o:     file format elf32-littlearm

SYMBOL TABLE:
00000000 l    df *ABS*	00000000 cstr_core.4br1pvmw-cgu.2
00000577 l       .debug_str	00000000 
0000051a l       .debug_str	00000000 
00000565 l       .debug_str	00000000 
00000572 l       .debug_str	00000000 
000005d8 l       .debug_str	00000000 
000005e0 l       .debug_str	00000000 
00000651 l       .debug_str	00000000 
00000661 l       .debug_str	00000000 
0000067d l       .debug_str	00000000 
0000068c l       .debug_str	00000000 
00000701 l       .debug_str	00000000 
0000072c l       .debug_str	00000000 
00000735 l       .debug_str	00000000 
0000073c l       .debug_str	00000000 
00000742 l       .debug_str	00000000 
00000744 l       .debug_str	00000000 
000007bd l       .debug_str	00000000 
000007c7 l       .debug_str	00000000 
00000829 l       .debug_str	00000000 
00000831 l       .debug_str	00000000 
00000895 l       .debug_str	00000000 
0000089f l       .debug_str	00000000 
0000090f l       .debug_str	00000000 
00000923 l       .debug_str	00000000 
00000997 l       .debug_str	00000000 
000009a0 l       .debug_str	00000000 
000009ac l       .debug_str	00000000 
000009b2 l       .debug_str	00000000 
000009b8 l       .debug_str	00000000 
000009be l       .debug_str	00000000 
000009c2 l       .debug_str	00000000 
00000000 l       .debug_str	00000000 
00000041 l       .debug_str	00000000 
00000099 l       .debug_str	00000000 
000000e6 l       .debug_str	00000000 
000000eb l       .debug_str	00000000 
000000ef l       .debug_str	00000000 
000000f2 l       .debug_str	00000000 
000000f7 l       .debug_str	00000000 
000000fd l       .debug_str	00000000 
00000105 l       .debug_str	00000000 
0000010e l       .debug_str	00000000 
00000113 l       .debug_str	00000000 
0000011a l       .debug_str	00000000 
00000123 l       .debug_str	00000000 
0000012c l       .debug_str	00000000 
00000132 l       .debug_str	00000000 
0000013b l       .debug_str	00000000 
0000013f l       .debug_str	00000000 
00000142 l       .debug_str	00000000 
0000014c l       .debug_str	00000000 
00000150 l       .debug_str	00000000 
00000158 l       .debug_str	00000000 
0000015f l       .debug_str	00000000 
00000163 l       .debug_str	00000000 
00000165 l       .debug_str	00000000 
00000176 l       .debug_str	00000000 
0000017f l       .debug_str	00000000 
000001c1 l       .debug_str	00000000 
000001d4 l       .debug_str	00000000 
000001d9 l       .debug_str	00000000 
000001f4 l       .debug_str	00000000 
000001fb l       .debug_str	00000000 
00000201 l       .debug_str	00000000 
00000205 l       .debug_str	00000000 
0000020a l       .debug_str	00000000 
00000214 l       .debug_str	00000000 
0000021a l       .debug_str	00000000 
00000220 l       .debug_str	00000000 
00000224 l       .debug_str	00000000 
0000022a l       .debug_str	00000000 
00000230 l       .debug_str	00000000 
00000234 l       .debug_str	00000000 
00000241 l       .debug_str	00000000 
00000246 l       .debug_str	00000000 
0000025a l       .debug_str	00000000 
00000268 l       .debug_str	00000000 
0000026a l       .debug_str	00000000 
00000272 l       .debug_str	00000000 
00000274 l       .debug_str	00000000 
000002b3 l       .debug_str	00000000 
000002f6 l       .debug_str	00000000 
000002ff l       .debug_str	00000000 
00000301 l       .debug_str	00000000 
00000303 l       .debug_str	00000000 
00000327 l       .debug_str	00000000 
00000329 l       .debug_str	00000000 
0000036d l       .debug_str	00000000 
000003b5 l       .debug_str	00000000 
000003bd l       .debug_str	00000000 
000003c3 l       .debug_str	00000000 
000003cd l       .debug_str	00000000 
000003d4 l       .debug_str	00000000 
000003d8 l       .debug_str	00000000 
000003dd l       .debug_str	00000000 
000003e2 l       .debug_str	00000000 
000003e6 l       .debug_str	00000000 
0000040e l       .debug_str	00000000 
00000417 l       .debug_str	00000000 
00000481 l       .debug_str	00000000 
000004ca l       .debug_str	00000000 
00000511 l       .debug_str	00000000 
00000000 l     F .text._ZN64_$LT$$u5b$u8$u5d$$u20$as$u20$core..slice..SliceOrd$LT$u8$GT$$GT$7compare17h002a3d6da0d95d1dE	000000be _ZN64_$LT$$u5b$u8$u5d$$u20$as$u20$core..slice..SliceOrd$LT$u8$GT$$GT$7compare17h002a3d6da0d95d1dE
00000000 l    d  .text._ZN4core4iter6traits8iterator8Iterator3map17h4161af8580973d37E	00000000 .text._ZN4core4iter6traits8iterator8Iterator3map17h4161af8580973d37E
00000000 l    d  .text._ZN4core4iter6traits8iterator8Iterator8flat_map17h7a91fd5a91b266edE	00000000 .text._ZN4core4iter6traits8iterator8Iterator8flat_map17h7a91fd5a91b266edE
00000000 l    d  .text._ZN4core5slice29_$LT$impl$u20$$u5b$T$u5d$$GT$4iter17h9dfc354656166554E	00000000 .text._ZN4core5slice29_$LT$impl$u20$$u5b$T$u5d$$GT$4iter17h9dfc354656166554E
00000000 l    d  .text._ZN4core5slice29_$LT$impl$u20$$u5b$T$u5d$$GT$8is_empty17hfb27ed7bef85421cE	00000000 .text._ZN4core5slice29_$LT$impl$u20$$u5b$T$u5d$$GT$8is_empty17hfb27ed7bef85421cE
00000000 l    d  .text._ZN4core5slice56_$LT$impl$u20$core..cmp..Ord$u20$for$u20$$u5b$T$u5d$$GT$3cmp17h5677eb130bb1f03dE	00000000 .text._ZN4core5slice56_$LT$impl$u20$core..cmp..Ord$u20$for$u20$$u5b$T$u5d$$GT$3cmp17h5677eb130bb1f03dE
00000000 l    d  .text._ZN4core5slice63_$LT$impl$u20$core..cmp..PartialOrd$u20$for$u20$$u5b$T$u5d$$GT$11partial_cmp17hba9501e00aaedbdcE	00000000 .text._ZN4core5slice63_$LT$impl$u20$core..cmp..PartialOrd$u20$for$u20$$u5b$T$u5d$$GT$11partial_cmp17hba9501e00aaedbdcE
00000000 l    d  .text._ZN4core5slice74_$LT$impl$u20$core..ops..index..Index$LT$I$GT$$u20$for$u20$$u5b$T$u5d$$GT$5index17h0593a8c433e1e3beE	00000000 .text._ZN4core5slice74_$LT$impl$u20$core..ops..index..Index$LT$I$GT$$u20$for$u20$$u5b$T$u5d$$GT$5index17h0593a8c433e1e3beE
00000000 l    d  .text._ZN4core5slice81_$LT$impl$u20$core..cmp..PartialEq$LT$$u5b$B$u5d$$GT$$u20$for$u20$$u5b$A$u5d$$GT$2eq17hc091c42e680bb162E	00000000 .text._ZN4core5slice81_$LT$impl$u20$core..cmp..PartialEq$LT$$u5b$B$u5d$$GT$$u20$for$u20$$u5b$A$u5d$$GT$2eq17hc091c42e680bb162E
00000000 l    d  .text._ZN64_$LT$$u5b$u8$u5d$$u20$as$u20$core..slice..SliceOrd$LT$u8$GT$$GT$7compare17h002a3d6da0d95d1dE	00000000 .text._ZN64_$LT$$u5b$u8$u5d$$u20$as$u20$core..slice..SliceOrd$LT$u8$GT$$GT$7compare17h002a3d6da0d95d1dE
00000000 l    d  .text._ZN68_$LT$$u5b$A$u5d$$u20$as$u20$core..slice..SlicePartialEq$LT$A$GT$$GT$5equal17h9cb35bf49025d983E	00000000 .text._ZN68_$LT$$u5b$A$u5d$$u20$as$u20$core..slice..SlicePartialEq$LT$A$GT$$GT$5equal17h9cb35bf49025d983E
00000000 l    d  .text._ZN69_$LT$$u5b$A$u5d$$u20$as$u20$core..slice..SlicePartialOrd$LT$A$GT$$GT$15partial_compare17h712ebe8c555960f6E	00000000 .text._ZN69_$LT$$u5b$A$u5d$$u20$as$u20$core..slice..SlicePartialOrd$LT$A$GT$$GT$15partial_compare17h712ebe8c555960f6E
00000000 l    d  .text._ZN85_$LT$core..slice..Iter$LT$T$GT$$u20$as$u20$core..iter..traits..iterator..Iterator$GT$4next17h6227c951e142856aE	00000000 .text._ZN85_$LT$core..slice..Iter$LT$T$GT$$u20$as$u20$core..iter..traits..iterator..Iterator$GT$4next17h6227c951e142856aE
00000000 l    d  .debug_abbrev	00000000 .debug_abbrev
00000000 l    d  .debug_info	00000000 .debug_info
00000000 l    d  .debug_ranges	00000000 .debug_ranges
00000000 l    d  .debug_frame	00000000 .debug_frame
00000000 l    d  .debug_line	00000000 .debug_line
00000000         *UND*	00000000 _ZN101_$LT$core..ops..range..RangeTo$LT$usize$GT$$u20$as$u20$core..slice..SliceIndex$LT$$u5b$T$u5d$$GT$$GT$5index17h028ea9306c0932cdE
00000000         *UND*	00000000 _ZN4core3cmp3min17h092024cef1827f27E
00000000         *UND*	00000000 .hidden _ZN4core3cmp5impls50_$LT$impl$u20$core..cmp..Ord$u20$for$u20$usize$GT$3cmp17h3e9a54d53fafb581E
00000000         *UND*	00000000 _ZN4core3mem11size_of_val17h6de3211d084661dfE
00000000         *UND*	00000000 _ZN4core3mem7size_of17h96e196a831b2ee50E
00000000         *UND*	00000000 _ZN4core3ptr33_$LT$impl$u20$$BP$const$u20$T$GT$12wrapping_add17h1080285cddf344e4E
00000000         *UND*	00000000 _ZN4core3ptr33_$LT$impl$u20$$BP$const$u20$T$GT$15wrapping_offset17hd71f8a6979fbad80E
00000000         *UND*	00000000 _ZN4core3ptr33_$LT$impl$u20$$BP$const$u20$T$GT$3add17h070926fb062338c0E
00000000         *UND*	00000000 _ZN4core3ptr33_$LT$impl$u20$$BP$const$u20$T$GT$6offset17h1b1bd4fc0c06f6a7E
00000000         *UND*	00000000 _ZN4core3ptr33_$LT$impl$u20$$BP$const$u20$T$GT$7is_null17h5dfc35f677b1147aE
00000000 g     F .text._ZN4core4iter6traits8iterator8Iterator3map17h4161af8580973d37E	00000026 _ZN4core4iter6traits8iterator8Iterator3map17h4161af8580973d37E
00000000 g     F .text._ZN4core4iter6traits8iterator8Iterator8flat_map17h7a91fd5a91b266edE	00000026 _ZN4core4iter6traits8iterator8Iterator8flat_map17h7a91fd5a91b266edE
00000000         *UND*	00000000 _ZN4core4iter8adapters16Map$LT$I$C$F$GT$3new17hafc38d3a071e0836E
00000000         *UND*	00000000 _ZN4core4iter8adapters7flatten24FlatMap$LT$I$C$U$C$F$GT$3new17h468568bb2189164dE
00000000         *UND*	00000000 _ZN4core5slice29_$LT$impl$u20$$u5b$T$u5d$$GT$3len17h63f985867d9f263fE
00000000 g     F .text._ZN4core5slice29_$LT$impl$u20$$u5b$T$u5d$$GT$4iter17h9dfc354656166554E	00000090 _ZN4core5slice29_$LT$impl$u20$$u5b$T$u5d$$GT$4iter17h9dfc354656166554E
00000000         *UND*	00000000 _ZN4core5slice29_$LT$impl$u20$$u5b$T$u5d$$GT$6as_ptr17hd0263209417be61aE
00000000 g     F .text._ZN4core5slice29_$LT$impl$u20$$u5b$T$u5d$$GT$8is_empty17hfb27ed7bef85421cE	00000028 _ZN4core5slice29_$LT$impl$u20$$u5b$T$u5d$$GT$8is_empty17hfb27ed7bef85421cE
00000000 g     F .text._ZN4core5slice56_$LT$impl$u20$core..cmp..Ord$u20$for$u20$$u5b$T$u5d$$GT$3cmp17h5677eb130bb1f03dE	00000036 _ZN4core5slice56_$LT$impl$u20$core..cmp..Ord$u20$for$u20$$u5b$T$u5d$$GT$3cmp17h5677eb130bb1f03dE
00000000 g     F .text._ZN4core5slice63_$LT$impl$u20$core..cmp..PartialOrd$u20$for$u20$$u5b$T$u5d$$GT$11partial_cmp17hba9501e00aaedbdcE	00000036 _ZN4core5slice63_$LT$impl$u20$core..cmp..PartialOrd$u20$for$u20$$u5b$T$u5d$$GT$11partial_cmp17hba9501e00aaedbdcE
00000000 g     F .text._ZN4core5slice74_$LT$impl$u20$core..ops..index..Index$LT$I$GT$$u20$for$u20$$u5b$T$u5d$$GT$5index17h0593a8c433e1e3beE	00000032 _ZN4core5slice74_$LT$impl$u20$core..ops..index..Index$LT$I$GT$$u20$for$u20$$u5b$T$u5d$$GT$5index17h0593a8c433e1e3beE
00000000 g     F .text._ZN4core5slice81_$LT$impl$u20$core..cmp..PartialEq$LT$$u5b$B$u5d$$GT$$u20$for$u20$$u5b$A$u5d$$GT$2eq17hc091c42e680bb162E	0000003a _ZN4core5slice81_$LT$impl$u20$core..cmp..PartialEq$LT$$u5b$B$u5d$$GT$$u20$for$u20$$u5b$A$u5d$$GT$2eq17hc091c42e680bb162E
00000000 g     F .text._ZN68_$LT$$u5b$A$u5d$$u20$as$u20$core..slice..SlicePartialEq$LT$A$GT$$GT$5equal17h9cb35bf49025d983E	000000bc _ZN68_$LT$$u5b$A$u5d$$u20$as$u20$core..slice..SlicePartialEq$LT$A$GT$$GT$5equal17h9cb35bf49025d983E
00000000 g     F .text._ZN69_$LT$$u5b$A$u5d$$u20$as$u20$core..slice..SlicePartialOrd$LT$A$GT$$GT$15partial_compare17h712ebe8c555960f6E	0000003e _ZN69_$LT$$u5b$A$u5d$$u20$as$u20$core..slice..SlicePartialOrd$LT$A$GT$$GT$15partial_compare17h712ebe8c555960f6E
00000000 g     F .text._ZN85_$LT$core..slice..Iter$LT$T$GT$$u20$as$u20$core..iter..traits..iterator..Iterator$GT$4next17h6227c951e142856aE	000000a0 _ZN85_$LT$core..slice..Iter$LT$T$GT$$u20$as$u20$core..iter..traits..iterator..Iterator$GT$4next17h6227c951e142856aE
00000000         *UND*	00000000 memcmp



Disassembly of section .text._ZN4core4iter6traits8iterator8Iterator3map17h4161af8580973d37E:

00000000 <_ZN4core4iter6traits8iterator8Iterator3map17h4161af8580973d37E>:
_ZN4core4iter6traits8iterator8Iterator3map17h4161af8580973d37E():
/rustc/50a0defd5a93523067ef239936cc2e0755220904/src/libcore/iter/traits/iterator.rs:558
   0:	b580      	push	{r7, lr}
   2:	b088      	sub	sp, #32
   4:	460a      	mov	r2, r1
   6:	4603      	mov	r3, r0
   8:	9005      	str	r0, [sp, #20]
   a:	9106      	str	r1, [sp, #24]
/rustc/50a0defd5a93523067ef239936cc2e0755220904/src/libcore/iter/traits/iterator.rs:561
   c:	9805      	ldr	r0, [sp, #20]
   e:	9906      	ldr	r1, [sp, #24]
  10:	9204      	str	r2, [sp, #16]
  12:	9303      	str	r3, [sp, #12]
  14:	f7ff fffe 	bl	0 <_ZN4core4iter8adapters16Map$LT$I$C$F$GT$3new17hafc38d3a071e0836E>
  18:	9002      	str	r0, [sp, #8]
  1a:	9101      	str	r1, [sp, #4]
  1c:	e7ff      	b.n	1e <_ZN4core4iter6traits8iterator8Iterator3map17h4161af8580973d37E+0x1e>
/rustc/50a0defd5a93523067ef239936cc2e0755220904/src/libcore/iter/traits/iterator.rs:562
  1e:	9802      	ldr	r0, [sp, #8]
  20:	9901      	ldr	r1, [sp, #4]
  22:	b008      	add	sp, #32
  24:	bd80      	pop	{r7, pc}

Disassembly of section .text._ZN4core4iter6traits8iterator8Iterator8flat_map17h7a91fd5a91b266edE:

00000000 <_ZN4core4iter6traits8iterator8Iterator8flat_map17h7a91fd5a91b266edE>:
_ZN4core4iter6traits8iterator8Iterator8flat_map17h7a91fd5a91b266edE():
/rustc/50a0defd5a93523067ef239936cc2e0755220904/src/libcore/iter/traits/iterator.rs:1095
   0:	b580      	push	{r7, lr}
   2:	b086      	sub	sp, #24
   4:	4613      	mov	r3, r2
   6:	468c      	mov	ip, r1
   8:	4686      	mov	lr, r0
   a:	9103      	str	r1, [sp, #12]
   c:	9204      	str	r2, [sp, #16]
/rustc/50a0defd5a93523067ef239936cc2e0755220904/src/libcore/iter/traits/iterator.rs:1098
   e:	9903      	ldr	r1, [sp, #12]
  10:	9a04      	ldr	r2, [sp, #16]
  12:	9302      	str	r3, [sp, #8]
  14:	f8cd c004 	str.w	ip, [sp, #4]
  18:	f8cd e000 	str.w	lr, [sp]
  1c:	f7ff fffe 	bl	0 <_ZN4core4iter8adapters7flatten24FlatMap$LT$I$C$U$C$F$GT$3new17h468568bb2189164dE>
  20:	e7ff      	b.n	22 <_ZN4core4iter6traits8iterator8Iterator8flat_map17h7a91fd5a91b266edE+0x22>
/rustc/50a0defd5a93523067ef239936cc2e0755220904/src/libcore/iter/traits/iterator.rs:1099
  22:	b006      	add	sp, #24
  24:	bd80      	pop	{r7, pc}

Disassembly of section .text._ZN4core5slice29_$LT$impl$u20$$u5b$T$u5d$$GT$4iter17h9dfc354656166554E:

00000000 <_ZN4core5slice29_$LT$impl$u20$$u5b$T$u5d$$GT$4iter17h9dfc354656166554E>:
_ZN4core5slice29_$LT$impl$u20$$u5b$T$u5d$$GT$4iter17h9dfc354656166554E():
/rustc/50a0defd5a93523067ef239936cc2e0755220904/src/libcore/slice/mod.rs:535
   0:	b580      	push	{r7, lr}
   2:	b090      	sub	sp, #64	; 0x40
   4:	460a      	mov	r2, r1
   6:	4603      	mov	r3, r0
   8:	9009      	str	r0, [sp, #36]	; 0x24
   a:	910a      	str	r1, [sp, #40]	; 0x28
/rustc/50a0defd5a93523067ef239936cc2e0755220904/src/libcore/slice/mod.rs:537
   c:	9809      	ldr	r0, [sp, #36]	; 0x24
   e:	990a      	ldr	r1, [sp, #40]	; 0x28
  10:	9208      	str	r2, [sp, #32]
  12:	9307      	str	r3, [sp, #28]
  14:	f7ff fffe 	bl	0 <_ZN4core5slice29_$LT$impl$u20$$u5b$T$u5d$$GT$6as_ptr17hd0263209417be61aE>
  18:	900d      	str	r0, [sp, #52]	; 0x34
  1a:	e7ff      	b.n	1c <_ZN4core5slice29_$LT$impl$u20$$u5b$T$u5d$$GT$4iter17h9dfc354656166554E+0x1c>
/rustc/50a0defd5a93523067ef239936cc2e0755220904/src/libcore/slice/mod.rs:538
  1c:	980d      	ldr	r0, [sp, #52]	; 0x34
  1e:	f7ff fffe 	bl	0 <_ZN4core3ptr33_$LT$impl$u20$$BP$const$u20$T$GT$7is_null17h5dfc35f677b1147aE>
  22:	9006      	str	r0, [sp, #24]
  24:	e7ff      	b.n	26 <_ZN4core5slice29_$LT$impl$u20$$u5b$T$u5d$$GT$4iter17h9dfc354656166554E+0x26>
  26:	e7ff      	b.n	28 <_ZN4core5slice29_$LT$impl$u20$$u5b$T$u5d$$GT$4iter17h9dfc354656166554E+0x28>
/rustc/50a0defd5a93523067ef239936cc2e0755220904/src/libcore/slice/mod.rs:540
  28:	f7ff fffe 	bl	0 <_ZN4core3mem7size_of17h96e196a831b2ee50E>
  2c:	9005      	str	r0, [sp, #20]
  2e:	e7ff      	b.n	30 <_ZN4core5slice29_$LT$impl$u20$$u5b$T$u5d$$GT$4iter17h9dfc354656166554E+0x30>
  30:	9805      	ldr	r0, [sp, #20]
  32:	2800      	cmp	r0, #0
  34:	d113      	bne.n	5e <_ZN4core5slice29_$LT$impl$u20$$u5b$T$u5d$$GT$4iter17h9dfc354656166554E+0x5e>
  36:	e7ff      	b.n	38 <_ZN4core5slice29_$LT$impl$u20$$u5b$T$u5d$$GT$4iter17h9dfc354656166554E+0x38>
/rustc/50a0defd5a93523067ef239936cc2e0755220904/src/libcore/slice/mod.rs:541
  38:	980d      	ldr	r0, [sp, #52]	; 0x34
  3a:	9909      	ldr	r1, [sp, #36]	; 0x24
  3c:	9a0a      	ldr	r2, [sp, #40]	; 0x28
  3e:	9004      	str	r0, [sp, #16]
  40:	4608      	mov	r0, r1
  42:	4611      	mov	r1, r2
  44:	f7ff fffe 	bl	0 <_ZN4core5slice29_$LT$impl$u20$$u5b$T$u5d$$GT$3len17h63f985867d9f263fE>
  48:	9003      	str	r0, [sp, #12]
  4a:	e7ff      	b.n	4c <_ZN4core5slice29_$LT$impl$u20$$u5b$T$u5d$$GT$4iter17h9dfc354656166554E+0x4c>
  4c:	9804      	ldr	r0, [sp, #16]
  4e:	9903      	ldr	r1, [sp, #12]
  50:	f7ff fffe 	bl	0 <_ZN4core3ptr33_$LT$impl$u20$$BP$const$u20$T$GT$12wrapping_add17h1080285cddf344e4E>
  54:	9002      	str	r0, [sp, #8]
  56:	e7ff      	b.n	58 <_ZN4core5slice29_$LT$impl$u20$$u5b$T$u5d$$GT$4iter17h9dfc354656166554E+0x58>
  58:	9802      	ldr	r0, [sp, #8]
  5a:	900e      	str	r0, [sp, #56]	; 0x38
/rustc/50a0defd5a93523067ef239936cc2e0755220904/src/libcore/slice/mod.rs:540
  5c:	e010      	b.n	80 <_ZN4core5slice29_$LT$impl$u20$$u5b$T$u5d$$GT$4iter17h9dfc354656166554E+0x80>
/rustc/50a0defd5a93523067ef239936cc2e0755220904/src/libcore/slice/mod.rs:543
  5e:	980d      	ldr	r0, [sp, #52]	; 0x34
  60:	9909      	ldr	r1, [sp, #36]	; 0x24
  62:	9a0a      	ldr	r2, [sp, #40]	; 0x28
  64:	9001      	str	r0, [sp, #4]
  66:	4608      	mov	r0, r1
  68:	4611      	mov	r1, r2
  6a:	f7ff fffe 	bl	0 <_ZN4core5slice29_$LT$impl$u20$$u5b$T$u5d$$GT$3len17h63f985867d9f263fE>
  6e:	9000      	str	r0, [sp, #0]
  70:	e7ff      	b.n	72 <_ZN4core5slice29_$LT$impl$u20$$u5b$T$u5d$$GT$4iter17h9dfc354656166554E+0x72>
  72:	9801      	ldr	r0, [sp, #4]
  74:	9900      	ldr	r1, [sp, #0]
  76:	f7ff fffe 	bl	0 <_ZN4core3ptr33_$LT$impl$u20$$BP$const$u20$T$GT$3add17h070926fb062338c0E>
  7a:	900e      	str	r0, [sp, #56]	; 0x38
  7c:	e7ff      	b.n	7e <_ZN4core5slice29_$LT$impl$u20$$u5b$T$u5d$$GT$4iter17h9dfc354656166554E+0x7e>
/rustc/50a0defd5a93523067ef239936cc2e0755220904/src/libcore/slice/mod.rs:540
  7e:	e7ff      	b.n	80 <_ZN4core5slice29_$LT$impl$u20$$u5b$T$u5d$$GT$4iter17h9dfc354656166554E+0x80>
/rustc/50a0defd5a93523067ef239936cc2e0755220904/src/libcore/slice/mod.rs:547
  80:	980d      	ldr	r0, [sp, #52]	; 0x34
/rustc/50a0defd5a93523067ef239936cc2e0755220904/src/libcore/slice/mod.rs:548
  82:	990e      	ldr	r1, [sp, #56]	; 0x38
/rustc/50a0defd5a93523067ef239936cc2e0755220904/src/libcore/slice/mod.rs:546
  84:	900b      	str	r0, [sp, #44]	; 0x2c
  86:	910c      	str	r1, [sp, #48]	; 0x30
/rustc/50a0defd5a93523067ef239936cc2e0755220904/src/libcore/slice/mod.rs:552
  88:	980b      	ldr	r0, [sp, #44]	; 0x2c
  8a:	990c      	ldr	r1, [sp, #48]	; 0x30
  8c:	b010      	add	sp, #64	; 0x40
  8e:	bd80      	pop	{r7, pc}

Disassembly of section .text._ZN4core5slice29_$LT$impl$u20$$u5b$T$u5d$$GT$8is_empty17hfb27ed7bef85421cE:

00000000 <_ZN4core5slice29_$LT$impl$u20$$u5b$T$u5d$$GT$8is_empty17hfb27ed7bef85421cE>:
_ZN4core5slice29_$LT$impl$u20$$u5b$T$u5d$$GT$8is_empty17hfb27ed7bef85421cE():
/rustc/50a0defd5a93523067ef239936cc2e0755220904/src/libcore/slice/mod.rs:96
   0:	b580      	push	{r7, lr}
   2:	b086      	sub	sp, #24
   4:	460a      	mov	r2, r1
   6:	4603      	mov	r3, r0
   8:	9004      	str	r0, [sp, #16]
   a:	9105      	str	r1, [sp, #20]
/rustc/50a0defd5a93523067ef239936cc2e0755220904/src/libcore/slice/mod.rs:97
   c:	9804      	ldr	r0, [sp, #16]
   e:	9905      	ldr	r1, [sp, #20]
  10:	9203      	str	r2, [sp, #12]
  12:	9302      	str	r3, [sp, #8]
  14:	f7ff fffe 	bl	0 <_ZN4core5slice29_$LT$impl$u20$$u5b$T$u5d$$GT$3len17h63f985867d9f263fE>
  18:	9001      	str	r0, [sp, #4]
  1a:	e7ff      	b.n	1c <_ZN4core5slice29_$LT$impl$u20$$u5b$T$u5d$$GT$8is_empty17hfb27ed7bef85421cE+0x1c>
  1c:	9801      	ldr	r0, [sp, #4]
  1e:	fab0 f180 	clz	r1, r0
  22:	0948      	lsrs	r0, r1, #5
/rustc/50a0defd5a93523067ef239936cc2e0755220904/src/libcore/slice/mod.rs:98
  24:	b006      	add	sp, #24
  26:	bd80      	pop	{r7, pc}

Disassembly of section .text._ZN4core5slice56_$LT$impl$u20$core..cmp..Ord$u20$for$u20$$u5b$T$u5d$$GT$3cmp17h5677eb130bb1f03dE:

00000000 <_ZN4core5slice56_$LT$impl$u20$core..cmp..Ord$u20$for$u20$$u5b$T$u5d$$GT$3cmp17h5677eb130bb1f03dE>:
_ZN4core5slice56_$LT$impl$u20$core..cmp..Ord$u20$for$u20$$u5b$T$u5d$$GT$3cmp17h5677eb130bb1f03dE():
/rustc/50a0defd5a93523067ef239936cc2e0755220904/src/libcore/slice/mod.rs:5197
   0:	b5b0      	push	{r4, r5, r7, lr}
   2:	b08a      	sub	sp, #40	; 0x28
   4:	469c      	mov	ip, r3
   6:	4696      	mov	lr, r2
   8:	460c      	mov	r4, r1
   a:	4605      	mov	r5, r0
   c:	9006      	str	r0, [sp, #24]
   e:	9107      	str	r1, [sp, #28]
  10:	9208      	str	r2, [sp, #32]
  12:	9309      	str	r3, [sp, #36]	; 0x24
/rustc/50a0defd5a93523067ef239936cc2e0755220904/src/libcore/slice/mod.rs:5198
  14:	9806      	ldr	r0, [sp, #24]
  16:	9907      	ldr	r1, [sp, #28]
  18:	9a08      	ldr	r2, [sp, #32]
  1a:	9b09      	ldr	r3, [sp, #36]	; 0x24
  1c:	f8cd c014 	str.w	ip, [sp, #20]
  20:	f8cd e010 	str.w	lr, [sp, #16]
  24:	9403      	str	r4, [sp, #12]
  26:	9502      	str	r5, [sp, #8]
  28:	f7ff fffe 	bl	0 <_ZN4core5slice56_$LT$impl$u20$core..cmp..Ord$u20$for$u20$$u5b$T$u5d$$GT$3cmp17h5677eb130bb1f03dE>
  2c:	9001      	str	r0, [sp, #4]
  2e:	e7ff      	b.n	30 <_ZN4core5slice56_$LT$impl$u20$core..cmp..Ord$u20$for$u20$$u5b$T$u5d$$GT$3cmp17h5677eb130bb1f03dE+0x30>
/rustc/50a0defd5a93523067ef239936cc2e0755220904/src/libcore/slice/mod.rs:5199
  30:	9801      	ldr	r0, [sp, #4]
  32:	b00a      	add	sp, #40	; 0x28
  34:	bdb0      	pop	{r4, r5, r7, pc}

Disassembly of section .text._ZN4core5slice63_$LT$impl$u20$core..cmp..PartialOrd$u20$for$u20$$u5b$T$u5d$$GT$11partial_cmp17hba9501e00aaedbdcE:

00000000 <_ZN4core5slice63_$LT$impl$u20$core..cmp..PartialOrd$u20$for$u20$$u5b$T$u5d$$GT$11partial_cmp17hba9501e00aaedbdcE>:
_ZN4core5slice63_$LT$impl$u20$core..cmp..PartialOrd$u20$for$u20$$u5b$T$u5d$$GT$11partial_cmp17hba9501e00aaedbdcE():
/rustc/50a0defd5a93523067ef239936cc2e0755220904/src/libcore/slice/mod.rs:5205
   0:	b5b0      	push	{r4, r5, r7, lr}
   2:	b08a      	sub	sp, #40	; 0x28
   4:	469c      	mov	ip, r3
   6:	4696      	mov	lr, r2
   8:	460c      	mov	r4, r1
   a:	4605      	mov	r5, r0
   c:	9006      	str	r0, [sp, #24]
   e:	9107      	str	r1, [sp, #28]
  10:	9208      	str	r2, [sp, #32]
  12:	9309      	str	r3, [sp, #36]	; 0x24
/rustc/50a0defd5a93523067ef239936cc2e0755220904/src/libcore/slice/mod.rs:5206
  14:	9806      	ldr	r0, [sp, #24]
  16:	9907      	ldr	r1, [sp, #28]
  18:	9a08      	ldr	r2, [sp, #32]
  1a:	9b09      	ldr	r3, [sp, #36]	; 0x24
  1c:	f8cd c014 	str.w	ip, [sp, #20]
  20:	f8cd e010 	str.w	lr, [sp, #16]
  24:	9403      	str	r4, [sp, #12]
  26:	9502      	str	r5, [sp, #8]
  28:	f7ff fffe 	bl	0 <_ZN4core5slice63_$LT$impl$u20$core..cmp..PartialOrd$u20$for$u20$$u5b$T$u5d$$GT$11partial_cmp17hba9501e00aaedbdcE>
  2c:	9001      	str	r0, [sp, #4]
  2e:	e7ff      	b.n	30 <_ZN4core5slice63_$LT$impl$u20$core..cmp..PartialOrd$u20$for$u20$$u5b$T$u5d$$GT$11partial_cmp17hba9501e00aaedbdcE+0x30>
/rustc/50a0defd5a93523067ef239936cc2e0755220904/src/libcore/slice/mod.rs:5207
  30:	9801      	ldr	r0, [sp, #4]
  32:	b00a      	add	sp, #40	; 0x28
  34:	bdb0      	pop	{r4, r5, r7, pc}

Disassembly of section .text._ZN4core5slice74_$LT$impl$u20$core..ops..index..Index$LT$I$GT$$u20$for$u20$$u5b$T$u5d$$GT$5index17h0593a8c433e1e3beE:

00000000 <_ZN4core5slice74_$LT$impl$u20$core..ops..index..Index$LT$I$GT$$u20$for$u20$$u5b$T$u5d$$GT$5index17h0593a8c433e1e3beE>:
_ZN4core5slice74_$LT$impl$u20$core..ops..index..Index$LT$I$GT$$u20$for$u20$$u5b$T$u5d$$GT$5index17h0593a8c433e1e3beE():
/rustc/50a0defd5a93523067ef239936cc2e0755220904/src/libcore/slice/mod.rs:2551
   0:	b580      	push	{r7, lr}
   2:	b088      	sub	sp, #32
   4:	4613      	mov	r3, r2
   6:	468c      	mov	ip, r1
   8:	4686      	mov	lr, r0
   a:	9005      	str	r0, [sp, #20]
   c:	9106      	str	r1, [sp, #24]
   e:	9207      	str	r2, [sp, #28]
/rustc/50a0defd5a93523067ef239936cc2e0755220904/src/libcore/slice/mod.rs:2552
  10:	9807      	ldr	r0, [sp, #28]
  12:	9905      	ldr	r1, [sp, #20]
  14:	9a06      	ldr	r2, [sp, #24]
  16:	9304      	str	r3, [sp, #16]
  18:	f8cd c00c 	str.w	ip, [sp, #12]
  1c:	f8cd e008 	str.w	lr, [sp, #8]
  20:	f7ff fffe 	bl	0 <_ZN101_$LT$core..ops..range..RangeTo$LT$usize$GT$$u20$as$u20$core..slice..SliceIndex$LT$$u5b$T$u5d$$GT$$GT$5index17h028ea9306c0932cdE>
  24:	9001      	str	r0, [sp, #4]
  26:	9100      	str	r1, [sp, #0]
  28:	e7ff      	b.n	2a <_ZN4core5slice74_$LT$impl$u20$core..ops..index..Index$LT$I$GT$$u20$for$u20$$u5b$T$u5d$$GT$5index17h0593a8c433e1e3beE+0x2a>
/rustc/50a0defd5a93523067ef239936cc2e0755220904/src/libcore/slice/mod.rs:2553
  2a:	9801      	ldr	r0, [sp, #4]
  2c:	9900      	ldr	r1, [sp, #0]
  2e:	b008      	add	sp, #32
  30:	bd80      	pop	{r7, pc}

Disassembly of section .text._ZN4core5slice81_$LT$impl$u20$core..cmp..PartialEq$LT$$u5b$B$u5d$$GT$$u20$for$u20$$u5b$A$u5d$$GT$2eq17hc091c42e680bb162E:

00000000 <_ZN4core5slice81_$LT$impl$u20$core..cmp..PartialEq$LT$$u5b$B$u5d$$GT$$u20$for$u20$$u5b$A$u5d$$GT$2eq17hc091c42e680bb162E>:
_ZN4core5slice81_$LT$impl$u20$core..cmp..PartialEq$LT$$u5b$B$u5d$$GT$$u20$for$u20$$u5b$A$u5d$$GT$2eq17hc091c42e680bb162E():
/rustc/50a0defd5a93523067ef239936cc2e0755220904/src/libcore/slice/mod.rs:5182
   0:	b5b0      	push	{r4, r5, r7, lr}
   2:	b08a      	sub	sp, #40	; 0x28
   4:	469c      	mov	ip, r3
   6:	4696      	mov	lr, r2
   8:	460c      	mov	r4, r1
   a:	4605      	mov	r5, r0
   c:	9006      	str	r0, [sp, #24]
   e:	9107      	str	r1, [sp, #28]
  10:	9208      	str	r2, [sp, #32]
  12:	9309      	str	r3, [sp, #36]	; 0x24
/rustc/50a0defd5a93523067ef239936cc2e0755220904/src/libcore/slice/mod.rs:5183
  14:	9806      	ldr	r0, [sp, #24]
  16:	9907      	ldr	r1, [sp, #28]
  18:	9a08      	ldr	r2, [sp, #32]
  1a:	9b09      	ldr	r3, [sp, #36]	; 0x24
  1c:	f8cd c014 	str.w	ip, [sp, #20]
  20:	f8cd e010 	str.w	lr, [sp, #16]
  24:	9403      	str	r4, [sp, #12]
  26:	9502      	str	r5, [sp, #8]
  28:	f7ff fffe 	bl	0 <_ZN4core5slice81_$LT$impl$u20$core..cmp..PartialEq$LT$$u5b$B$u5d$$GT$$u20$for$u20$$u5b$A$u5d$$GT$2eq17hc091c42e680bb162E>
  2c:	9001      	str	r0, [sp, #4]
  2e:	e7ff      	b.n	30 <_ZN4core5slice81_$LT$impl$u20$core..cmp..PartialEq$LT$$u5b$B$u5d$$GT$$u20$for$u20$$u5b$A$u5d$$GT$2eq17hc091c42e680bb162E+0x30>
/rustc/50a0defd5a93523067ef239936cc2e0755220904/src/libcore/slice/mod.rs:5184
  30:	9801      	ldr	r0, [sp, #4]
  32:	f000 0001 	and.w	r0, r0, #1
  36:	b00a      	add	sp, #40	; 0x28
  38:	bdb0      	pop	{r4, r5, r7, pc}

Disassembly of section .text._ZN64_$LT$$u5b$u8$u5d$$u20$as$u20$core..slice..SliceOrd$LT$u8$GT$$GT$7compare17h002a3d6da0d95d1dE:

00000000 <_ZN64_$LT$$u5b$u8$u5d$$u20$as$u20$core..slice..SliceOrd$LT$u8$GT$$GT$7compare17h002a3d6da0d95d1dE>:
_ZN64_$LT$$u5b$u8$u5d$$u20$as$u20$core..slice..SliceOrd$LT$u8$GT$$GT$7compare17h002a3d6da0d95d1dE():
/rustc/50a0defd5a93523067ef239936cc2e0755220904/src/libcore/slice/mod.rs:5324
   0:	b5b0      	push	{r4, r5, r7, lr}
   2:	b092      	sub	sp, #72	; 0x48
   4:	469c      	mov	ip, r3
   6:	4696      	mov	lr, r2
   8:	460c      	mov	r4, r1
   a:	4605      	mov	r5, r0
   c:	900a      	str	r0, [sp, #40]	; 0x28
   e:	910b      	str	r1, [sp, #44]	; 0x2c
  10:	920c      	str	r2, [sp, #48]	; 0x30
  12:	930d      	str	r3, [sp, #52]	; 0x34
/rustc/50a0defd5a93523067ef239936cc2e0755220904/src/libcore/slice/mod.rs:5326
  14:	980a      	ldr	r0, [sp, #40]	; 0x28
  16:	990b      	ldr	r1, [sp, #44]	; 0x2c
  18:	f8cd c024 	str.w	ip, [sp, #36]	; 0x24
  1c:	f8cd e020 	str.w	lr, [sp, #32]
  20:	9407      	str	r4, [sp, #28]
  22:	9506      	str	r5, [sp, #24]
  24:	f7ff fffe 	bl	0 <_ZN4core5slice29_$LT$impl$u20$$u5b$T$u5d$$GT$6as_ptr17hd0263209417be61aE>
  28:	9005      	str	r0, [sp, #20]
  2a:	e7ff      	b.n	2c <_ZN64_$LT$$u5b$u8$u5d$$u20$as$u20$core..slice..SliceOrd$LT$u8$GT$$GT$7compare17h002a3d6da0d95d1dE+0x2c>
  2c:	980c      	ldr	r0, [sp, #48]	; 0x30
  2e:	990d      	ldr	r1, [sp, #52]	; 0x34
  30:	f7ff fffe 	bl	0 <_ZN4core5slice29_$LT$impl$u20$$u5b$T$u5d$$GT$6as_ptr17hd0263209417be61aE>
  34:	9004      	str	r0, [sp, #16]
  36:	e7ff      	b.n	38 <_ZN64_$LT$$u5b$u8$u5d$$u20$as$u20$core..slice..SliceOrd$LT$u8$GT$$GT$7compare17h002a3d6da0d95d1dE+0x38>
/rustc/50a0defd5a93523067ef239936cc2e0755220904/src/libcore/slice/mod.rs:5327
  38:	980a      	ldr	r0, [sp, #40]	; 0x28
  3a:	990b      	ldr	r1, [sp, #44]	; 0x2c
  3c:	f7ff fffe 	bl	0 <_ZN4core5slice29_$LT$impl$u20$$u5b$T$u5d$$GT$3len17h63f985867d9f263fE>
  40:	9003      	str	r0, [sp, #12]
  42:	e7ff      	b.n	44 <_ZN64_$LT$$u5b$u8$u5d$$u20$as$u20$core..slice..SliceOrd$LT$u8$GT$$GT$7compare17h002a3d6da0d95d1dE+0x44>
  44:	980c      	ldr	r0, [sp, #48]	; 0x30
  46:	990d      	ldr	r1, [sp, #52]	; 0x34
  48:	f7ff fffe 	bl	0 <_ZN4core5slice29_$LT$impl$u20$$u5b$T$u5d$$GT$3len17h63f985867d9f263fE>
  4c:	9002      	str	r0, [sp, #8]
  4e:	e7ff      	b.n	50 <_ZN64_$LT$$u5b$u8$u5d$$u20$as$u20$core..slice..SliceOrd$LT$u8$GT$$GT$7compare17h002a3d6da0d95d1dE+0x50>
  50:	9803      	ldr	r0, [sp, #12]
  52:	9902      	ldr	r1, [sp, #8]
  54:	f7ff fffe 	bl	0 <_ZN4core3cmp3min17h092024cef1827f27E>
  58:	9001      	str	r0, [sp, #4]
  5a:	e7ff      	b.n	5c <_ZN64_$LT$$u5b$u8$u5d$$u20$as$u20$core..slice..SliceOrd$LT$u8$GT$$GT$7compare17h002a3d6da0d95d1dE+0x5c>
/rustc/50a0defd5a93523067ef239936cc2e0755220904/src/libcore/slice/mod.rs:5326
  5c:	9805      	ldr	r0, [sp, #20]
  5e:	9904      	ldr	r1, [sp, #16]
  60:	9a01      	ldr	r2, [sp, #4]
  62:	f7ff fffe 	bl	0 <memcmp>
  66:	900f      	str	r0, [sp, #60]	; 0x3c
  68:	e7ff      	b.n	6a <_ZN64_$LT$$u5b$u8$u5d$$u20$as$u20$core..slice..SliceOrd$LT$u8$GT$$GT$7compare17h002a3d6da0d95d1dE+0x6a>
/rustc/50a0defd5a93523067ef239936cc2e0755220904/src/libcore/slice/mod.rs:5329
  6a:	980f      	ldr	r0, [sp, #60]	; 0x3c
  6c:	2800      	cmp	r0, #0
  6e:	d114      	bne.n	9a <_ZN64_$LT$$u5b$u8$u5d$$u20$as$u20$core..slice..SliceOrd$LT$u8$GT$$GT$7compare17h002a3d6da0d95d1dE+0x9a>
  70:	e7ff      	b.n	72 <_ZN64_$LT$$u5b$u8$u5d$$u20$as$u20$core..slice..SliceOrd$LT$u8$GT$$GT$7compare17h002a3d6da0d95d1dE+0x72>
/rustc/50a0defd5a93523067ef239936cc2e0755220904/src/libcore/slice/mod.rs:5330
  72:	980a      	ldr	r0, [sp, #40]	; 0x28
  74:	990b      	ldr	r1, [sp, #44]	; 0x2c
  76:	f7ff fffe 	bl	0 <_ZN4core5slice29_$LT$impl$u20$$u5b$T$u5d$$GT$3len17h63f985867d9f263fE>
  7a:	9010      	str	r0, [sp, #64]	; 0x40
  7c:	e7ff      	b.n	7e <_ZN64_$LT$$u5b$u8$u5d$$u20$as$u20$core..slice..SliceOrd$LT$u8$GT$$GT$7compare17h002a3d6da0d95d1dE+0x7e>
  7e:	980c      	ldr	r0, [sp, #48]	; 0x30
  80:	990d      	ldr	r1, [sp, #52]	; 0x34
  82:	f7ff fffe 	bl	0 <_ZN4core5slice29_$LT$impl$u20$$u5b$T$u5d$$GT$3len17h63f985867d9f263fE>
  86:	9011      	str	r0, [sp, #68]	; 0x44
  88:	e7ff      	b.n	8a <_ZN64_$LT$$u5b$u8$u5d$$u20$as$u20$core..slice..SliceOrd$LT$u8$GT$$GT$7compare17h002a3d6da0d95d1dE+0x8a>
  8a:	a810      	add	r0, sp, #64	; 0x40
  8c:	a911      	add	r1, sp, #68	; 0x44
  8e:	f7ff fffe 	bl	0 <_ZN4core3cmp5impls50_$LT$impl$u20$core..cmp..Ord$u20$for$u20$usize$GT$3cmp17h3e9a54d53fafb581E>
  92:	f88d 003b 	strb.w	r0, [sp, #59]	; 0x3b
  96:	e7ff      	b.n	98 <_ZN64_$LT$$u5b$u8$u5d$$u20$as$u20$core..slice..SliceOrd$LT$u8$GT$$GT$7compare17h002a3d6da0d95d1dE+0x98>
/rustc/50a0defd5a93523067ef239936cc2e0755220904/src/libcore/slice/mod.rs:5329
  98:	e00d      	b.n	b6 <_ZN64_$LT$$u5b$u8$u5d$$u20$as$u20$core..slice..SliceOrd$LT$u8$GT$$GT$7compare17h002a3d6da0d95d1dE+0xb6>
/rustc/50a0defd5a93523067ef239936cc2e0755220904/src/libcore/slice/mod.rs:5331
  9a:	980f      	ldr	r0, [sp, #60]	; 0x3c
  9c:	f1b0 3fff 	cmp.w	r0, #4294967295	; 0xffffffff
  a0:	dc04      	bgt.n	ac <_ZN64_$LT$$u5b$u8$u5d$$u20$as$u20$core..slice..SliceOrd$LT$u8$GT$$GT$7compare17h002a3d6da0d95d1dE+0xac>
  a2:	e7ff      	b.n	a4 <_ZN64_$LT$$u5b$u8$u5d$$u20$as$u20$core..slice..SliceOrd$LT$u8$GT$$GT$7compare17h002a3d6da0d95d1dE+0xa4>
  a4:	20ff      	movs	r0, #255	; 0xff
/rustc/50a0defd5a93523067ef239936cc2e0755220904/src/libcore/slice/mod.rs:5332
  a6:	f88d 003b 	strb.w	r0, [sp, #59]	; 0x3b
/rustc/50a0defd5a93523067ef239936cc2e0755220904/src/libcore/slice/mod.rs:5331
  aa:	e003      	b.n	b4 <_ZN64_$LT$$u5b$u8$u5d$$u20$as$u20$core..slice..SliceOrd$LT$u8$GT$$GT$7compare17h002a3d6da0d95d1dE+0xb4>
  ac:	2001      	movs	r0, #1
/rustc/50a0defd5a93523067ef239936cc2e0755220904/src/libcore/slice/mod.rs:5334
  ae:	f88d 003b 	strb.w	r0, [sp, #59]	; 0x3b
/rustc/50a0defd5a93523067ef239936cc2e0755220904/src/libcore/slice/mod.rs:5331
  b2:	e7ff      	b.n	b4 <_ZN64_$LT$$u5b$u8$u5d$$u20$as$u20$core..slice..SliceOrd$LT$u8$GT$$GT$7compare17h002a3d6da0d95d1dE+0xb4>
/rustc/50a0defd5a93523067ef239936cc2e0755220904/src/libcore/slice/mod.rs:5329
  b4:	e7ff      	b.n	b6 <_ZN64_$LT$$u5b$u8$u5d$$u20$as$u20$core..slice..SliceOrd$LT$u8$GT$$GT$7compare17h002a3d6da0d95d1dE+0xb6>
/rustc/50a0defd5a93523067ef239936cc2e0755220904/src/libcore/slice/mod.rs:5336
  b6:	f89d 003b 	ldrb.w	r0, [sp, #59]	; 0x3b
  ba:	b012      	add	sp, #72	; 0x48
  bc:	bdb0      	pop	{r4, r5, r7, pc}

Disassembly of section .text._ZN68_$LT$$u5b$A$u5d$$u20$as$u20$core..slice..SlicePartialEq$LT$A$GT$$GT$5equal17h9cb35bf49025d983E:

00000000 <_ZN68_$LT$$u5b$A$u5d$$u20$as$u20$core..slice..SlicePartialEq$LT$A$GT$$GT$5equal17h9cb35bf49025d983E>:
_ZN68_$LT$$u5b$A$u5d$$u20$as$u20$core..slice..SlicePartialEq$LT$A$GT$$GT$5equal17h9cb35bf49025d983E():
/rustc/50a0defd5a93523067ef239936cc2e0755220904/src/libcore/slice/mod.rs:5241
   0:	b5b0      	push	{r4, r5, r7, lr}
   2:	b092      	sub	sp, #72	; 0x48
   4:	469c      	mov	ip, r3
   6:	4696      	mov	lr, r2
   8:	460c      	mov	r4, r1
   a:	4605      	mov	r5, r0
   c:	900c      	str	r0, [sp, #48]	; 0x30
   e:	910d      	str	r1, [sp, #52]	; 0x34
  10:	920e      	str	r2, [sp, #56]	; 0x38
  12:	930f      	str	r3, [sp, #60]	; 0x3c
/rustc/50a0defd5a93523067ef239936cc2e0755220904/src/libcore/slice/mod.rs:5242
  14:	980c      	ldr	r0, [sp, #48]	; 0x30
  16:	990d      	ldr	r1, [sp, #52]	; 0x34
  18:	f8cd c02c 	str.w	ip, [sp, #44]	; 0x2c
  1c:	f8cd e028 	str.w	lr, [sp, #40]	; 0x28
  20:	9409      	str	r4, [sp, #36]	; 0x24
  22:	9508      	str	r5, [sp, #32]
  24:	f7ff fffe 	bl	0 <_ZN4core5slice29_$LT$impl$u20$$u5b$T$u5d$$GT$3len17h63f985867d9f263fE>
  28:	9007      	str	r0, [sp, #28]
  2a:	e7ff      	b.n	2c <_ZN68_$LT$$u5b$A$u5d$$u20$as$u20$core..slice..SlicePartialEq$LT$A$GT$$GT$5equal17h9cb35bf49025d983E+0x2c>
  2c:	980e      	ldr	r0, [sp, #56]	; 0x38
  2e:	990f      	ldr	r1, [sp, #60]	; 0x3c
  30:	f7ff fffe 	bl	0 <_ZN4core5slice29_$LT$impl$u20$$u5b$T$u5d$$GT$3len17h63f985867d9f263fE>
  34:	9006      	str	r0, [sp, #24]
  36:	e7ff      	b.n	38 <_ZN68_$LT$$u5b$A$u5d$$u20$as$u20$core..slice..SlicePartialEq$LT$A$GT$$GT$5equal17h9cb35bf49025d983E+0x38>
  38:	9807      	ldr	r0, [sp, #28]
  3a:	9906      	ldr	r1, [sp, #24]
  3c:	4288      	cmp	r0, r1
  3e:	d008      	beq.n	52 <_ZN68_$LT$$u5b$A$u5d$$u20$as$u20$core..slice..SlicePartialEq$LT$A$GT$$GT$5equal17h9cb35bf49025d983E+0x52>
  40:	e7ff      	b.n	42 <_ZN68_$LT$$u5b$A$u5d$$u20$as$u20$core..slice..SlicePartialEq$LT$A$GT$$GT$5equal17h9cb35bf49025d983E+0x42>
  42:	2000      	movs	r0, #0
/rustc/50a0defd5a93523067ef239936cc2e0755220904/src/libcore/slice/mod.rs:5243
  44:	f88d 0043 	strb.w	r0, [sp, #67]	; 0x43
  48:	e7ff      	b.n	4a <_ZN68_$LT$$u5b$A$u5d$$u20$as$u20$core..slice..SlicePartialEq$LT$A$GT$$GT$5equal17h9cb35bf49025d983E+0x4a>
/rustc/50a0defd5a93523067ef239936cc2e0755220904/src/libcore/slice/mod.rs:5253
  4a:	f89d 0043 	ldrb.w	r0, [sp, #67]	; 0x43
  4e:	b012      	add	sp, #72	; 0x48
  50:	bdb0      	pop	{r4, r5, r7, pc}
/rustc/50a0defd5a93523067ef239936cc2e0755220904/src/libcore/slice/mod.rs:5245
  52:	980c      	ldr	r0, [sp, #48]	; 0x30
  54:	990d      	ldr	r1, [sp, #52]	; 0x34
  56:	f7ff fffe 	bl	0 <_ZN4core5slice29_$LT$impl$u20$$u5b$T$u5d$$GT$6as_ptr17hd0263209417be61aE>
  5a:	9005      	str	r0, [sp, #20]
  5c:	e7ff      	b.n	5e <_ZN68_$LT$$u5b$A$u5d$$u20$as$u20$core..slice..SlicePartialEq$LT$A$GT$$GT$5equal17h9cb35bf49025d983E+0x5e>
  5e:	980e      	ldr	r0, [sp, #56]	; 0x38
  60:	990f      	ldr	r1, [sp, #60]	; 0x3c
  62:	f7ff fffe 	bl	0 <_ZN4core5slice29_$LT$impl$u20$$u5b$T$u5d$$GT$6as_ptr17hd0263209417be61aE>
  66:	9004      	str	r0, [sp, #16]
  68:	e7ff      	b.n	6a <_ZN68_$LT$$u5b$A$u5d$$u20$as$u20$core..slice..SlicePartialEq$LT$A$GT$$GT$5equal17h9cb35bf49025d983E+0x6a>
  6a:	9805      	ldr	r0, [sp, #20]
  6c:	9904      	ldr	r1, [sp, #16]
  6e:	4288      	cmp	r0, r1
  70:	d104      	bne.n	7c <_ZN68_$LT$$u5b$A$u5d$$u20$as$u20$core..slice..SlicePartialEq$LT$A$GT$$GT$5equal17h9cb35bf49025d983E+0x7c>
  72:	e7ff      	b.n	74 <_ZN68_$LT$$u5b$A$u5d$$u20$as$u20$core..slice..SlicePartialEq$LT$A$GT$$GT$5equal17h9cb35bf49025d983E+0x74>
  74:	2001      	movs	r0, #1
/rustc/50a0defd5a93523067ef239936cc2e0755220904/src/libcore/slice/mod.rs:5246
  76:	f88d 0043 	strb.w	r0, [sp, #67]	; 0x43
  7a:	e7e6      	b.n	4a <_ZN68_$LT$$u5b$A$u5d$$u20$as$u20$core..slice..SlicePartialEq$LT$A$GT$$GT$5equal17h9cb35bf49025d983E+0x4a>
/rustc/50a0defd5a93523067ef239936cc2e0755220904/src/libcore/slice/mod.rs:5249
  7c:	980c      	ldr	r0, [sp, #48]	; 0x30
  7e:	990d      	ldr	r1, [sp, #52]	; 0x34
  80:	f7ff fffe 	bl	0 <_ZN4core3mem11size_of_val17h6de3211d084661dfE>
  84:	9011      	str	r0, [sp, #68]	; 0x44
  86:	e7ff      	b.n	88 <_ZN68_$LT$$u5b$A$u5d$$u20$as$u20$core..slice..SlicePartialEq$LT$A$GT$$GT$5equal17h9cb35bf49025d983E+0x88>
/rustc/50a0defd5a93523067ef239936cc2e0755220904/src/libcore/slice/mod.rs:5250
  88:	980c      	ldr	r0, [sp, #48]	; 0x30
  8a:	990d      	ldr	r1, [sp, #52]	; 0x34
  8c:	f7ff fffe 	bl	0 <_ZN4core5slice29_$LT$impl$u20$$u5b$T$u5d$$GT$6as_ptr17hd0263209417be61aE>
  90:	9003      	str	r0, [sp, #12]
  92:	e7ff      	b.n	94 <_ZN68_$LT$$u5b$A$u5d$$u20$as$u20$core..slice..SlicePartialEq$LT$A$GT$$GT$5equal17h9cb35bf49025d983E+0x94>
/rustc/50a0defd5a93523067ef239936cc2e0755220904/src/libcore/slice/mod.rs:5251
  94:	980e      	ldr	r0, [sp, #56]	; 0x38
  96:	990f      	ldr	r1, [sp, #60]	; 0x3c
  98:	f7ff fffe 	bl	0 <_ZN4core5slice29_$LT$impl$u20$$u5b$T$u5d$$GT$6as_ptr17hd0263209417be61aE>
  9c:	9002      	str	r0, [sp, #8]
  9e:	e7ff      	b.n	a0 <_ZN68_$LT$$u5b$A$u5d$$u20$as$u20$core..slice..SlicePartialEq$LT$A$GT$$GT$5equal17h9cb35bf49025d983E+0xa0>
  a0:	9a11      	ldr	r2, [sp, #68]	; 0x44
/rustc/50a0defd5a93523067ef239936cc2e0755220904/src/libcore/slice/mod.rs:5250
  a2:	9803      	ldr	r0, [sp, #12]
  a4:	9902      	ldr	r1, [sp, #8]
  a6:	f7ff fffe 	bl	0 <memcmp>
  aa:	9001      	str	r0, [sp, #4]
  ac:	e7ff      	b.n	ae <_ZN68_$LT$$u5b$A$u5d$$u20$as$u20$core..slice..SlicePartialEq$LT$A$GT$$GT$5equal17h9cb35bf49025d983E+0xae>
  ae:	9801      	ldr	r0, [sp, #4]
  b0:	fab0 f180 	clz	r1, r0
  b4:	0949      	lsrs	r1, r1, #5
  b6:	f88d 1043 	strb.w	r1, [sp, #67]	; 0x43
/rustc/50a0defd5a93523067ef239936cc2e0755220904/src/libcore/slice/mod.rs:5253
  ba:	e7c6      	b.n	4a <_ZN68_$LT$$u5b$A$u5d$$u20$as$u20$core..slice..SlicePartialEq$LT$A$GT$$GT$5equal17h9cb35bf49025d983E+0x4a>

Disassembly of section .text._ZN69_$LT$$u5b$A$u5d$$u20$as$u20$core..slice..SlicePartialOrd$LT$A$GT$$GT$15partial_compare17h712ebe8c555960f6E:

00000000 <_ZN69_$LT$$u5b$A$u5d$$u20$as$u20$core..slice..SlicePartialOrd$LT$A$GT$$GT$15partial_compare17h712ebe8c555960f6E>:
_ZN69_$LT$$u5b$A$u5d$$u20$as$u20$core..slice..SlicePartialOrd$LT$A$GT$$GT$15partial_compare17h712ebe8c555960f6E():
/rustc/50a0defd5a93523067ef239936cc2e0755220904/src/libcore/slice/mod.rs:5287
   0:	b5b0      	push	{r4, r5, r7, lr}
   2:	b08a      	sub	sp, #40	; 0x28
   4:	469c      	mov	ip, r3
   6:	4696      	mov	lr, r2
   8:	460c      	mov	r4, r1
   a:	4605      	mov	r5, r0
   c:	9005      	str	r0, [sp, #20]
   e:	9106      	str	r1, [sp, #24]
  10:	9207      	str	r2, [sp, #28]
  12:	9308      	str	r3, [sp, #32]
/rustc/50a0defd5a93523067ef239936cc2e0755220904/src/libcore/slice/mod.rs:5288
  14:	9805      	ldr	r0, [sp, #20]
  16:	9906      	ldr	r1, [sp, #24]
  18:	9a07      	ldr	r2, [sp, #28]
  1a:	9b08      	ldr	r3, [sp, #32]
  1c:	f8cd c010 	str.w	ip, [sp, #16]
  20:	f8cd e00c 	str.w	lr, [sp, #12]
  24:	9402      	str	r4, [sp, #8]
  26:	9501      	str	r5, [sp, #4]
  28:	f7ff fffe 	bl	0 <_ZN69_$LT$$u5b$A$u5d$$u20$as$u20$core..slice..SlicePartialOrd$LT$A$GT$$GT$15partial_compare17h712ebe8c555960f6E>
  2c:	9000      	str	r0, [sp, #0]
  2e:	e7ff      	b.n	30 <_ZN69_$LT$$u5b$A$u5d$$u20$as$u20$core..slice..SlicePartialOrd$LT$A$GT$$GT$15partial_compare17h712ebe8c555960f6E+0x30>
  30:	9800      	ldr	r0, [sp, #0]
  32:	f88d 0027 	strb.w	r0, [sp, #39]	; 0x27
/rustc/50a0defd5a93523067ef239936cc2e0755220904/src/libcore/slice/mod.rs:5289
  36:	f89d 0027 	ldrb.w	r0, [sp, #39]	; 0x27
  3a:	b00a      	add	sp, #40	; 0x28
  3c:	bdb0      	pop	{r4, r5, r7, pc}

Disassembly of section .text._ZN85_$LT$core..slice..Iter$LT$T$GT$$u20$as$u20$core..iter..traits..iterator..Iterator$GT$4next17h6227c951e142856aE:

00000000 <_ZN85_$LT$core..slice..Iter$LT$T$GT$$u20$as$u20$core..iter..traits..iterator..Iterator$GT$4next17h6227c951e142856aE>:
_ZN85_$LT$core..slice..Iter$LT$T$GT$$u20$as$u20$core..iter..traits..iterator..Iterator$GT$4next17h6227c951e142856aE():
/rustc/50a0defd5a93523067ef239936cc2e0755220904/src/libcore/slice/mod.rs:3079
   0:	b580      	push	{r7, lr}
   2:	b08c      	sub	sp, #48	; 0x30
   4:	4601      	mov	r1, r0
   6:	9006      	str	r0, [sp, #24]
/rustc/50a0defd5a93523067ef239936cc2e0755220904/src/libcore/slice/mod.rs:3082
   8:	9806      	ldr	r0, [sp, #24]
   a:	6800      	ldr	r0, [r0, #0]
   c:	9105      	str	r1, [sp, #20]
   e:	f7ff fffe 	bl	0 <_ZN4core3ptr33_$LT$impl$u20$$BP$const$u20$T$GT$7is_null17h5dfc35f677b1147aE>
  12:	9004      	str	r0, [sp, #16]
  14:	e7ff      	b.n	16 <_ZN85_$LT$core..slice..Iter$LT$T$GT$$u20$as$u20$core..iter..traits..iterator..Iterator$GT$4next17h6227c951e142856aE+0x16>
  16:	e7ff      	b.n	18 <_ZN85_$LT$core..slice..Iter$LT$T$GT$$u20$as$u20$core..iter..traits..iterator..Iterator$GT$4next17h6227c951e142856aE+0x18>
/rustc/50a0defd5a93523067ef239936cc2e0755220904/src/libcore/slice/mod.rs:3083
  18:	f7ff fffe 	bl	0 <_ZN4core3mem7size_of17h96e196a831b2ee50E>
  1c:	9003      	str	r0, [sp, #12]
  1e:	e7ff      	b.n	20 <_ZN85_$LT$core..slice..Iter$LT$T$GT$$u20$as$u20$core..iter..traits..iterator..Iterator$GT$4next17h6227c951e142856aE+0x20>
  20:	9803      	ldr	r0, [sp, #12]
  22:	2800      	cmp	r0, #0
  24:	d008      	beq.n	38 <_ZN85_$LT$core..slice..Iter$LT$T$GT$$u20$as$u20$core..iter..traits..iterator..Iterator$GT$4next17h6227c951e142856aE+0x38>
  26:	e7ff      	b.n	28 <_ZN85_$LT$core..slice..Iter$LT$T$GT$$u20$as$u20$core..iter..traits..iterator..Iterator$GT$4next17h6227c951e142856aE+0x28>
/rustc/50a0defd5a93523067ef239936cc2e0755220904/src/libcore/slice/mod.rs:3084
  28:	9806      	ldr	r0, [sp, #24]
  2a:	6840      	ldr	r0, [r0, #4]
  2c:	f7ff fffe 	bl	0 <_ZN4core3ptr33_$LT$impl$u20$$BP$const$u20$T$GT$7is_null17h5dfc35f677b1147aE>
  30:	9002      	str	r0, [sp, #8]
  32:	e7ff      	b.n	34 <_ZN85_$LT$core..slice..Iter$LT$T$GT$$u20$as$u20$core..iter..traits..iterator..Iterator$GT$4next17h6227c951e142856aE+0x34>
  34:	e7ff      	b.n	36 <_ZN85_$LT$core..slice..Iter$LT$T$GT$$u20$as$u20$core..iter..traits..iterator..Iterator$GT$4next17h6227c951e142856aE+0x36>
/rustc/50a0defd5a93523067ef239936cc2e0755220904/src/libcore/slice/mod.rs:3083
  36:	e7ff      	b.n	38 <_ZN85_$LT$core..slice..Iter$LT$T$GT$$u20$as$u20$core..iter..traits..iterator..Iterator$GT$4next17h6227c951e142856aE+0x38>
/rustc/50a0defd5a93523067ef239936cc2e0755220904/src/libcore/slice/mod.rs:2996
  38:	9806      	ldr	r0, [sp, #24]
  3a:	6801      	ldr	r1, [r0, #0]
  3c:	6840      	ldr	r0, [r0, #4]
/rustc/50a0defd5a93523067ef239936cc2e0755220904/src/libcore/slice/mod.rs:3086
  3e:	4281      	cmp	r1, r0
  40:	d103      	bne.n	4a <_ZN85_$LT$core..slice..Iter$LT$T$GT$$u20$as$u20$core..iter..traits..iterator..Iterator$GT$4next17h6227c951e142856aE+0x4a>
  42:	e7ff      	b.n	44 <_ZN85_$LT$core..slice..Iter$LT$T$GT$$u20$as$u20$core..iter..traits..iterator..Iterator$GT$4next17h6227c951e142856aE+0x44>
  44:	2000      	movs	r0, #0
/rustc/50a0defd5a93523067ef239936cc2e0755220904/src/libcore/slice/mod.rs:3087
  46:	9007      	str	r0, [sp, #28]
/rustc/50a0defd5a93523067ef239936cc2e0755220904/src/libcore/slice/mod.rs:3086
  48:	e027      	b.n	9a <_ZN85_$LT$core..slice..Iter$LT$T$GT$$u20$as$u20$core..iter..traits..iterator..Iterator$GT$4next17h6227c951e142856aE+0x9a>
/rustc/50a0defd5a93523067ef239936cc2e0755220904/src/libcore/slice/mod.rs:3089
  4a:	9806      	ldr	r0, [sp, #24]
  4c:	9008      	str	r0, [sp, #32]
  4e:	2001      	movs	r0, #1
  50:	9009      	str	r0, [sp, #36]	; 0x24
_ZN4core5slice13Iter$LT$T$GT$14post_inc_start17hbfaa44db4c9c184fE():
/rustc/50a0defd5a93523067ef239936cc2e0755220904/src/libcore/slice/mod.rs:3035
  52:	f7ff fffe 	bl	0 <_ZN4core3mem7size_of17h96e196a831b2ee50E>
  56:	2800      	cmp	r0, #0
  58:	d10c      	bne.n	74 <_ZN85_$LT$core..slice..Iter$LT$T$GT$$u20$as$u20$core..iter..traits..iterator..Iterator$GT$4next17h6227c951e142856aE+0x74>
  5a:	e7ff      	b.n	5c <_ZN85_$LT$core..slice..Iter$LT$T$GT$$u20$as$u20$core..iter..traits..iterator..Iterator$GT$4next17h6227c951e142856aE+0x5c>
/rustc/50a0defd5a93523067ef239936cc2e0755220904/src/libcore/slice/mod.rs:3037
  5c:	9808      	ldr	r0, [sp, #32]
  5e:	6840      	ldr	r0, [r0, #4]
  60:	9909      	ldr	r1, [sp, #36]	; 0x24
  62:	4249      	negs	r1, r1
  64:	f7ff fffe 	bl	0 <_ZN4core3ptr33_$LT$impl$u20$$BP$const$u20$T$GT$15wrapping_offset17hd71f8a6979fbad80E>
  68:	9908      	ldr	r1, [sp, #32]
  6a:	6048      	str	r0, [r1, #4]
/rustc/50a0defd5a93523067ef239936cc2e0755220904/src/libcore/slice/mod.rs:3038
  6c:	9808      	ldr	r0, [sp, #32]
  6e:	6800      	ldr	r0, [r0, #0]
  70:	900a      	str	r0, [sp, #40]	; 0x28
/rustc/50a0defd5a93523067ef239936cc2e0755220904/src/libcore/slice/mod.rs:3035
  72:	e00c      	b.n	8e <_ZN85_$LT$core..slice..Iter$LT$T$GT$$u20$as$u20$core..iter..traits..iterator..Iterator$GT$4next17h6227c951e142856aE+0x8e>
/rustc/50a0defd5a93523067ef239936cc2e0755220904/src/libcore/slice/mod.rs:3040
  74:	9808      	ldr	r0, [sp, #32]
  76:	6800      	ldr	r0, [r0, #0]
  78:	900b      	str	r0, [sp, #44]	; 0x2c
/rustc/50a0defd5a93523067ef239936cc2e0755220904/src/libcore/slice/mod.rs:3041
  7a:	9808      	ldr	r0, [sp, #32]
  7c:	6800      	ldr	r0, [r0, #0]
  7e:	9909      	ldr	r1, [sp, #36]	; 0x24
  80:	f7ff fffe 	bl	0 <_ZN4core3ptr33_$LT$impl$u20$$BP$const$u20$T$GT$6offset17h1b1bd4fc0c06f6a7E>
  84:	9908      	ldr	r1, [sp, #32]
  86:	6008      	str	r0, [r1, #0]
/rustc/50a0defd5a93523067ef239936cc2e0755220904/src/libcore/slice/mod.rs:3042
  88:	980b      	ldr	r0, [sp, #44]	; 0x2c
  8a:	900a      	str	r0, [sp, #40]	; 0x28
/rustc/50a0defd5a93523067ef239936cc2e0755220904/src/libcore/slice/mod.rs:3035
  8c:	e7ff      	b.n	8e <_ZN85_$LT$core..slice..Iter$LT$T$GT$$u20$as$u20$core..iter..traits..iterator..Iterator$GT$4next17h6227c951e142856aE+0x8e>
/rustc/50a0defd5a93523067ef239936cc2e0755220904/src/libcore/slice/mod.rs:3044
  8e:	980a      	ldr	r0, [sp, #40]	; 0x28
_ZN85_$LT$core..slice..Iter$LT$T$GT$$u20$as$u20$core..iter..traits..iterator..Iterator$GT$4next17h6227c951e142856aE():
/rustc/50a0defd5a93523067ef239936cc2e0755220904/src/libcore/slice/mod.rs:3089
  90:	9001      	str	r0, [sp, #4]
  92:	e7ff      	b.n	94 <_ZN85_$LT$core..slice..Iter$LT$T$GT$$u20$as$u20$core..iter..traits..iterator..Iterator$GT$4next17h6227c951e142856aE+0x94>
  94:	9801      	ldr	r0, [sp, #4]
  96:	9007      	str	r0, [sp, #28]
/rustc/50a0defd5a93523067ef239936cc2e0755220904/src/libcore/slice/mod.rs:3086
  98:	e7ff      	b.n	9a <_ZN85_$LT$core..slice..Iter$LT$T$GT$$u20$as$u20$core..iter..traits..iterator..Iterator$GT$4next17h6227c951e142856aE+0x9a>
/rustc/50a0defd5a93523067ef239936cc2e0755220904/src/libcore/slice/mod.rs:3092
  9a:	9807      	ldr	r0, [sp, #28]
  9c:	b00c      	add	sp, #48	; 0x30
  9e:	bd80      	pop	{r7, pc}

cstr_core-002f35632daba805.cstr_core.4br1pvmw-cgu.3.rcgu.o:     file format elf32-littlearm

SYMBOL TABLE:
00000000 l    df *ABS*	00000000 cstr_core.4br1pvmw-cgu.3
00000334 l       .debug_str	00000000 
00000154 l       .debug_str	00000000 
00000161 l       .debug_str	00000000 
00000166 l       .debug_str	00000000 
00000169 l       .debug_str	00000000 
0000017d l       .debug_str	00000000 
0000018b l       .debug_str	00000000 
0000018d l       .debug_str	00000000 
000001f0 l       .debug_str	00000000 
0000021b l       .debug_str	00000000 
00000253 l       .debug_str	00000000 
00000292 l       .debug_str	00000000 
00000299 l       .debug_str	00000000 
00000312 l       .debug_str	00000000 
00000319 l       .debug_str	00000000 
0000031e l       .debug_str	00000000 
00000320 l       .debug_str	00000000 
00000325 l       .debug_str	00000000 
00000329 l       .debug_str	00000000 
000003cb l       .debug_str	00000000 
000003d7 l       .debug_str	00000000 
00000455 l       .debug_str	00000000 
0000045f l       .debug_str	00000000 
00000463 l       .debug_str	00000000 
00000467 l       .debug_str	00000000 
00000475 l       .debug_str	00000000 
0000049a l       .debug_str	00000000 
00000528 l       .debug_str	00000000 
000005d4 l       .debug_str	00000000 
000005d9 l       .debug_str	00000000 
000005db l       .debug_str	00000000 
000005df l       .debug_str	00000000 
000005e1 l       .debug_str	00000000 
00000606 l       .debug_str	00000000 
00000608 l       .debug_str	00000000 
00000000 l       .debug_str	00000000 
00000041 l       .debug_str	00000000 
00000099 l       .debug_str	00000000 
000000e6 l       .debug_str	00000000 
000000eb l       .debug_str	00000000 
000000f0 l       .debug_str	00000000 
000000f7 l       .debug_str	00000000 
000000ff l       .debug_str	00000000 
00000108 l       .debug_str	00000000 
00000112 l       .debug_str	00000000 
00000118 l       .debug_str	00000000 
00000127 l       .debug_str	00000000 
0000012c l       .debug_str	00000000 
00000136 l       .debug_str	00000000 
0000013c l       .debug_str	00000000 
00000140 l       .debug_str	00000000 
00000146 l       .debug_str	00000000 
0000014c l       .debug_str	00000000 
00000150 l       .debug_str	00000000 
00000000 l     O .rodata..Lanon.9facded9e90a132967a5d947b8009fe8.0	00000018 .Lanon.9facded9e90a132967a5d947b8009fe8.0
00000000 l     O .rodata..Lanon.9facded9e90a132967a5d947b8009fe8.1	00000018 .Lanon.9facded9e90a132967a5d947b8009fe8.1
00000000 l     O .rodata..Lanon.9facded9e90a132967a5d947b8009fe8.2	00000018 .Lanon.9facded9e90a132967a5d947b8009fe8.2
00000000 l     O .rodata..Lanon.9facded9e90a132967a5d947b8009fe8.3	00000010 .Lanon.9facded9e90a132967a5d947b8009fe8.3
00000000 l     O .rodata..Lanon.9facded9e90a132967a5d947b8009fe8.4	00000010 .Lanon.9facded9e90a132967a5d947b8009fe8.4
00000000 l     F .text._ZN9cstr_core5ascii14escape_default6hexify17hf85dc98b650dfdc6E	00000094 _ZN9cstr_core5ascii14escape_default6hexify17hf85dc98b650dfdc6E
00000000 l     O .rodata.str.0	00000057 str.0
00000000 l     O .rodata.str.1	0000001c str.1
00000000 l     O .rodata.str.2	00000021 str.2
00000000 l    d  .text._ZN63_$LT$I$u20$as$u20$core..iter..traits..collect..IntoIterator$GT$9into_iter17ha978ccb939c3fb05E	00000000 .text._ZN63_$LT$I$u20$as$u20$core..iter..traits..collect..IntoIterator$GT$9into_iter17ha978ccb939c3fb05E
00000000 l    d  .text._ZN9cstr_core5ascii14escape_default17h7cca55a9ec844d59E	00000000 .text._ZN9cstr_core5ascii14escape_default17h7cca55a9ec844d59E
00000000 l    d  .text._ZN9cstr_core5ascii14escape_default6hexify17hf85dc98b650dfdc6E	00000000 .text._ZN9cstr_core5ascii14escape_default6hexify17hf85dc98b650dfdc6E
00000000 l    d  .text._ZN90_$LT$cstr_core..ascii..EscapeDefault$u20$as$u20$core..iter..traits..iterator..Iterator$GT$4next17hd18c9becef56bae4E	00000000 .text._ZN90_$LT$cstr_core..ascii..EscapeDefault$u20$as$u20$core..iter..traits..iterator..Iterator$GT$4next17hd18c9becef56bae4E
00000000 l    d  .text._ZN90_$LT$cstr_core..ascii..EscapeDefault$u20$as$u20$core..iter..traits..iterator..Iterator$GT$4next28_$u7b$$u7b$closure$u7d$$u7d$17hf50764ce899271bcE	00000000 .text._ZN90_$LT$cstr_core..ascii..EscapeDefault$u20$as$u20$core..iter..traits..iterator..Iterator$GT$4next28_$u7b$$u7b$closure$u7d$$u7d$17hf50764ce899271bcE
00000000 l    d  .text._ZN90_$LT$cstr_core..ascii..EscapeDefault$u20$as$u20$core..iter..traits..iterator..Iterator$GT$9size_hint17h152402e0f145f25eE	00000000 .text._ZN90_$LT$cstr_core..ascii..EscapeDefault$u20$as$u20$core..iter..traits..iterator..Iterator$GT$9size_hint17h152402e0f145f25eE
00000000 l    d  .text._ZN105_$LT$cstr_core..ascii..EscapeDefault$u20$as$u20$core..iter..traits..double_ended..DoubleEndedIterator$GT$9next_back17h300563ef55eed104E	00000000 .text._ZN105_$LT$cstr_core..ascii..EscapeDefault$u20$as$u20$core..iter..traits..double_ended..DoubleEndedIterator$GT$9next_back17h300563ef55eed104E
00000000 l    d  .text._ZN105_$LT$cstr_core..ascii..EscapeDefault$u20$as$u20$core..iter..traits..double_ended..DoubleEndedIterator$GT$9next_back28_$u7b$$u7b$closure$u7d$$u7d$17habce585e0340c994E	00000000 .text._ZN105_$LT$cstr_core..ascii..EscapeDefault$u20$as$u20$core..iter..traits..double_ended..DoubleEndedIterator$GT$9next_back28_$u7b$$u7b$closure$u7d$$u7d$17habce585e0340c994E
00000000 l    d  .rodata.str.0	00000000 .rodata.str.0
00000000 l    d  .rodata.str.1	00000000 .rodata.str.1
00000000 l    d  .rodata.str.2	00000000 .rodata.str.2
00000000 l    d  .debug_loc	00000000 .debug_loc
00000000 l    d  .debug_abbrev	00000000 .debug_abbrev
00000000 l    d  .debug_info	00000000 .debug_info
00000000 l    d  .debug_ranges	00000000 .debug_ranges
00000000 l    d  .debug_frame	00000000 .debug_frame
00000000 l    d  .debug_line	00000000 .debug_line
00000000 g     F .text._ZN105_$LT$cstr_core..ascii..EscapeDefault$u20$as$u20$core..iter..traits..double_ended..DoubleEndedIterator$GT$9next_back17h300563ef55eed104E	00000036 _ZN105_$LT$cstr_core..ascii..EscapeDefault$u20$as$u20$core..iter..traits..double_ended..DoubleEndedIterator$GT$9next_back17h300563ef55eed104E
00000000 g     F .text._ZN105_$LT$cstr_core..ascii..EscapeDefault$u20$as$u20$core..iter..traits..double_ended..DoubleEndedIterator$GT$9next_back28_$u7b$$u7b$closure$u7d$$u7d$17habce585e0340c994E	00000038 .hidden _ZN105_$LT$cstr_core..ascii..EscapeDefault$u20$as$u20$core..iter..traits..double_ended..DoubleEndedIterator$GT$9next_back28_$u7b$$u7b$closure$u7d$$u7d$17habce585e0340c994E
00000000         *UND*	00000000 _ZN4core4iter5range101_$LT$impl$u20$core..iter..traits..iterator..Iterator$u20$for$u20$core..ops..range..Range$LT$A$GT$$GT$4next17hf290b57c570fbe7bE
00000000         *UND*	00000000 _ZN4core4iter5range101_$LT$impl$u20$core..iter..traits..iterator..Iterator$u20$for$u20$core..ops..range..Range$LT$A$GT$$GT$9size_hint17h71914ad02175f177E
00000000         *UND*	00000000 _ZN4core4iter5range116_$LT$impl$u20$core..iter..traits..double_ended..DoubleEndedIterator$u20$for$u20$core..ops..range..Range$LT$A$GT$$GT$9next_back17h52d12f9f58f27a16E
00000000         *UND*	00000000 _ZN4core6option15Option$LT$T$GT$3map17h4390466c48d6242cE
00000000         *UND*	00000000 _ZN4core6option15Option$LT$T$GT$3map17h8d57e8c246eab5e8E
00000000         *UND*	00000000 _ZN4core9panicking18panic_bounds_check17h946762cd0671aec9E
00000000         *UND*	00000000 _ZN4core9panicking5panic17h53ca63c6ac6312f8E
00000000 g     F .text._ZN63_$LT$I$u20$as$u20$core..iter..traits..collect..IntoIterator$GT$9into_iter17ha978ccb939c3fb05E	00000024 _ZN63_$LT$I$u20$as$u20$core..iter..traits..collect..IntoIterator$GT$9into_iter17ha978ccb939c3fb05E
00000000 g     F .text._ZN90_$LT$cstr_core..ascii..EscapeDefault$u20$as$u20$core..iter..traits..iterator..Iterator$GT$4next17hd18c9becef56bae4E	00000036 _ZN90_$LT$cstr_core..ascii..EscapeDefault$u20$as$u20$core..iter..traits..iterator..Iterator$GT$4next17hd18c9becef56bae4E
00000000 g     F .text._ZN90_$LT$cstr_core..ascii..EscapeDefault$u20$as$u20$core..iter..traits..iterator..Iterator$GT$4next28_$u7b$$u7b$closure$u7d$$u7d$17hf50764ce899271bcE	00000038 .hidden _ZN90_$LT$cstr_core..ascii..EscapeDefault$u20$as$u20$core..iter..traits..iterator..Iterator$GT$4next28_$u7b$$u7b$closure$u7d$$u7d$17hf50764ce899271bcE
00000000 g     F .text._ZN90_$LT$cstr_core..ascii..EscapeDefault$u20$as$u20$core..iter..traits..iterator..Iterator$GT$9size_hint17h152402e0f145f25eE	0000001a _ZN90_$LT$cstr_core..ascii..EscapeDefault$u20$as$u20$core..iter..traits..iterator..Iterator$GT$9size_hint17h152402e0f145f25eE
00000000 g     F .text._ZN9cstr_core5ascii14escape_default17h7cca55a9ec844d59E	000001ac .hidden _ZN9cstr_core5ascii14escape_default17h7cca55a9ec844d59E



Disassembly of section .text._ZN63_$LT$I$u20$as$u20$core..iter..traits..collect..IntoIterator$GT$9into_iter17ha978ccb939c3fb05E:

00000000 <_ZN63_$LT$I$u20$as$u20$core..iter..traits..collect..IntoIterator$GT$9into_iter17ha978ccb939c3fb05E>:
_ZN63_$LT$I$u20$as$u20$core..iter..traits..collect..IntoIterator$GT$9into_iter17ha978ccb939c3fb05E():
/rustc/50a0defd5a93523067ef239936cc2e0755220904/src/libcore/iter/traits/collect.rs:245
   0:	b580      	push	{r7, lr}
   2:	b082      	sub	sp, #8
   4:	460a      	mov	r2, r1
   6:	4603      	mov	r3, r0
/rustc/50a0defd5a93523067ef239936cc2e0755220904/src/libcore/iter/traits/collect.rs:246
   8:	f8d1 c000 	ldr.w	ip, [r1]
   c:	f8d1 e004 	ldr.w	lr, [r1, #4]
  10:	6889      	ldr	r1, [r1, #8]
  12:	6081      	str	r1, [r0, #8]
  14:	f8c0 e004 	str.w	lr, [r0, #4]
  18:	f8c0 c000 	str.w	ip, [r0]
/rustc/50a0defd5a93523067ef239936cc2e0755220904/src/libcore/iter/traits/collect.rs:247
  1c:	9201      	str	r2, [sp, #4]
  1e:	9300      	str	r3, [sp, #0]
  20:	b002      	add	sp, #8
  22:	bd80      	pop	{r7, pc}

Disassembly of section .text._ZN9cstr_core5ascii14escape_default17h7cca55a9ec844d59E:

00000000 <_ZN9cstr_core5ascii14escape_default17h7cca55a9ec844d59E>:
_ZN9cstr_core5ascii14escape_default17h7cca55a9ec844d59E():
/Users/Luppy/.cargo/registry/src/github.com-1ecc6299db9ec823/cstr_core-0.1.2/src/lib.rs:126
    /// assert_eq!(b'\\', escaped.next().unwrap());
    /// assert_eq!(b'x', escaped.next().unwrap());
    /// assert_eq!(b'9', escaped.next().unwrap());
    /// assert_eq!(b'd', escaped.next().unwrap());
    /// ```
    pub fn escape_default(c: u8) -> EscapeDefault {
   0:	b580      	push	{r7, lr}
   2:	b096      	sub	sp, #88	; 0x58
   4:	460a      	mov	r2, r1
   6:	f88d 101b 	strb.w	r1, [sp, #27]
/Users/Luppy/.cargo/registry/src/github.com-1ecc6299db9ec823/cstr_core-0.1.2/src/lib.rs:128
        let (data, len) = match c {
            b'\t' => ([b'\\', b't', 0, 0], 2),
   a:	f89d 101b 	ldrb.w	r1, [sp, #27]
   e:	460b      	mov	r3, r1
  10:	2909      	cmp	r1, #9
  12:	9205      	str	r2, [sp, #20]
  14:	9004      	str	r0, [sp, #16]
  16:	9303      	str	r3, [sp, #12]
  18:	d038      	beq.n	8c <_ZN9cstr_core5ascii14escape_default17h7cca55a9ec844d59E+0x8c>
  1a:	e7ff      	b.n	1c <_ZN9cstr_core5ascii14escape_default17h7cca55a9ec844d59E+0x1c>
  1c:	9803      	ldr	r0, [sp, #12]
  1e:	b2c1      	uxtb	r1, r0
  20:	290a      	cmp	r1, #10
  22:	d053      	beq.n	cc <_ZN9cstr_core5ascii14escape_default17h7cca55a9ec844d59E+0xcc>
  24:	e7ff      	b.n	26 <_ZN9cstr_core5ascii14escape_default17h7cca55a9ec844d59E+0x26>
  26:	9803      	ldr	r0, [sp, #12]
  28:	b2c1      	uxtb	r1, r0
  2a:	290d      	cmp	r1, #13
  2c:	d03e      	beq.n	ac <_ZN9cstr_core5ascii14escape_default17h7cca55a9ec844d59E+0xac>
  2e:	e7ff      	b.n	30 <_ZN9cstr_core5ascii14escape_default17h7cca55a9ec844d59E+0x30>
  30:	9803      	ldr	r0, [sp, #12]
  32:	b2c1      	uxtb	r1, r0
  34:	2922      	cmp	r1, #34	; 0x22
  36:	d078      	beq.n	12a <_ZN9cstr_core5ascii14escape_default17h7cca55a9ec844d59E+0x12a>
  38:	e7ff      	b.n	3a <_ZN9cstr_core5ascii14escape_default17h7cca55a9ec844d59E+0x3a>
  3a:	9803      	ldr	r0, [sp, #12]
  3c:	b2c1      	uxtb	r1, r0
  3e:	2927      	cmp	r1, #39	; 0x27
  40:	d063      	beq.n	10a <_ZN9cstr_core5ascii14escape_default17h7cca55a9ec844d59E+0x10a>
  42:	e7ff      	b.n	44 <_ZN9cstr_core5ascii14escape_default17h7cca55a9ec844d59E+0x44>
  44:	9803      	ldr	r0, [sp, #12]
  46:	b2c1      	uxtb	r1, r0
  48:	295c      	cmp	r1, #92	; 0x5c
  4a:	d04f      	beq.n	ec <_ZN9cstr_core5ascii14escape_default17h7cca55a9ec844d59E+0xec>
  4c:	e014      	b.n	78 <_ZN9cstr_core5ascii14escape_default17h7cca55a9ec844d59E+0x78>
/Users/Luppy/.cargo/registry/src/github.com-1ecc6299db9ec823/cstr_core-0.1.2/src/lib.rs:134
            b'\r' => ([b'\\', b'r', 0, 0], 2),
            b'\n' => ([b'\\', b'n', 0, 0], 2),
            b'\\' => ([b'\\', b'\\', 0, 0], 2),
            b'\'' => ([b'\\', b'\'', 0, 0], 2),
            b'"' => ([b'\\', b'"', 0, 0], 2),
            b'\x20'...b'\x7e' => ([c, 0, 0, 0], 1),
  4e:	f89d 001b 	ldrb.w	r0, [sp, #27]
  52:	f88d 0044 	strb.w	r0, [sp, #68]	; 0x44
  56:	2000      	movs	r0, #0
  58:	f88d 0045 	strb.w	r0, [sp, #69]	; 0x45
  5c:	f88d 0046 	strb.w	r0, [sp, #70]	; 0x46
  60:	f88d 0047 	strb.w	r0, [sp, #71]	; 0x47
  64:	9811      	ldr	r0, [sp, #68]	; 0x44
  66:	9009      	str	r0, [sp, #36]	; 0x24
  68:	2001      	movs	r0, #1
  6a:	900a      	str	r0, [sp, #40]	; 0x28
/Users/Luppy/.cargo/registry/src/github.com-1ecc6299db9ec823/cstr_core-0.1.2/src/lib.rs:127
        let (data, len) = match c {
  6c:	e08b      	b.n	186 <_ZN9cstr_core5ascii14escape_default17h7cca55a9ec844d59E+0x186>
/Users/Luppy/.cargo/registry/src/github.com-1ecc6299db9ec823/cstr_core-0.1.2/src/lib.rs:135
            _ => ([b'\\', b'x', hexify(c >> 4), hexify(c & 0xf)], 4),
  6e:	f89d 001b 	ldrb.w	r0, [sp, #27]
  72:	0900      	lsrs	r0, r0, #4
  74:	9002      	str	r0, [sp, #8]
  76:	e068      	b.n	14a <_ZN9cstr_core5ascii14escape_default17h7cca55a9ec844d59E+0x14a>
/Users/Luppy/.cargo/registry/src/github.com-1ecc6299db9ec823/cstr_core-0.1.2/src/lib.rs:134
            b'\x20'...b'\x7e' => ([c, 0, 0, 0], 1),
  78:	f89d 001b 	ldrb.w	r0, [sp, #27]
  7c:	2820      	cmp	r0, #32
  7e:	d3f6      	bcc.n	6e <_ZN9cstr_core5ascii14escape_default17h7cca55a9ec844d59E+0x6e>
  80:	e7ff      	b.n	82 <_ZN9cstr_core5ascii14escape_default17h7cca55a9ec844d59E+0x82>
  82:	f89d 001b 	ldrb.w	r0, [sp, #27]
  86:	287f      	cmp	r0, #127	; 0x7f
  88:	d3e1      	bcc.n	4e <_ZN9cstr_core5ascii14escape_default17h7cca55a9ec844d59E+0x4e>
  8a:	e7f0      	b.n	6e <_ZN9cstr_core5ascii14escape_default17h7cca55a9ec844d59E+0x6e>
  8c:	205c      	movs	r0, #92	; 0x5c
/Users/Luppy/.cargo/registry/src/github.com-1ecc6299db9ec823/cstr_core-0.1.2/src/lib.rs:128
            b'\t' => ([b'\\', b't', 0, 0], 2),
  8e:	f88d 002c 	strb.w	r0, [sp, #44]	; 0x2c
  92:	2074      	movs	r0, #116	; 0x74
  94:	f88d 002d 	strb.w	r0, [sp, #45]	; 0x2d
  98:	2000      	movs	r0, #0
  9a:	f88d 002e 	strb.w	r0, [sp, #46]	; 0x2e
  9e:	f88d 002f 	strb.w	r0, [sp, #47]	; 0x2f
  a2:	980b      	ldr	r0, [sp, #44]	; 0x2c
  a4:	9009      	str	r0, [sp, #36]	; 0x24
  a6:	2002      	movs	r0, #2
  a8:	900a      	str	r0, [sp, #40]	; 0x28
/Users/Luppy/.cargo/registry/src/github.com-1ecc6299db9ec823/cstr_core-0.1.2/src/lib.rs:127
        let (data, len) = match c {
  aa:	e06c      	b.n	186 <_ZN9cstr_core5ascii14escape_default17h7cca55a9ec844d59E+0x186>
  ac:	205c      	movs	r0, #92	; 0x5c
/Users/Luppy/.cargo/registry/src/github.com-1ecc6299db9ec823/cstr_core-0.1.2/src/lib.rs:129
            b'\r' => ([b'\\', b'r', 0, 0], 2),
  ae:	f88d 0030 	strb.w	r0, [sp, #48]	; 0x30
  b2:	2072      	movs	r0, #114	; 0x72
  b4:	f88d 0031 	strb.w	r0, [sp, #49]	; 0x31
  b8:	2000      	movs	r0, #0
  ba:	f88d 0032 	strb.w	r0, [sp, #50]	; 0x32
  be:	f88d 0033 	strb.w	r0, [sp, #51]	; 0x33
  c2:	980c      	ldr	r0, [sp, #48]	; 0x30
  c4:	9009      	str	r0, [sp, #36]	; 0x24
  c6:	2002      	movs	r0, #2
  c8:	900a      	str	r0, [sp, #40]	; 0x28
/Users/Luppy/.cargo/registry/src/github.com-1ecc6299db9ec823/cstr_core-0.1.2/src/lib.rs:127
        let (data, len) = match c {
  ca:	e05c      	b.n	186 <_ZN9cstr_core5ascii14escape_default17h7cca55a9ec844d59E+0x186>
  cc:	205c      	movs	r0, #92	; 0x5c
/Users/Luppy/.cargo/registry/src/github.com-1ecc6299db9ec823/cstr_core-0.1.2/src/lib.rs:130
            b'\n' => ([b'\\', b'n', 0, 0], 2),
  ce:	f88d 0034 	strb.w	r0, [sp, #52]	; 0x34
  d2:	206e      	movs	r0, #110	; 0x6e
  d4:	f88d 0035 	strb.w	r0, [sp, #53]	; 0x35
  d8:	2000      	movs	r0, #0
  da:	f88d 0036 	strb.w	r0, [sp, #54]	; 0x36
  de:	f88d 0037 	strb.w	r0, [sp, #55]	; 0x37
  e2:	980d      	ldr	r0, [sp, #52]	; 0x34
  e4:	9009      	str	r0, [sp, #36]	; 0x24
  e6:	2002      	movs	r0, #2
  e8:	900a      	str	r0, [sp, #40]	; 0x28
/Users/Luppy/.cargo/registry/src/github.com-1ecc6299db9ec823/cstr_core-0.1.2/src/lib.rs:127
        let (data, len) = match c {
  ea:	e04c      	b.n	186 <_ZN9cstr_core5ascii14escape_default17h7cca55a9ec844d59E+0x186>
  ec:	205c      	movs	r0, #92	; 0x5c
/Users/Luppy/.cargo/registry/src/github.com-1ecc6299db9ec823/cstr_core-0.1.2/src/lib.rs:131
            b'\\' => ([b'\\', b'\\', 0, 0], 2),
  ee:	f88d 0038 	strb.w	r0, [sp, #56]	; 0x38
  f2:	f88d 0039 	strb.w	r0, [sp, #57]	; 0x39
  f6:	2000      	movs	r0, #0
  f8:	f88d 003a 	strb.w	r0, [sp, #58]	; 0x3a
  fc:	f88d 003b 	strb.w	r0, [sp, #59]	; 0x3b
 100:	980e      	ldr	r0, [sp, #56]	; 0x38
 102:	9009      	str	r0, [sp, #36]	; 0x24
 104:	2002      	movs	r0, #2
 106:	900a      	str	r0, [sp, #40]	; 0x28
/Users/Luppy/.cargo/registry/src/github.com-1ecc6299db9ec823/cstr_core-0.1.2/src/lib.rs:127
        let (data, len) = match c {
 108:	e03d      	b.n	186 <_ZN9cstr_core5ascii14escape_default17h7cca55a9ec844d59E+0x186>
 10a:	205c      	movs	r0, #92	; 0x5c
/Users/Luppy/.cargo/registry/src/github.com-1ecc6299db9ec823/cstr_core-0.1.2/src/lib.rs:132
            b'\'' => ([b'\\', b'\'', 0, 0], 2),
 10c:	f88d 003c 	strb.w	r0, [sp, #60]	; 0x3c
 110:	2027      	movs	r0, #39	; 0x27
 112:	f88d 003d 	strb.w	r0, [sp, #61]	; 0x3d
 116:	2000      	movs	r0, #0
 118:	f88d 003e 	strb.w	r0, [sp, #62]	; 0x3e
 11c:	f88d 003f 	strb.w	r0, [sp, #63]	; 0x3f
 120:	980f      	ldr	r0, [sp, #60]	; 0x3c
 122:	9009      	str	r0, [sp, #36]	; 0x24
 124:	2002      	movs	r0, #2
 126:	900a      	str	r0, [sp, #40]	; 0x28
/Users/Luppy/.cargo/registry/src/github.com-1ecc6299db9ec823/cstr_core-0.1.2/src/lib.rs:127
        let (data, len) = match c {
 128:	e02d      	b.n	186 <_ZN9cstr_core5ascii14escape_default17h7cca55a9ec844d59E+0x186>
 12a:	205c      	movs	r0, #92	; 0x5c
/Users/Luppy/.cargo/registry/src/github.com-1ecc6299db9ec823/cstr_core-0.1.2/src/lib.rs:133
            b'"' => ([b'\\', b'"', 0, 0], 2),
 12c:	f88d 0040 	strb.w	r0, [sp, #64]	; 0x40
 130:	2022      	movs	r0, #34	; 0x22
 132:	f88d 0041 	strb.w	r0, [sp, #65]	; 0x41
 136:	2000      	movs	r0, #0
 138:	f88d 0042 	strb.w	r0, [sp, #66]	; 0x42
 13c:	f88d 0043 	strb.w	r0, [sp, #67]	; 0x43
 140:	9810      	ldr	r0, [sp, #64]	; 0x40
 142:	9009      	str	r0, [sp, #36]	; 0x24
 144:	2002      	movs	r0, #2
 146:	900a      	str	r0, [sp, #40]	; 0x28
/Users/Luppy/.cargo/registry/src/github.com-1ecc6299db9ec823/cstr_core-0.1.2/src/lib.rs:127
        let (data, len) = match c {
 148:	e01d      	b.n	186 <_ZN9cstr_core5ascii14escape_default17h7cca55a9ec844d59E+0x186>
/Users/Luppy/.cargo/registry/src/github.com-1ecc6299db9ec823/cstr_core-0.1.2/src/lib.rs:135
            _ => ([b'\\', b'x', hexify(c >> 4), hexify(c & 0xf)], 4),
 14a:	9802      	ldr	r0, [sp, #8]
 14c:	f7ff fffe 	bl	0 <_ZN9cstr_core5ascii14escape_default17h7cca55a9ec844d59E>
 150:	9001      	str	r0, [sp, #4]
 152:	e7ff      	b.n	154 <_ZN9cstr_core5ascii14escape_default17h7cca55a9ec844d59E+0x154>
 154:	f89d 001b 	ldrb.w	r0, [sp, #27]
 158:	f000 000f 	and.w	r0, r0, #15
 15c:	f7ff fffe 	bl	0 <_ZN9cstr_core5ascii14escape_default17h7cca55a9ec844d59E>
 160:	9000      	str	r0, [sp, #0]
 162:	e7ff      	b.n	164 <_ZN9cstr_core5ascii14escape_default17h7cca55a9ec844d59E+0x164>
 164:	205c      	movs	r0, #92	; 0x5c
 166:	f88d 0048 	strb.w	r0, [sp, #72]	; 0x48
 16a:	2078      	movs	r0, #120	; 0x78
 16c:	f88d 0049 	strb.w	r0, [sp, #73]	; 0x49
 170:	9801      	ldr	r0, [sp, #4]
 172:	f88d 004a 	strb.w	r0, [sp, #74]	; 0x4a
 176:	9900      	ldr	r1, [sp, #0]
 178:	f88d 104b 	strb.w	r1, [sp, #75]	; 0x4b
 17c:	9a12      	ldr	r2, [sp, #72]	; 0x48
 17e:	9209      	str	r2, [sp, #36]	; 0x24
 180:	2204      	movs	r2, #4
 182:	920a      	str	r2, [sp, #40]	; 0x28
/Users/Luppy/.cargo/registry/src/github.com-1ecc6299db9ec823/cstr_core-0.1.2/src/lib.rs:127
        let (data, len) = match c {
 184:	e7ff      	b.n	186 <_ZN9cstr_core5ascii14escape_default17h7cca55a9ec844d59E+0x186>
 186:	9809      	ldr	r0, [sp, #36]	; 0x24
 188:	9007      	str	r0, [sp, #28]
 18a:	980a      	ldr	r0, [sp, #40]	; 0x28
 18c:	9008      	str	r0, [sp, #32]
/Users/Luppy/.cargo/registry/src/github.com-1ecc6299db9ec823/cstr_core-0.1.2/src/lib.rs:139
        };

        return EscapeDefault {
            range: (0..len),
 18e:	9808      	ldr	r0, [sp, #32]
 190:	2100      	movs	r1, #0
 192:	9113      	str	r1, [sp, #76]	; 0x4c
 194:	9014      	str	r0, [sp, #80]	; 0x50
/Users/Luppy/.cargo/registry/src/github.com-1ecc6299db9ec823/cstr_core-0.1.2/src/lib.rs:140
            data: data,
 196:	9807      	ldr	r0, [sp, #28]
 198:	9015      	str	r0, [sp, #84]	; 0x54
/Users/Luppy/.cargo/registry/src/github.com-1ecc6299db9ec823/cstr_core-0.1.2/src/lib.rs:138
        return EscapeDefault {
 19a:	9813      	ldr	r0, [sp, #76]	; 0x4c
 19c:	9914      	ldr	r1, [sp, #80]	; 0x50
 19e:	9a04      	ldr	r2, [sp, #16]
 1a0:	6010      	str	r0, [r2, #0]
 1a2:	6051      	str	r1, [r2, #4]
 1a4:	9815      	ldr	r0, [sp, #84]	; 0x54
 1a6:	6090      	str	r0, [r2, #8]
/Users/Luppy/.cargo/registry/src/github.com-1ecc6299db9ec823/cstr_core-0.1.2/src/lib.rs:149
            match b {
                0...9 => b'0' + b,
                _ => b'a' + b - 10,
            }
        }
    }
 1a8:	b016      	add	sp, #88	; 0x58
 1aa:	bd80      	pop	{r7, pc}

Disassembly of section .text._ZN9cstr_core5ascii14escape_default6hexify17hf85dc98b650dfdc6E:

00000000 <_ZN9cstr_core5ascii14escape_default6hexify17hf85dc98b650dfdc6E>:
_ZN9cstr_core5ascii14escape_default6hexify17hf85dc98b650dfdc6E():
/Users/Luppy/.cargo/registry/src/github.com-1ecc6299db9ec823/cstr_core-0.1.2/src/lib.rs:143
        fn hexify(b: u8) -> u8 {
   0:	b086      	sub	sp, #24
   2:	4601      	mov	r1, r0
   4:	f88d 0016 	strb.w	r0, [sp, #22]
   8:	2001      	movs	r0, #1
/Users/Luppy/.cargo/registry/src/github.com-1ecc6299db9ec823/cstr_core-0.1.2/src/lib.rs:145
                0...9 => b'0' + b,
   a:	2800      	cmp	r0, #0
   c:	9104      	str	r1, [sp, #16]
   e:	d109      	bne.n	24 <_ZN9cstr_core5ascii14escape_default6hexify17hf85dc98b650dfdc6E+0x24>
  10:	e011      	b.n	36 <_ZN9cstr_core5ascii14escape_default6hexify17hf85dc98b650dfdc6E+0x36>
  12:	f89d 0016 	ldrb.w	r0, [sp, #22]
  16:	3030      	adds	r0, #48	; 0x30
  18:	b2c1      	uxtb	r1, r0
  1a:	4602      	mov	r2, r0
  1c:	4281      	cmp	r1, r0
  1e:	9203      	str	r2, [sp, #12]
  20:	d123      	bne.n	6a <_ZN9cstr_core5ascii14escape_default6hexify17hf85dc98b650dfdc6E+0x6a>
  22:	e004      	b.n	2e <_ZN9cstr_core5ascii14escape_default6hexify17hf85dc98b650dfdc6E+0x2e>
  24:	f89d 0016 	ldrb.w	r0, [sp, #22]
  28:	280a      	cmp	r0, #10
  2a:	d3f2      	bcc.n	12 <_ZN9cstr_core5ascii14escape_default6hexify17hf85dc98b650dfdc6E+0x12>
  2c:	e003      	b.n	36 <_ZN9cstr_core5ascii14escape_default6hexify17hf85dc98b650dfdc6E+0x36>
  2e:	9803      	ldr	r0, [sp, #12]
  30:	f88d 0017 	strb.w	r0, [sp, #23]
/Users/Luppy/.cargo/registry/src/github.com-1ecc6299db9ec823/cstr_core-0.1.2/src/lib.rs:144
            match b {
  34:	e015      	b.n	62 <_ZN9cstr_core5ascii14escape_default6hexify17hf85dc98b650dfdc6E+0x62>
/Users/Luppy/.cargo/registry/src/github.com-1ecc6299db9ec823/cstr_core-0.1.2/src/lib.rs:146
                _ => b'a' + b - 10,
  36:	f89d 0016 	ldrb.w	r0, [sp, #22]
  3a:	3061      	adds	r0, #97	; 0x61
  3c:	b2c1      	uxtb	r1, r0
  3e:	4602      	mov	r2, r0
  40:	4281      	cmp	r1, r0
  42:	9202      	str	r2, [sp, #8]
  44:	d118      	bne.n	78 <_ZN9cstr_core5ascii14escape_default6hexify17hf85dc98b650dfdc6E+0x78>
  46:	e7ff      	b.n	48 <_ZN9cstr_core5ascii14escape_default6hexify17hf85dc98b650dfdc6E+0x48>
  48:	9802      	ldr	r0, [sp, #8]
  4a:	b2c1      	uxtb	r1, r0
  4c:	390a      	subs	r1, #10
  4e:	b2ca      	uxtb	r2, r1
  50:	460b      	mov	r3, r1
  52:	428a      	cmp	r2, r1
  54:	9301      	str	r3, [sp, #4]
  56:	d116      	bne.n	86 <_ZN9cstr_core5ascii14escape_default6hexify17hf85dc98b650dfdc6E+0x86>
  58:	e7ff      	b.n	5a <_ZN9cstr_core5ascii14escape_default6hexify17hf85dc98b650dfdc6E+0x5a>
  5a:	9801      	ldr	r0, [sp, #4]
  5c:	f88d 0017 	strb.w	r0, [sp, #23]
/Users/Luppy/.cargo/registry/src/github.com-1ecc6299db9ec823/cstr_core-0.1.2/src/lib.rs:144
            match b {
  60:	e7ff      	b.n	62 <_ZN9cstr_core5ascii14escape_default6hexify17hf85dc98b650dfdc6E+0x62>
/Users/Luppy/.cargo/registry/src/github.com-1ecc6299db9ec823/cstr_core-0.1.2/src/lib.rs:148
        }
  62:	f89d 0017 	ldrb.w	r0, [sp, #23]
  66:	b006      	add	sp, #24
  68:	4770      	bx	lr
/Users/Luppy/.cargo/registry/src/github.com-1ecc6299db9ec823/cstr_core-0.1.2/src/lib.rs:145
                0...9 => b'0' + b,
  6a:	f240 0000 	movw	r0, #0
  6e:	f2c0 0000 	movt	r0, #0
  72:	f7ff fffe 	bl	0 <_ZN4core9panicking5panic17h53ca63c6ac6312f8E>
  76:	defe      	udf	#254	; 0xfe
/Users/Luppy/.cargo/registry/src/github.com-1ecc6299db9ec823/cstr_core-0.1.2/src/lib.rs:146
                _ => b'a' + b - 10,
  78:	f240 0000 	movw	r0, #0
  7c:	f2c0 0000 	movt	r0, #0
  80:	f7ff fffe 	bl	0 <_ZN4core9panicking5panic17h53ca63c6ac6312f8E>
  84:	defe      	udf	#254	; 0xfe
  86:	f240 0000 	movw	r0, #0
  8a:	f2c0 0000 	movt	r0, #0
  8e:	f7ff fffe 	bl	0 <_ZN4core9panicking5panic17h53ca63c6ac6312f8E>
  92:	defe      	udf	#254	; 0xfe

Disassembly of section .text._ZN90_$LT$cstr_core..ascii..EscapeDefault$u20$as$u20$core..iter..traits..iterator..Iterator$GT$4next17hd18c9becef56bae4E:

00000000 <_ZN90_$LT$cstr_core..ascii..EscapeDefault$u20$as$u20$core..iter..traits..iterator..Iterator$GT$4next17hd18c9becef56bae4E>:
_ZN90_$LT$cstr_core..ascii..EscapeDefault$u20$as$u20$core..iter..traits..iterator..Iterator$GT$4next17hd18c9becef56bae4E():
/Users/Luppy/.cargo/registry/src/github.com-1ecc6299db9ec823/cstr_core-0.1.2/src/lib.rs:153

    impl Iterator for EscapeDefault {
        type Item = u8;
        fn next(&mut self) -> Option<u8> {
   0:	b580      	push	{r7, lr}
   2:	b088      	sub	sp, #32
   4:	4601      	mov	r1, r0
   6:	9006      	str	r0, [sp, #24]
/Users/Luppy/.cargo/registry/src/github.com-1ecc6299db9ec823/cstr_core-0.1.2/src/lib.rs:154
            self.range.next().map(|i| self.data[i])
   8:	9806      	ldr	r0, [sp, #24]
   a:	9105      	str	r1, [sp, #20]
   c:	f7ff fffe 	bl	0 <_ZN4core4iter5range101_$LT$impl$u20$core..iter..traits..iterator..Iterator$u20$for$u20$core..ops..range..Range$LT$A$GT$$GT$4next17hf290b57c570fbe7bE>
  10:	9004      	str	r0, [sp, #16]
  12:	9103      	str	r1, [sp, #12]
  14:	e7ff      	b.n	16 <_ZN90_$LT$cstr_core..ascii..EscapeDefault$u20$as$u20$core..iter..traits..iterator..Iterator$GT$4next17hd18c9becef56bae4E+0x16>
  16:	a806      	add	r0, sp, #24
  18:	9007      	str	r0, [sp, #28]
  1a:	9a07      	ldr	r2, [sp, #28]
  1c:	9804      	ldr	r0, [sp, #16]
  1e:	9903      	ldr	r1, [sp, #12]
  20:	f7ff fffe 	bl	0 <_ZN4core6option15Option$LT$T$GT$3map17h4390466c48d6242cE>
  24:	9002      	str	r0, [sp, #8]
  26:	9101      	str	r1, [sp, #4]
  28:	e7ff      	b.n	2a <_ZN90_$LT$cstr_core..ascii..EscapeDefault$u20$as$u20$core..iter..traits..iterator..Iterator$GT$4next17hd18c9becef56bae4E+0x2a>
/Users/Luppy/.cargo/registry/src/github.com-1ecc6299db9ec823/cstr_core-0.1.2/src/lib.rs:155
        }
  2a:	9802      	ldr	r0, [sp, #8]
  2c:	f000 0001 	and.w	r0, r0, #1
  30:	9901      	ldr	r1, [sp, #4]
  32:	b008      	add	sp, #32
  34:	bd80      	pop	{r7, pc}

Disassembly of section .text._ZN90_$LT$cstr_core..ascii..EscapeDefault$u20$as$u20$core..iter..traits..iterator..Iterator$GT$4next28_$u7b$$u7b$closure$u7d$$u7d$17hf50764ce899271bcE:

00000000 <_ZN90_$LT$cstr_core..ascii..EscapeDefault$u20$as$u20$core..iter..traits..iterator..Iterator$GT$4next28_$u7b$$u7b$closure$u7d$$u7d$17hf50764ce899271bcE>:
_ZN90_$LT$cstr_core..ascii..EscapeDefault$u20$as$u20$core..iter..traits..iterator..Iterator$GT$4next28_$u7b$$u7b$closure$u7d$$u7d$17hf50764ce899271bcE():
/Users/Luppy/.cargo/registry/src/github.com-1ecc6299db9ec823/cstr_core-0.1.2/src/lib.rs:154
            self.range.next().map(|i| self.data[i])
   0:	b086      	sub	sp, #24
   2:	460a      	mov	r2, r1
   4:	4603      	mov	r3, r0
   6:	9004      	str	r0, [sp, #16]
   8:	9105      	str	r1, [sp, #20]
   a:	9805      	ldr	r0, [sp, #20]
   c:	2803      	cmp	r0, #3
   e:	9203      	str	r2, [sp, #12]
  10:	9302      	str	r3, [sp, #8]
  12:	9001      	str	r0, [sp, #4]
  14:	d807      	bhi.n	26 <_ZN90_$LT$cstr_core..ascii..EscapeDefault$u20$as$u20$core..iter..traits..iterator..Iterator$GT$4next28_$u7b$$u7b$closure$u7d$$u7d$17hf50764ce899271bcE+0x26>
  16:	e7ff      	b.n	18 <_ZN90_$LT$cstr_core..ascii..EscapeDefault$u20$as$u20$core..iter..traits..iterator..Iterator$GT$4next28_$u7b$$u7b$closure$u7d$$u7d$17hf50764ce899271bcE+0x18>
  18:	9804      	ldr	r0, [sp, #16]
  1a:	6800      	ldr	r0, [r0, #0]
  1c:	9901      	ldr	r1, [sp, #4]
  1e:	4408      	add	r0, r1
  20:	7a00      	ldrb	r0, [r0, #8]
  22:	b006      	add	sp, #24
  24:	4770      	bx	lr
  26:	f240 0000 	movw	r0, #0
  2a:	f2c0 0000 	movt	r0, #0
  2e:	2204      	movs	r2, #4
  30:	9901      	ldr	r1, [sp, #4]
  32:	f7ff fffe 	bl	0 <_ZN4core9panicking18panic_bounds_check17h946762cd0671aec9E>
  36:	defe      	udf	#254	; 0xfe

Disassembly of section .text._ZN90_$LT$cstr_core..ascii..EscapeDefault$u20$as$u20$core..iter..traits..iterator..Iterator$GT$9size_hint17h152402e0f145f25eE:

00000000 <_ZN90_$LT$cstr_core..ascii..EscapeDefault$u20$as$u20$core..iter..traits..iterator..Iterator$GT$9size_hint17h152402e0f145f25eE>:
_ZN90_$LT$cstr_core..ascii..EscapeDefault$u20$as$u20$core..iter..traits..iterator..Iterator$GT$9size_hint17h152402e0f145f25eE():
/Users/Luppy/.cargo/registry/src/github.com-1ecc6299db9ec823/cstr_core-0.1.2/src/lib.rs:156
        fn size_hint(&self) -> (usize, Option<usize>) {
   0:	b580      	push	{r7, lr}
   2:	b084      	sub	sp, #16
   4:	460a      	mov	r2, r1
   6:	4603      	mov	r3, r0
   8:	9103      	str	r1, [sp, #12]
/Users/Luppy/.cargo/registry/src/github.com-1ecc6299db9ec823/cstr_core-0.1.2/src/lib.rs:157
            self.range.size_hint()
   a:	9903      	ldr	r1, [sp, #12]
   c:	9202      	str	r2, [sp, #8]
   e:	9301      	str	r3, [sp, #4]
  10:	f7ff fffe 	bl	0 <_ZN4core4iter5range101_$LT$impl$u20$core..iter..traits..iterator..Iterator$u20$for$u20$core..ops..range..Range$LT$A$GT$$GT$9size_hint17h71914ad02175f177E>
  14:	e7ff      	b.n	16 <_ZN90_$LT$cstr_core..ascii..EscapeDefault$u20$as$u20$core..iter..traits..iterator..Iterator$GT$9size_hint17h152402e0f145f25eE+0x16>
/Users/Luppy/.cargo/registry/src/github.com-1ecc6299db9ec823/cstr_core-0.1.2/src/lib.rs:158
        }
  16:	b004      	add	sp, #16
  18:	bd80      	pop	{r7, pc}

Disassembly of section .text._ZN105_$LT$cstr_core..ascii..EscapeDefault$u20$as$u20$core..iter..traits..double_ended..DoubleEndedIterator$GT$9next_back17h300563ef55eed104E:

00000000 <_ZN105_$LT$cstr_core..ascii..EscapeDefault$u20$as$u20$core..iter..traits..double_ended..DoubleEndedIterator$GT$9next_back17h300563ef55eed104E>:
_ZN105_$LT$cstr_core..ascii..EscapeDefault$u20$as$u20$core..iter..traits..double_ended..DoubleEndedIterator$GT$9next_back17h300563ef55eed104E():
/Users/Luppy/.cargo/registry/src/github.com-1ecc6299db9ec823/cstr_core-0.1.2/src/lib.rs:161
    }
    impl DoubleEndedIterator for EscapeDefault {
        fn next_back(&mut self) -> Option<u8> {
   0:	b580      	push	{r7, lr}
   2:	b088      	sub	sp, #32
   4:	4601      	mov	r1, r0
   6:	9006      	str	r0, [sp, #24]
/Users/Luppy/.cargo/registry/src/github.com-1ecc6299db9ec823/cstr_core-0.1.2/src/lib.rs:162
            self.range.next_back().map(|i| self.data[i])
   8:	9806      	ldr	r0, [sp, #24]
   a:	9105      	str	r1, [sp, #20]
   c:	f7ff fffe 	bl	0 <_ZN4core4iter5range116_$LT$impl$u20$core..iter..traits..double_ended..DoubleEndedIterator$u20$for$u20$core..ops..range..Range$LT$A$GT$$GT$9next_back17h52d12f9f58f27a16E>
  10:	9004      	str	r0, [sp, #16]
  12:	9103      	str	r1, [sp, #12]
  14:	e7ff      	b.n	16 <_ZN105_$LT$cstr_core..ascii..EscapeDefault$u20$as$u20$core..iter..traits..double_ended..DoubleEndedIterator$GT$9next_back17h300563ef55eed104E+0x16>
  16:	a806      	add	r0, sp, #24
  18:	9007      	str	r0, [sp, #28]
  1a:	9a07      	ldr	r2, [sp, #28]
  1c:	9804      	ldr	r0, [sp, #16]
  1e:	9903      	ldr	r1, [sp, #12]
  20:	f7ff fffe 	bl	0 <_ZN4core6option15Option$LT$T$GT$3map17h8d57e8c246eab5e8E>
  24:	9002      	str	r0, [sp, #8]
  26:	9101      	str	r1, [sp, #4]
  28:	e7ff      	b.n	2a <_ZN105_$LT$cstr_core..ascii..EscapeDefault$u20$as$u20$core..iter..traits..double_ended..DoubleEndedIterator$GT$9next_back17h300563ef55eed104E+0x2a>
/Users/Luppy/.cargo/registry/src/github.com-1ecc6299db9ec823/cstr_core-0.1.2/src/lib.rs:163
        }
  2a:	9802      	ldr	r0, [sp, #8]
  2c:	f000 0001 	and.w	r0, r0, #1
  30:	9901      	ldr	r1, [sp, #4]
  32:	b008      	add	sp, #32
  34:	bd80      	pop	{r7, pc}

Disassembly of section .text._ZN105_$LT$cstr_core..ascii..EscapeDefault$u20$as$u20$core..iter..traits..double_ended..DoubleEndedIterator$GT$9next_back28_$u7b$$u7b$closure$u7d$$u7d$17habce585e0340c994E:

00000000 <_ZN105_$LT$cstr_core..ascii..EscapeDefault$u20$as$u20$core..iter..traits..double_ended..DoubleEndedIterator$GT$9next_back28_$u7b$$u7b$closure$u7d$$u7d$17habce585e0340c994E>:
_ZN105_$LT$cstr_core..ascii..EscapeDefault$u20$as$u20$core..iter..traits..double_ended..DoubleEndedIterator$GT$9next_back28_$u7b$$u7b$closure$u7d$$u7d$17habce585e0340c994E():
/Users/Luppy/.cargo/registry/src/github.com-1ecc6299db9ec823/cstr_core-0.1.2/src/lib.rs:162
            self.range.next_back().map(|i| self.data[i])
   0:	b086      	sub	sp, #24
   2:	460a      	mov	r2, r1
   4:	4603      	mov	r3, r0
   6:	9004      	str	r0, [sp, #16]
   8:	9105      	str	r1, [sp, #20]
   a:	9805      	ldr	r0, [sp, #20]
   c:	2803      	cmp	r0, #3
   e:	9203      	str	r2, [sp, #12]
  10:	9302      	str	r3, [sp, #8]
  12:	9001      	str	r0, [sp, #4]
  14:	d807      	bhi.n	26 <_ZN105_$LT$cstr_core..ascii..EscapeDefault$u20$as$u20$core..iter..traits..double_ended..DoubleEndedIterator$GT$9next_back28_$u7b$$u7b$closure$u7d$$u7d$17habce585e0340c994E+0x26>
  16:	e7ff      	b.n	18 <_ZN105_$LT$cstr_core..ascii..EscapeDefault$u20$as$u20$core..iter..traits..double_ended..DoubleEndedIterator$GT$9next_back28_$u7b$$u7b$closure$u7d$$u7d$17habce585e0340c994E+0x18>
  18:	9804      	ldr	r0, [sp, #16]
  1a:	6800      	ldr	r0, [r0, #0]
  1c:	9901      	ldr	r1, [sp, #4]
  1e:	4408      	add	r0, r1
  20:	7a00      	ldrb	r0, [r0, #8]
  22:	b006      	add	sp, #24
  24:	4770      	bx	lr
  26:	f240 0000 	movw	r0, #0
  2a:	f2c0 0000 	movt	r0, #0
  2e:	2204      	movs	r2, #4
  30:	9901      	ldr	r1, [sp, #4]
  32:	f7ff fffe 	bl	0 <_ZN4core9panicking18panic_bounds_check17h946762cd0671aec9E>
  36:	defe      	udf	#254	; 0xfe

cstr_core-002f35632daba805.cstr_core.4br1pvmw-cgu.4.rcgu.o:     file format elf32-littlearm

SYMBOL TABLE:
00000000 l    df *ABS*	00000000 cstr_core.4br1pvmw-cgu.4
00000300 l       .debug_str	00000000 
0000021a l       .debug_str	00000000 
0000021c l       .debug_str	00000000 
00000255 l       .debug_str	00000000 
0000028b l       .debug_str	00000000 
000002b1 l       .debug_str	00000000 
000002ea l       .debug_str	00000000 
0000030b l       .debug_str	00000000 
00000344 l       .debug_str	00000000 
00000380 l       .debug_str	00000000 
000003a8 l       .debug_str	00000000 
000003e6 l       .debug_str	00000000 
00000420 l       .debug_str	00000000 
00000425 l       .debug_str	00000000 
00000427 l       .debug_str	00000000 
00000429 l       .debug_str	00000000 
00000000 l       .debug_str	00000000 
00000041 l       .debug_str	00000000 
00000099 l       .debug_str	00000000 
000000e6 l       .debug_str	00000000 
000000eb l       .debug_str	00000000 
000000f2 l       .debug_str	00000000 
000000f6 l       .debug_str	00000000 
000000fb l       .debug_str	00000000 
000000fe l       .debug_str	00000000 
00000102 l       .debug_str	00000000 
00000104 l       .debug_str	00000000 
00000109 l       .debug_str	00000000 
0000010d l       .debug_str	00000000 
00000119 l       .debug_str	00000000 
0000011f l       .debug_str	00000000 
0000012d l       .debug_str	00000000 
00000137 l       .debug_str	00000000 
0000013d l       .debug_str	00000000 
00000143 l       .debug_str	00000000 
00000147 l       .debug_str	00000000 
0000014d l       .debug_str	00000000 
00000151 l       .debug_str	00000000 
00000155 l       .debug_str	00000000 
00000162 l       .debug_str	00000000 
00000167 l       .debug_str	00000000 
0000017b l       .debug_str	00000000 
00000189 l       .debug_str	00000000 
000001b1 l       .debug_str	00000000 
000001d6 l       .debug_str	00000000 
00000203 l       .debug_str	00000000 
00000205 l       .debug_str	00000000 
0000020d l       .debug_str	00000000 
00000000 l    d  .text._ZN4core6option15Option$LT$T$GT$3map17h2f72f1db9a955fbfE	00000000 .text._ZN4core6option15Option$LT$T$GT$3map17h2f72f1db9a955fbfE
00000000 l    d  .text._ZN4core6option15Option$LT$T$GT$3map17h4390466c48d6242cE	00000000 .text._ZN4core6option15Option$LT$T$GT$3map17h4390466c48d6242cE
00000000 l    d  .text._ZN4core6option15Option$LT$T$GT$3map17h8d57e8c246eab5e8E	00000000 .text._ZN4core6option15Option$LT$T$GT$3map17h8d57e8c246eab5e8E
00000000 l    d  .text._ZN4core6option15Option$LT$T$GT$6as_mut17h5855811a496c7521E	00000000 .text._ZN4core6option15Option$LT$T$GT$6as_mut17h5855811a496c7521E
00000000 l    d  .text._ZN4core6option15Option$LT$T$GT$8and_then17h6483672b049980eeE	00000000 .text._ZN4core6option15Option$LT$T$GT$8and_then17h6483672b049980eeE
00000000 l    d  .debug_abbrev	00000000 .debug_abbrev
00000000 l    d  .debug_info	00000000 .debug_info
00000000 l    d  .debug_ranges	00000000 .debug_ranges
00000000 l    d  .debug_frame	00000000 .debug_frame
00000000 l    d  .debug_line	00000000 .debug_line
00000000         *UND*	00000000 .hidden _ZN105_$LT$cstr_core..ascii..EscapeDefault$u20$as$u20$core..iter..traits..double_ended..DoubleEndedIterator$GT$9next_back28_$u7b$$u7b$closure$u7d$$u7d$17habce585e0340c994E
00000000         *UND*	00000000 _ZN116_$LT$core..iter..adapters..flatten..FlattenCompat$LT$I$C$U$GT$$u20$as$u20$core..iter..traits..iterator..Iterator$GT$4next28_$u7b$$u7b$closure$u7d$$u7d$17h7ef863f15aca5192E
00000000         *UND*	00000000 _ZN4core3ops8function5impls80_$LT$impl$u20$core..ops..function..FnOnce$LT$A$GT$$u20$for$u20$$RF$mut$u20$F$GT$9call_once17h1c918178b5a6e8d8E
00000000 g     F .text._ZN4core6option15Option$LT$T$GT$3map17h2f72f1db9a955fbfE	000000b4 _ZN4core6option15Option$LT$T$GT$3map17h2f72f1db9a955fbfE
00000000 g     F .text._ZN4core6option15Option$LT$T$GT$3map17h4390466c48d6242cE	000000b4 _ZN4core6option15Option$LT$T$GT$3map17h4390466c48d6242cE
00000000 g     F .text._ZN4core6option15Option$LT$T$GT$3map17h8d57e8c246eab5e8E	000000b4 _ZN4core6option15Option$LT$T$GT$3map17h8d57e8c246eab5e8E
00000000 g     F .text._ZN4core6option15Option$LT$T$GT$6as_mut17h5855811a496c7521E	00000036 _ZN4core6option15Option$LT$T$GT$6as_mut17h5855811a496c7521E
00000000 g     F .text._ZN4core6option15Option$LT$T$GT$8and_then17h6483672b049980eeE	000000a4 _ZN4core6option15Option$LT$T$GT$8and_then17h6483672b049980eeE
00000000         *UND*	00000000 .hidden _ZN90_$LT$cstr_core..ascii..EscapeDefault$u20$as$u20$core..iter..traits..iterator..Iterator$GT$4next28_$u7b$$u7b$closure$u7d$$u7d$17hf50764ce899271bcE



Disassembly of section .text._ZN4core6option15Option$LT$T$GT$3map17h2f72f1db9a955fbfE:

00000000 <_ZN4core6option15Option$LT$T$GT$3map17h2f72f1db9a955fbfE>:
_ZN4core6option15Option$LT$T$GT$3map17h2f72f1db9a955fbfE():
/rustc/50a0defd5a93523067ef239936cc2e0755220904/src/libcore/option.rs:414
   0:	b580      	push	{r7, lr}
   2:	b08c      	sub	sp, #48	; 0x30
   4:	4613      	mov	r3, r2
   6:	468c      	mov	ip, r1
   8:	9104      	str	r1, [sp, #16]
   a:	9205      	str	r2, [sp, #20]
   c:	2100      	movs	r1, #0
/rustc/50a0defd5a93523067ef239936cc2e0755220904/src/libcore/option.rs:416
   e:	f88d 102e 	strb.w	r1, [sp, #46]	; 0x2e
  12:	f88d 102f 	strb.w	r1, [sp, #47]	; 0x2f
  16:	2101      	movs	r1, #1
  18:	f88d 102f 	strb.w	r1, [sp, #47]	; 0x2f
  1c:	f88d 102e 	strb.w	r1, [sp, #46]	; 0x2e
  20:	9904      	ldr	r1, [sp, #16]
  22:	2900      	cmp	r1, #0
  24:	460a      	mov	r2, r1
  26:	bf18      	it	ne
  28:	2201      	movne	r2, #1
  2a:	2900      	cmp	r1, #0
  2c:	9303      	str	r3, [sp, #12]
  2e:	f8cd c008 	str.w	ip, [sp, #8]
  32:	9001      	str	r0, [sp, #4]
  34:	9200      	str	r2, [sp, #0]
  36:	d01e      	beq.n	76 <_ZN4core6option15Option$LT$T$GT$3map17h2f72f1db9a955fbfE+0x76>
  38:	e7ff      	b.n	3a <_ZN4core6option15Option$LT$T$GT$3map17h2f72f1db9a955fbfE+0x3a>
  3a:	9800      	ldr	r0, [sp, #0]
  3c:	2801      	cmp	r0, #1
  3e:	d001      	beq.n	44 <_ZN4core6option15Option$LT$T$GT$3map17h2f72f1db9a955fbfE+0x44>
  40:	e7ff      	b.n	42 <_ZN4core6option15Option$LT$T$GT$3map17h2f72f1db9a955fbfE+0x42>
/rustc/50a0defd5a93523067ef239936cc2e0755220904/src/libcore/option.rs:419
  42:	defe      	udf	#254	; 0xfe
  44:	2000      	movs	r0, #0
/rustc/50a0defd5a93523067ef239936cc2e0755220904/src/libcore/option.rs:416
  46:	f88d 002f 	strb.w	r0, [sp, #47]	; 0x2f
  4a:	9904      	ldr	r1, [sp, #16]
  4c:	9106      	str	r1, [sp, #24]
  4e:	f88d 002e 	strb.w	r0, [sp, #46]	; 0x2e
  52:	9905      	ldr	r1, [sp, #20]
  54:	9806      	ldr	r0, [sp, #24]
  56:	900a      	str	r0, [sp, #40]	; 0x28
  58:	9a0a      	ldr	r2, [sp, #40]	; 0x28
  5a:	a807      	add	r0, sp, #28
  5c:	f7ff fffe 	bl	0 <_ZN4core3ops8function5impls80_$LT$impl$u20$core..ops..function..FnOnce$LT$A$GT$$u20$for$u20$$RF$mut$u20$F$GT$9call_once17h1c918178b5a6e8d8E>
  60:	e7ff      	b.n	62 <_ZN4core6option15Option$LT$T$GT$3map17h2f72f1db9a955fbfE+0x62>
  62:	9807      	ldr	r0, [sp, #28]
  64:	9908      	ldr	r1, [sp, #32]
  66:	9a09      	ldr	r2, [sp, #36]	; 0x24
  68:	9b01      	ldr	r3, [sp, #4]
  6a:	60da      	str	r2, [r3, #12]
  6c:	6099      	str	r1, [r3, #8]
  6e:	6058      	str	r0, [r3, #4]
  70:	2001      	movs	r0, #1
  72:	6018      	str	r0, [r3, #0]
/rustc/50a0defd5a93523067ef239936cc2e0755220904/src/libcore/option.rs:415
  74:	e003      	b.n	7e <_ZN4core6option15Option$LT$T$GT$3map17h2f72f1db9a955fbfE+0x7e>
  76:	2000      	movs	r0, #0
/rustc/50a0defd5a93523067ef239936cc2e0755220904/src/libcore/option.rs:417
  78:	9901      	ldr	r1, [sp, #4]
  7a:	6008      	str	r0, [r1, #0]
/rustc/50a0defd5a93523067ef239936cc2e0755220904/src/libcore/option.rs:415
  7c:	e7ff      	b.n	7e <_ZN4core6option15Option$LT$T$GT$3map17h2f72f1db9a955fbfE+0x7e>
/rustc/50a0defd5a93523067ef239936cc2e0755220904/src/libcore/option.rs:419
  7e:	f89d 002e 	ldrb.w	r0, [sp, #46]	; 0x2e
  82:	07c0      	lsls	r0, r0, #31
  84:	2800      	cmp	r0, #0
  86:	d104      	bne.n	92 <_ZN4core6option15Option$LT$T$GT$3map17h2f72f1db9a955fbfE+0x92>
  88:	e7ff      	b.n	8a <_ZN4core6option15Option$LT$T$GT$3map17h2f72f1db9a955fbfE+0x8a>
  8a:	9804      	ldr	r0, [sp, #16]
  8c:	2800      	cmp	r0, #0
  8e:	d106      	bne.n	9e <_ZN4core6option15Option$LT$T$GT$3map17h2f72f1db9a955fbfE+0x9e>
  90:	e00f      	b.n	b2 <_ZN4core6option15Option$LT$T$GT$3map17h2f72f1db9a955fbfE+0xb2>
  92:	2000      	movs	r0, #0
  94:	f88d 002e 	strb.w	r0, [sp, #46]	; 0x2e
  98:	e7f7      	b.n	8a <_ZN4core6option15Option$LT$T$GT$3map17h2f72f1db9a955fbfE+0x8a>
  9a:	b00c      	add	sp, #48	; 0x30
  9c:	bd80      	pop	{r7, pc}
  9e:	f89d 002f 	ldrb.w	r0, [sp, #47]	; 0x2f
  a2:	07c0      	lsls	r0, r0, #31
  a4:	2800      	cmp	r0, #0
  a6:	d0f8      	beq.n	9a <_ZN4core6option15Option$LT$T$GT$3map17h2f72f1db9a955fbfE+0x9a>
  a8:	e7ff      	b.n	aa <_ZN4core6option15Option$LT$T$GT$3map17h2f72f1db9a955fbfE+0xaa>
  aa:	2000      	movs	r0, #0
  ac:	f88d 002f 	strb.w	r0, [sp, #47]	; 0x2f
  b0:	e7f3      	b.n	9a <_ZN4core6option15Option$LT$T$GT$3map17h2f72f1db9a955fbfE+0x9a>
  b2:	e7f2      	b.n	9a <_ZN4core6option15Option$LT$T$GT$3map17h2f72f1db9a955fbfE+0x9a>

Disassembly of section .text._ZN4core6option15Option$LT$T$GT$3map17h4390466c48d6242cE:

00000000 <_ZN4core6option15Option$LT$T$GT$3map17h4390466c48d6242cE>:
_ZN4core6option15Option$LT$T$GT$3map17h4390466c48d6242cE():
/rustc/50a0defd5a93523067ef239936cc2e0755220904/src/libcore/option.rs:414
   0:	b580      	push	{r7, lr}
   2:	b08c      	sub	sp, #48	; 0x30
   4:	4613      	mov	r3, r2
   6:	468c      	mov	ip, r1
   8:	4686      	mov	lr, r0
   a:	9005      	str	r0, [sp, #20]
   c:	9106      	str	r1, [sp, #24]
   e:	9207      	str	r2, [sp, #28]
  10:	2000      	movs	r0, #0
/rustc/50a0defd5a93523067ef239936cc2e0755220904/src/libcore/option.rs:416
  12:	f88d 002e 	strb.w	r0, [sp, #46]	; 0x2e
  16:	f88d 002f 	strb.w	r0, [sp, #47]	; 0x2f
  1a:	2001      	movs	r0, #1
  1c:	f88d 002f 	strb.w	r0, [sp, #47]	; 0x2f
  20:	f88d 002e 	strb.w	r0, [sp, #46]	; 0x2e
  24:	9805      	ldr	r0, [sp, #20]
  26:	2800      	cmp	r0, #0
  28:	9304      	str	r3, [sp, #16]
  2a:	f8cd c00c 	str.w	ip, [sp, #12]
  2e:	f8cd e008 	str.w	lr, [sp, #8]
  32:	9001      	str	r0, [sp, #4]
  34:	d01b      	beq.n	6e <_ZN4core6option15Option$LT$T$GT$3map17h4390466c48d6242cE+0x6e>
  36:	e7ff      	b.n	38 <_ZN4core6option15Option$LT$T$GT$3map17h4390466c48d6242cE+0x38>
  38:	9801      	ldr	r0, [sp, #4]
  3a:	2801      	cmp	r0, #1
  3c:	d001      	beq.n	42 <_ZN4core6option15Option$LT$T$GT$3map17h4390466c48d6242cE+0x42>
  3e:	e7ff      	b.n	40 <_ZN4core6option15Option$LT$T$GT$3map17h4390466c48d6242cE+0x40>
/rustc/50a0defd5a93523067ef239936cc2e0755220904/src/libcore/option.rs:419
  40:	defe      	udf	#254	; 0xfe
  42:	2000      	movs	r0, #0
/rustc/50a0defd5a93523067ef239936cc2e0755220904/src/libcore/option.rs:416
  44:	f88d 002f 	strb.w	r0, [sp, #47]	; 0x2f
  48:	9906      	ldr	r1, [sp, #24]
  4a:	9109      	str	r1, [sp, #36]	; 0x24
  4c:	f88d 002e 	strb.w	r0, [sp, #46]	; 0x2e
  50:	9807      	ldr	r0, [sp, #28]
  52:	9909      	ldr	r1, [sp, #36]	; 0x24
  54:	910a      	str	r1, [sp, #40]	; 0x28
  56:	990a      	ldr	r1, [sp, #40]	; 0x28
  58:	f7ff fffe 	bl	0 <_ZN90_$LT$cstr_core..ascii..EscapeDefault$u20$as$u20$core..iter..traits..iterator..Iterator$GT$4next28_$u7b$$u7b$closure$u7d$$u7d$17hf50764ce899271bcE>
  5c:	9000      	str	r0, [sp, #0]
  5e:	e7ff      	b.n	60 <_ZN4core6option15Option$LT$T$GT$3map17h4390466c48d6242cE+0x60>
  60:	9800      	ldr	r0, [sp, #0]
  62:	f88d 0021 	strb.w	r0, [sp, #33]	; 0x21
  66:	2101      	movs	r1, #1
  68:	f88d 1020 	strb.w	r1, [sp, #32]
/rustc/50a0defd5a93523067ef239936cc2e0755220904/src/libcore/option.rs:415
  6c:	e003      	b.n	76 <_ZN4core6option15Option$LT$T$GT$3map17h4390466c48d6242cE+0x76>
  6e:	2000      	movs	r0, #0
/rustc/50a0defd5a93523067ef239936cc2e0755220904/src/libcore/option.rs:417
  70:	f88d 0020 	strb.w	r0, [sp, #32]
/rustc/50a0defd5a93523067ef239936cc2e0755220904/src/libcore/option.rs:415
  74:	e7ff      	b.n	76 <_ZN4core6option15Option$LT$T$GT$3map17h4390466c48d6242cE+0x76>
/rustc/50a0defd5a93523067ef239936cc2e0755220904/src/libcore/option.rs:419
  76:	f89d 002e 	ldrb.w	r0, [sp, #46]	; 0x2e
  7a:	07c0      	lsls	r0, r0, #31
  7c:	2800      	cmp	r0, #0
  7e:	d104      	bne.n	8a <_ZN4core6option15Option$LT$T$GT$3map17h4390466c48d6242cE+0x8a>
  80:	e7ff      	b.n	82 <_ZN4core6option15Option$LT$T$GT$3map17h4390466c48d6242cE+0x82>
  82:	9805      	ldr	r0, [sp, #20]
  84:	2801      	cmp	r0, #1
  86:	d00a      	beq.n	9e <_ZN4core6option15Option$LT$T$GT$3map17h4390466c48d6242cE+0x9e>
  88:	e013      	b.n	b2 <_ZN4core6option15Option$LT$T$GT$3map17h4390466c48d6242cE+0xb2>
  8a:	2000      	movs	r0, #0
  8c:	f88d 002e 	strb.w	r0, [sp, #46]	; 0x2e
  90:	e7f7      	b.n	82 <_ZN4core6option15Option$LT$T$GT$3map17h4390466c48d6242cE+0x82>
  92:	f89d 0020 	ldrb.w	r0, [sp, #32]
  96:	f89d 1021 	ldrb.w	r1, [sp, #33]	; 0x21
  9a:	b00c      	add	sp, #48	; 0x30
  9c:	bd80      	pop	{r7, pc}
  9e:	f89d 002f 	ldrb.w	r0, [sp, #47]	; 0x2f
  a2:	07c0      	lsls	r0, r0, #31
  a4:	2800      	cmp	r0, #0
  a6:	d0f4      	beq.n	92 <_ZN4core6option15Option$LT$T$GT$3map17h4390466c48d6242cE+0x92>
  a8:	e7ff      	b.n	aa <_ZN4core6option15Option$LT$T$GT$3map17h4390466c48d6242cE+0xaa>
  aa:	2000      	movs	r0, #0
  ac:	f88d 002f 	strb.w	r0, [sp, #47]	; 0x2f
  b0:	e7ef      	b.n	92 <_ZN4core6option15Option$LT$T$GT$3map17h4390466c48d6242cE+0x92>
  b2:	e7ee      	b.n	92 <_ZN4core6option15Option$LT$T$GT$3map17h4390466c48d6242cE+0x92>

Disassembly of section .text._ZN4core6option15Option$LT$T$GT$3map17h8d57e8c246eab5e8E:

00000000 <_ZN4core6option15Option$LT$T$GT$3map17h8d57e8c246eab5e8E>:
_ZN4core6option15Option$LT$T$GT$3map17h8d57e8c246eab5e8E():
/rustc/50a0defd5a93523067ef239936cc2e0755220904/src/libcore/option.rs:414
   0:	b580      	push	{r7, lr}
   2:	b08c      	sub	sp, #48	; 0x30
   4:	4613      	mov	r3, r2
   6:	468c      	mov	ip, r1
   8:	4686      	mov	lr, r0
   a:	9005      	str	r0, [sp, #20]
   c:	9106      	str	r1, [sp, #24]
   e:	9207      	str	r2, [sp, #28]
  10:	2000      	movs	r0, #0
/rustc/50a0defd5a93523067ef239936cc2e0755220904/src/libcore/option.rs:416
  12:	f88d 002e 	strb.w	r0, [sp, #46]	; 0x2e
  16:	f88d 002f 	strb.w	r0, [sp, #47]	; 0x2f
  1a:	2001      	movs	r0, #1
  1c:	f88d 002f 	strb.w	r0, [sp, #47]	; 0x2f
  20:	f88d 002e 	strb.w	r0, [sp, #46]	; 0x2e
  24:	9805      	ldr	r0, [sp, #20]
  26:	2800      	cmp	r0, #0
  28:	9304      	str	r3, [sp, #16]
  2a:	f8cd c00c 	str.w	ip, [sp, #12]
  2e:	f8cd e008 	str.w	lr, [sp, #8]
  32:	9001      	str	r0, [sp, #4]
  34:	d01b      	beq.n	6e <_ZN4core6option15Option$LT$T$GT$3map17h8d57e8c246eab5e8E+0x6e>
  36:	e7ff      	b.n	38 <_ZN4core6option15Option$LT$T$GT$3map17h8d57e8c246eab5e8E+0x38>
  38:	9801      	ldr	r0, [sp, #4]
  3a:	2801      	cmp	r0, #1
  3c:	d001      	beq.n	42 <_ZN4core6option15Option$LT$T$GT$3map17h8d57e8c246eab5e8E+0x42>
  3e:	e7ff      	b.n	40 <_ZN4core6option15Option$LT$T$GT$3map17h8d57e8c246eab5e8E+0x40>
/rustc/50a0defd5a93523067ef239936cc2e0755220904/src/libcore/option.rs:419
  40:	defe      	udf	#254	; 0xfe
  42:	2000      	movs	r0, #0
/rustc/50a0defd5a93523067ef239936cc2e0755220904/src/libcore/option.rs:416
  44:	f88d 002f 	strb.w	r0, [sp, #47]	; 0x2f
  48:	9906      	ldr	r1, [sp, #24]
  4a:	9109      	str	r1, [sp, #36]	; 0x24
  4c:	f88d 002e 	strb.w	r0, [sp, #46]	; 0x2e
  50:	9807      	ldr	r0, [sp, #28]
  52:	9909      	ldr	r1, [sp, #36]	; 0x24
  54:	910a      	str	r1, [sp, #40]	; 0x28
  56:	990a      	ldr	r1, [sp, #40]	; 0x28
  58:	f7ff fffe 	bl	0 <_ZN105_$LT$cstr_core..ascii..EscapeDefault$u20$as$u20$core..iter..traits..double_ended..DoubleEndedIterator$GT$9next_back28_$u7b$$u7b$closure$u7d$$u7d$17habce585e0340c994E>
  5c:	9000      	str	r0, [sp, #0]
  5e:	e7ff      	b.n	60 <_ZN4core6option15Option$LT$T$GT$3map17h8d57e8c246eab5e8E+0x60>
  60:	9800      	ldr	r0, [sp, #0]
  62:	f88d 0021 	strb.w	r0, [sp, #33]	; 0x21
  66:	2101      	movs	r1, #1
  68:	f88d 1020 	strb.w	r1, [sp, #32]
/rustc/50a0defd5a93523067ef239936cc2e0755220904/src/libcore/option.rs:415
  6c:	e003      	b.n	76 <_ZN4core6option15Option$LT$T$GT$3map17h8d57e8c246eab5e8E+0x76>
  6e:	2000      	movs	r0, #0
/rustc/50a0defd5a93523067ef239936cc2e0755220904/src/libcore/option.rs:417
  70:	f88d 0020 	strb.w	r0, [sp, #32]
/rustc/50a0defd5a93523067ef239936cc2e0755220904/src/libcore/option.rs:415
  74:	e7ff      	b.n	76 <_ZN4core6option15Option$LT$T$GT$3map17h8d57e8c246eab5e8E+0x76>
/rustc/50a0defd5a93523067ef239936cc2e0755220904/src/libcore/option.rs:419
  76:	f89d 002e 	ldrb.w	r0, [sp, #46]	; 0x2e
  7a:	07c0      	lsls	r0, r0, #31
  7c:	2800      	cmp	r0, #0
  7e:	d104      	bne.n	8a <_ZN4core6option15Option$LT$T$GT$3map17h8d57e8c246eab5e8E+0x8a>
  80:	e7ff      	b.n	82 <_ZN4core6option15Option$LT$T$GT$3map17h8d57e8c246eab5e8E+0x82>
  82:	9805      	ldr	r0, [sp, #20]
  84:	2801      	cmp	r0, #1
  86:	d00a      	beq.n	9e <_ZN4core6option15Option$LT$T$GT$3map17h8d57e8c246eab5e8E+0x9e>
  88:	e013      	b.n	b2 <_ZN4core6option15Option$LT$T$GT$3map17h8d57e8c246eab5e8E+0xb2>
  8a:	2000      	movs	r0, #0
  8c:	f88d 002e 	strb.w	r0, [sp, #46]	; 0x2e
  90:	e7f7      	b.n	82 <_ZN4core6option15Option$LT$T$GT$3map17h8d57e8c246eab5e8E+0x82>
  92:	f89d 0020 	ldrb.w	r0, [sp, #32]
  96:	f89d 1021 	ldrb.w	r1, [sp, #33]	; 0x21
  9a:	b00c      	add	sp, #48	; 0x30
  9c:	bd80      	pop	{r7, pc}
  9e:	f89d 002f 	ldrb.w	r0, [sp, #47]	; 0x2f
  a2:	07c0      	lsls	r0, r0, #31
  a4:	2800      	cmp	r0, #0
  a6:	d0f4      	beq.n	92 <_ZN4core6option15Option$LT$T$GT$3map17h8d57e8c246eab5e8E+0x92>
  a8:	e7ff      	b.n	aa <_ZN4core6option15Option$LT$T$GT$3map17h8d57e8c246eab5e8E+0xaa>
  aa:	2000      	movs	r0, #0
  ac:	f88d 002f 	strb.w	r0, [sp, #47]	; 0x2f
  b0:	e7ef      	b.n	92 <_ZN4core6option15Option$LT$T$GT$3map17h8d57e8c246eab5e8E+0x92>
  b2:	e7ee      	b.n	92 <_ZN4core6option15Option$LT$T$GT$3map17h8d57e8c246eab5e8E+0x92>

Disassembly of section .text._ZN4core6option15Option$LT$T$GT$6as_mut17h5855811a496c7521E:

00000000 <_ZN4core6option15Option$LT$T$GT$6as_mut17h5855811a496c7521E>:
_ZN4core6option15Option$LT$T$GT$6as_mut17h5855811a496c7521E():
/rustc/50a0defd5a93523067ef239936cc2e0755220904/src/libcore/option.rs:258
   0:	b085      	sub	sp, #20
   2:	4601      	mov	r1, r0
   4:	9002      	str	r0, [sp, #8]
/rustc/50a0defd5a93523067ef239936cc2e0755220904/src/libcore/option.rs:260
   6:	9802      	ldr	r0, [sp, #8]
   8:	6800      	ldr	r0, [r0, #0]
   a:	2800      	cmp	r0, #0
   c:	9101      	str	r1, [sp, #4]
   e:	9000      	str	r0, [sp, #0]
  10:	d00b      	beq.n	2a <_ZN4core6option15Option$LT$T$GT$6as_mut17h5855811a496c7521E+0x2a>
  12:	e7ff      	b.n	14 <_ZN4core6option15Option$LT$T$GT$6as_mut17h5855811a496c7521E+0x14>
  14:	9800      	ldr	r0, [sp, #0]
  16:	2801      	cmp	r0, #1
  18:	d001      	beq.n	1e <_ZN4core6option15Option$LT$T$GT$6as_mut17h5855811a496c7521E+0x1e>
  1a:	e7ff      	b.n	1c <_ZN4core6option15Option$LT$T$GT$6as_mut17h5855811a496c7521E+0x1c>
/rustc/50a0defd5a93523067ef239936cc2e0755220904/src/libcore/option.rs:263
  1c:	defe      	udf	#254	; 0xfe
/rustc/50a0defd5a93523067ef239936cc2e0755220904/src/libcore/option.rs:260
  1e:	9802      	ldr	r0, [sp, #8]
  20:	3004      	adds	r0, #4
  22:	9004      	str	r0, [sp, #16]
  24:	9804      	ldr	r0, [sp, #16]
  26:	9003      	str	r0, [sp, #12]
/rustc/50a0defd5a93523067ef239936cc2e0755220904/src/libcore/option.rs:259
  28:	e002      	b.n	30 <_ZN4core6option15Option$LT$T$GT$6as_mut17h5855811a496c7521E+0x30>
  2a:	2000      	movs	r0, #0
/rustc/50a0defd5a93523067ef239936cc2e0755220904/src/libcore/option.rs:261
  2c:	9003      	str	r0, [sp, #12]
/rustc/50a0defd5a93523067ef239936cc2e0755220904/src/libcore/option.rs:259
  2e:	e7ff      	b.n	30 <_ZN4core6option15Option$LT$T$GT$6as_mut17h5855811a496c7521E+0x30>
/rustc/50a0defd5a93523067ef239936cc2e0755220904/src/libcore/option.rs:263
  30:	9803      	ldr	r0, [sp, #12]
  32:	b005      	add	sp, #20
  34:	4770      	bx	lr

Disassembly of section .text._ZN4core6option15Option$LT$T$GT$8and_then17h6483672b049980eeE:

00000000 <_ZN4core6option15Option$LT$T$GT$8and_then17h6483672b049980eeE>:
_ZN4core6option15Option$LT$T$GT$8and_then17h6483672b049980eeE():
/rustc/50a0defd5a93523067ef239936cc2e0755220904/src/libcore/option.rs:622
   0:	b580      	push	{r7, lr}
   2:	b088      	sub	sp, #32
   4:	4601      	mov	r1, r0
   6:	9002      	str	r0, [sp, #8]
   8:	2000      	movs	r0, #0
/rustc/50a0defd5a93523067ef239936cc2e0755220904/src/libcore/option.rs:624
   a:	f88d 001f 	strb.w	r0, [sp, #31]
   e:	f88d 001e 	strb.w	r0, [sp, #30]
  12:	2001      	movs	r0, #1
  14:	f88d 001f 	strb.w	r0, [sp, #31]
  18:	f88d 001e 	strb.w	r0, [sp, #30]
  1c:	9802      	ldr	r0, [sp, #8]
  1e:	2800      	cmp	r0, #0
  20:	4602      	mov	r2, r0
  22:	bf18      	it	ne
  24:	2201      	movne	r2, #1
  26:	2800      	cmp	r0, #0
  28:	9101      	str	r1, [sp, #4]
  2a:	9200      	str	r2, [sp, #0]
  2c:	d017      	beq.n	5e <_ZN4core6option15Option$LT$T$GT$8and_then17h6483672b049980eeE+0x5e>
  2e:	e7ff      	b.n	30 <_ZN4core6option15Option$LT$T$GT$8and_then17h6483672b049980eeE+0x30>
  30:	9800      	ldr	r0, [sp, #0]
  32:	2801      	cmp	r0, #1
  34:	d001      	beq.n	3a <_ZN4core6option15Option$LT$T$GT$8and_then17h6483672b049980eeE+0x3a>
  36:	e7ff      	b.n	38 <_ZN4core6option15Option$LT$T$GT$8and_then17h6483672b049980eeE+0x38>
/rustc/50a0defd5a93523067ef239936cc2e0755220904/src/libcore/option.rs:627
  38:	defe      	udf	#254	; 0xfe
  3a:	2000      	movs	r0, #0
/rustc/50a0defd5a93523067ef239936cc2e0755220904/src/libcore/option.rs:624
  3c:	f88d 001f 	strb.w	r0, [sp, #31]
  40:	9902      	ldr	r1, [sp, #8]
  42:	9105      	str	r1, [sp, #20]
  44:	f88d 001e 	strb.w	r0, [sp, #30]
  48:	9805      	ldr	r0, [sp, #20]
  4a:	9006      	str	r0, [sp, #24]
  4c:	9806      	ldr	r0, [sp, #24]
  4e:	f7ff fffe 	bl	0 <_ZN116_$LT$core..iter..adapters..flatten..FlattenCompat$LT$I$C$U$GT$$u20$as$u20$core..iter..traits..iterator..Iterator$GT$4next28_$u7b$$u7b$closure$u7d$$u7d$17h7ef863f15aca5192E>
  52:	f88d 1011 	strb.w	r1, [sp, #17]
  56:	f88d 0010 	strb.w	r0, [sp, #16]
  5a:	e7ff      	b.n	5c <_ZN4core6option15Option$LT$T$GT$8and_then17h6483672b049980eeE+0x5c>
/rustc/50a0defd5a93523067ef239936cc2e0755220904/src/libcore/option.rs:623
  5c:	e003      	b.n	66 <_ZN4core6option15Option$LT$T$GT$8and_then17h6483672b049980eeE+0x66>
  5e:	2000      	movs	r0, #0
/rustc/50a0defd5a93523067ef239936cc2e0755220904/src/libcore/option.rs:625
  60:	f88d 0010 	strb.w	r0, [sp, #16]
/rustc/50a0defd5a93523067ef239936cc2e0755220904/src/libcore/option.rs:623
  64:	e7ff      	b.n	66 <_ZN4core6option15Option$LT$T$GT$8and_then17h6483672b049980eeE+0x66>
/rustc/50a0defd5a93523067ef239936cc2e0755220904/src/libcore/option.rs:627
  66:	f89d 001e 	ldrb.w	r0, [sp, #30]
  6a:	07c0      	lsls	r0, r0, #31
  6c:	2800      	cmp	r0, #0
  6e:	d104      	bne.n	7a <_ZN4core6option15Option$LT$T$GT$8and_then17h6483672b049980eeE+0x7a>
  70:	e7ff      	b.n	72 <_ZN4core6option15Option$LT$T$GT$8and_then17h6483672b049980eeE+0x72>
  72:	9802      	ldr	r0, [sp, #8]
  74:	2800      	cmp	r0, #0
  76:	d10a      	bne.n	8e <_ZN4core6option15Option$LT$T$GT$8and_then17h6483672b049980eeE+0x8e>
  78:	e013      	b.n	a2 <_ZN4core6option15Option$LT$T$GT$8and_then17h6483672b049980eeE+0xa2>
  7a:	2000      	movs	r0, #0
  7c:	f88d 001e 	strb.w	r0, [sp, #30]
  80:	e7f7      	b.n	72 <_ZN4core6option15Option$LT$T$GT$8and_then17h6483672b049980eeE+0x72>
  82:	f89d 0010 	ldrb.w	r0, [sp, #16]
  86:	f89d 1011 	ldrb.w	r1, [sp, #17]
  8a:	b008      	add	sp, #32
  8c:	bd80      	pop	{r7, pc}
  8e:	f89d 001f 	ldrb.w	r0, [sp, #31]
  92:	07c0      	lsls	r0, r0, #31
  94:	2800      	cmp	r0, #0
  96:	d0f4      	beq.n	82 <_ZN4core6option15Option$LT$T$GT$8and_then17h6483672b049980eeE+0x82>
  98:	e7ff      	b.n	9a <_ZN4core6option15Option$LT$T$GT$8and_then17h6483672b049980eeE+0x9a>
  9a:	2000      	movs	r0, #0
  9c:	f88d 001f 	strb.w	r0, [sp, #31]
  a0:	e7ef      	b.n	82 <_ZN4core6option15Option$LT$T$GT$8and_then17h6483672b049980eeE+0x82>
  a2:	e7ee      	b.n	82 <_ZN4core6option15Option$LT$T$GT$8and_then17h6483672b049980eeE+0x82>

cstr_core-002f35632daba805.cstr_core.4br1pvmw-cgu.5.rcgu.o:     file format elf32-littlearm

SYMBOL TABLE:
00000000 l    df *ABS*	00000000 cstr_core.4br1pvmw-cgu.5
0000041d l       .debug_str	00000000 
00000339 l       .debug_str	00000000 
0000035e l       .debug_str	00000000 
00000407 l       .debug_str	00000000 
00000418 l       .debug_str	00000000 
00000421 l       .debug_str	00000000 
00000425 l       .debug_str	00000000 
00000429 l       .debug_str	00000000 
00000438 l       .debug_str	00000000 
0000043e l       .debug_str	00000000 
0000044b l       .debug_str	00000000 
0000046f l       .debug_str	00000000 
00000471 l       .debug_str	00000000 
00000491 l       .debug_str	00000000 
00000000 l       .debug_str	00000000 
00000041 l       .debug_str	00000000 
00000099 l       .debug_str	00000000 
000000e6 l       .debug_str	00000000 
000000eb l       .debug_str	00000000 
000000f1 l       .debug_str	00000000 
000000fa l       .debug_str	00000000 
000000ff l       .debug_str	00000000 
00000105 l       .debug_str	00000000 
00000108 l       .debug_str	00000000 
0000010a l       .debug_str	00000000 
00000190 l       .debug_str	00000000 
0000019a l       .debug_str	00000000 
000001a3 l       .debug_str	00000000 
000001ad l       .debug_str	00000000 
000001b4 l       .debug_str	00000000 
000001ba l       .debug_str	00000000 
000001c0 l       .debug_str	00000000 
000001c2 l       .debug_str	00000000 
00000257 l       .debug_str	00000000 
00000263 l       .debug_str	00000000 
0000026a l       .debug_str	00000000 
0000026e l       .debug_str	00000000 
00000273 l       .debug_str	00000000 
00000278 l       .debug_str	00000000 
0000027c l       .debug_str	00000000 
0000028a l       .debug_str	00000000 
00000324 l       .debug_str	00000000 
00000335 l       .debug_str	00000000 
00000000 l    d  .text._ZN101_$LT$core..ops..range..RangeTo$LT$usize$GT$$u20$as$u20$core..slice..SliceIndex$LT$$u5b$T$u5d$$GT$$GT$5index17h028ea9306c0932cdE	00000000 .text._ZN101_$LT$core..ops..range..RangeTo$LT$usize$GT$$u20$as$u20$core..slice..SliceIndex$LT$$u5b$T$u5d$$GT$$GT$5index17h028ea9306c0932cdE
00000000 l    d  .text._ZN4core4iter5range101_$LT$impl$u20$core..iter..traits..iterator..Iterator$u20$for$u20$core..ops..range..Range$LT$A$GT$$GT$4next17hf290b57c570fbe7bE	00000000 .text._ZN4core4iter5range101_$LT$impl$u20$core..iter..traits..iterator..Iterator$u20$for$u20$core..ops..range..Range$LT$A$GT$$GT$4next17hf290b57c570fbe7bE
00000000 l    d  .text._ZN4core4iter5range101_$LT$impl$u20$core..iter..traits..iterator..Iterator$u20$for$u20$core..ops..range..Range$LT$A$GT$$GT$9size_hint17h71914ad02175f177E	00000000 .text._ZN4core4iter5range101_$LT$impl$u20$core..iter..traits..iterator..Iterator$u20$for$u20$core..ops..range..Range$LT$A$GT$$GT$9size_hint17h71914ad02175f177E
00000000 l    d  .text._ZN4core4iter5range116_$LT$impl$u20$core..iter..traits..double_ended..DoubleEndedIterator$u20$for$u20$core..ops..range..Range$LT$A$GT$$GT$9next_back17h52d12f9f58f27a16E	00000000 .text._ZN4core4iter5range116_$LT$impl$u20$core..iter..traits..double_ended..DoubleEndedIterator$u20$for$u20$core..ops..range..Range$LT$A$GT$$GT$9next_back17h52d12f9f58f27a16E
00000000 l    d  .debug_abbrev	00000000 .debug_abbrev
00000000 l    d  .debug_info	00000000 .debug_info
00000000 l    d  .debug_ranges	00000000 .debug_ranges
00000000 l    d  .debug_frame	00000000 .debug_frame
00000000 l    d  .debug_line	00000000 .debug_line
00000000 g     F .text._ZN101_$LT$core..ops..range..RangeTo$LT$usize$GT$$u20$as$u20$core..slice..SliceIndex$LT$$u5b$T$u5d$$GT$$GT$5index17h028ea9306c0932cdE	00000046 _ZN101_$LT$core..ops..range..RangeTo$LT$usize$GT$$u20$as$u20$core..slice..SliceIndex$LT$$u5b$T$u5d$$GT$$GT$5index17h028ea9306c0932cdE
00000000         *UND*	00000000 .hidden _ZN49_$LT$usize$u20$as$u20$core..iter..range..Step$GT$13steps_between17h890400c9aab17c8aE
00000000         *UND*	00000000 .hidden _ZN49_$LT$usize$u20$as$u20$core..iter..range..Step$GT$7sub_one17hc50309bcf04fe07eE
00000000         *UND*	00000000 .hidden _ZN49_$LT$usize$u20$as$u20$core..iter..range..Step$GT$9add_usize17h32c1a16737a51327E
00000000         *UND*	00000000 .hidden _ZN4core3cmp5impls57_$LT$impl$u20$core..cmp..PartialOrd$u20$for$u20$usize$GT$2lt17ha4f715bf1b969d3eE
00000000         *UND*	00000000 _ZN4core3mem4swap17hb484fae726ea8945E
00000000 g     F .text._ZN4core4iter5range101_$LT$impl$u20$core..iter..traits..iterator..Iterator$u20$for$u20$core..ops..range..Range$LT$A$GT$$GT$4next17hf290b57c570fbe7bE	0000009a _ZN4core4iter5range101_$LT$impl$u20$core..iter..traits..iterator..Iterator$u20$for$u20$core..ops..range..Range$LT$A$GT$$GT$4next17hf290b57c570fbe7bE
00000000 g     F .text._ZN4core4iter5range101_$LT$impl$u20$core..iter..traits..iterator..Iterator$u20$for$u20$core..ops..range..Range$LT$A$GT$$GT$9size_hint17h71914ad02175f177E	00000066 _ZN4core4iter5range101_$LT$impl$u20$core..iter..traits..iterator..Iterator$u20$for$u20$core..ops..range..Range$LT$A$GT$$GT$9size_hint17h71914ad02175f177E
00000000 g     F .text._ZN4core4iter5range116_$LT$impl$u20$core..iter..traits..double_ended..DoubleEndedIterator$u20$for$u20$core..ops..range..Range$LT$A$GT$$GT$9next_back17h52d12f9f58f27a16E	0000005a _ZN4core4iter5range116_$LT$impl$u20$core..iter..traits..double_ended..DoubleEndedIterator$u20$for$u20$core..ops..range..Range$LT$A$GT$$GT$9next_back17h52d12f9f58f27a16E
00000000         *UND*	00000000 .hidden _ZN4core5clone5impls54_$LT$impl$u20$core..clone..Clone$u20$for$u20$usize$GT$5clone17h4b80b75fb82a9f47E
00000000         *UND*	00000000 _ZN99_$LT$core..ops..range..Range$LT$usize$GT$$u20$as$u20$core..slice..SliceIndex$LT$$u5b$T$u5d$$GT$$GT$5index17hebce8ce8ee9eefe0E



Disassembly of section .text._ZN101_$LT$core..ops..range..RangeTo$LT$usize$GT$$u20$as$u20$core..slice..SliceIndex$LT$$u5b$T$u5d$$GT$$GT$5index17h028ea9306c0932cdE:

00000000 <_ZN101_$LT$core..ops..range..RangeTo$LT$usize$GT$$u20$as$u20$core..slice..SliceIndex$LT$$u5b$T$u5d$$GT$$GT$5index17h028ea9306c0932cdE>:
_ZN101_$LT$core..ops..range..RangeTo$LT$usize$GT$$u20$as$u20$core..slice..SliceIndex$LT$$u5b$T$u5d$$GT$$GT$5index17h028ea9306c0932cdE():
/rustc/50a0defd5a93523067ef239936cc2e0755220904/src/libcore/slice/mod.rs:2791
   0:	b510      	push	{r4, lr}
   2:	b08c      	sub	sp, #48	; 0x30
   4:	4613      	mov	r3, r2
   6:	468c      	mov	ip, r1
   8:	4686      	mov	lr, r0
   a:	9007      	str	r0, [sp, #28]
   c:	9108      	str	r1, [sp, #32]
   e:	9209      	str	r2, [sp, #36]	; 0x24
/rustc/50a0defd5a93523067ef239936cc2e0755220904/src/libcore/slice/mod.rs:2792
  10:	9807      	ldr	r0, [sp, #28]
  12:	2100      	movs	r1, #0
  14:	910a      	str	r1, [sp, #40]	; 0x28
  16:	900b      	str	r0, [sp, #44]	; 0x2c
  18:	9a08      	ldr	r2, [sp, #32]
  1a:	9809      	ldr	r0, [sp, #36]	; 0x24
  1c:	990a      	ldr	r1, [sp, #40]	; 0x28
  1e:	9c0b      	ldr	r4, [sp, #44]	; 0x2c
  20:	9006      	str	r0, [sp, #24]
  22:	4608      	mov	r0, r1
  24:	4621      	mov	r1, r4
  26:	9c06      	ldr	r4, [sp, #24]
  28:	9305      	str	r3, [sp, #20]
  2a:	4623      	mov	r3, r4
  2c:	f8cd c010 	str.w	ip, [sp, #16]
  30:	f8cd e00c 	str.w	lr, [sp, #12]
  34:	f7ff fffe 	bl	0 <_ZN99_$LT$core..ops..range..Range$LT$usize$GT$$u20$as$u20$core..slice..SliceIndex$LT$$u5b$T$u5d$$GT$$GT$5index17hebce8ce8ee9eefe0E>
  38:	9002      	str	r0, [sp, #8]
  3a:	9101      	str	r1, [sp, #4]
  3c:	e7ff      	b.n	3e <_ZN101_$LT$core..ops..range..RangeTo$LT$usize$GT$$u20$as$u20$core..slice..SliceIndex$LT$$u5b$T$u5d$$GT$$GT$5index17h028ea9306c0932cdE+0x3e>
/rustc/50a0defd5a93523067ef239936cc2e0755220904/src/libcore/slice/mod.rs:2793
  3e:	9802      	ldr	r0, [sp, #8]
  40:	9901      	ldr	r1, [sp, #4]
  42:	b00c      	add	sp, #48	; 0x30
  44:	bd10      	pop	{r4, pc}

Disassembly of section .text._ZN4core4iter5range101_$LT$impl$u20$core..iter..traits..iterator..Iterator$u20$for$u20$core..ops..range..Range$LT$A$GT$$GT$4next17hf290b57c570fbe7bE:

00000000 <_ZN4core4iter5range101_$LT$impl$u20$core..iter..traits..iterator..Iterator$u20$for$u20$core..ops..range..Range$LT$A$GT$$GT$4next17hf290b57c570fbe7bE>:
_ZN4core4iter5range101_$LT$impl$u20$core..iter..traits..iterator..Iterator$u20$for$u20$core..ops..range..Range$LT$A$GT$$GT$4next17hf290b57c570fbe7bE():
/rustc/50a0defd5a93523067ef239936cc2e0755220904/src/libcore/iter/range.rs:170
   0:	b580      	push	{r7, lr}
   2:	b08a      	sub	sp, #40	; 0x28
   4:	4601      	mov	r1, r0
   6:	9003      	str	r0, [sp, #12]
   8:	2000      	movs	r0, #0
/rustc/50a0defd5a93523067ef239936cc2e0755220904/src/libcore/iter/range.rs:171
   a:	f88d 0027 	strb.w	r0, [sp, #39]	; 0x27
   e:	9803      	ldr	r0, [sp, #12]
  10:	1d02      	adds	r2, r0, #4
  12:	9102      	str	r1, [sp, #8]
  14:	4611      	mov	r1, r2
  16:	f7ff fffe 	bl	0 <_ZN4core3cmp5impls57_$LT$impl$u20$core..cmp..PartialOrd$u20$for$u20$usize$GT$2lt17ha4f715bf1b969d3eE>
  1a:	9001      	str	r0, [sp, #4]
  1c:	e7ff      	b.n	1e <_ZN4core4iter5range101_$LT$impl$u20$core..iter..traits..iterator..Iterator$u20$for$u20$core..ops..range..Range$LT$A$GT$$GT$4next17hf290b57c570fbe7bE+0x1e>
  1e:	9801      	ldr	r0, [sp, #4]
  20:	07c1      	lsls	r1, r0, #31
  22:	2900      	cmp	r1, #0
  24:	d023      	beq.n	6e <_ZN4core4iter5range101_$LT$impl$u20$core..iter..traits..iterator..Iterator$u20$for$u20$core..ops..range..Range$LT$A$GT$$GT$4next17hf290b57c570fbe7bE+0x6e>
  26:	e7ff      	b.n	28 <_ZN4core4iter5range101_$LT$impl$u20$core..iter..traits..iterator..Iterator$u20$for$u20$core..ops..range..Range$LT$A$GT$$GT$4next17hf290b57c570fbe7bE+0x28>
/rustc/50a0defd5a93523067ef239936cc2e0755220904/src/libcore/iter/range.rs:176
  28:	9803      	ldr	r0, [sp, #12]
  2a:	2101      	movs	r1, #1
  2c:	f88d 1027 	strb.w	r1, [sp, #39]	; 0x27
  30:	f7ff fffe 	bl	0 <_ZN49_$LT$usize$u20$as$u20$core..iter..range..Step$GT$9add_usize17h32c1a16737a51327E>
  34:	9107      	str	r1, [sp, #28]
  36:	9006      	str	r0, [sp, #24]
  38:	e7ff      	b.n	3a <_ZN4core4iter5range101_$LT$impl$u20$core..iter..traits..iterator..Iterator$u20$for$u20$core..ops..range..Range$LT$A$GT$$GT$4next17hf290b57c570fbe7bE+0x3a>
  3a:	9806      	ldr	r0, [sp, #24]
  3c:	2801      	cmp	r0, #1
  3e:	d10f      	bne.n	60 <_ZN4core4iter5range101_$LT$impl$u20$core..iter..traits..iterator..Iterator$u20$for$u20$core..ops..range..Range$LT$A$GT$$GT$4next17hf290b57c570fbe7bE+0x60>
  40:	e7ff      	b.n	42 <_ZN4core4iter5range101_$LT$impl$u20$core..iter..traits..iterator..Iterator$u20$for$u20$core..ops..range..Range$LT$A$GT$$GT$4next17hf290b57c570fbe7bE+0x42>
  42:	2000      	movs	r0, #0
  44:	f88d 0027 	strb.w	r0, [sp, #39]	; 0x27
  48:	9807      	ldr	r0, [sp, #28]
  4a:	9008      	str	r0, [sp, #32]
/rustc/50a0defd5a93523067ef239936cc2e0755220904/src/libcore/iter/range.rs:177
  4c:	9903      	ldr	r1, [sp, #12]
  4e:	a808      	add	r0, sp, #32
  50:	f7ff fffe 	bl	0 <_ZN4core3mem4swap17hb484fae726ea8945E>
  54:	e7ff      	b.n	56 <_ZN4core4iter5range101_$LT$impl$u20$core..iter..traits..iterator..Iterator$u20$for$u20$core..ops..range..Range$LT$A$GT$$GT$4next17hf290b57c570fbe7bE+0x56>
/rustc/50a0defd5a93523067ef239936cc2e0755220904/src/libcore/iter/range.rs:178
  56:	9808      	ldr	r0, [sp, #32]
  58:	9005      	str	r0, [sp, #20]
  5a:	2001      	movs	r0, #1
  5c:	9004      	str	r0, [sp, #16]
/rustc/50a0defd5a93523067ef239936cc2e0755220904/src/libcore/iter/range.rs:176
  5e:	e002      	b.n	66 <_ZN4core4iter5range101_$LT$impl$u20$core..iter..traits..iterator..Iterator$u20$for$u20$core..ops..range..Range$LT$A$GT$$GT$4next17hf290b57c570fbe7bE+0x66>
  60:	2000      	movs	r0, #0
/rustc/50a0defd5a93523067ef239936cc2e0755220904/src/libcore/iter/range.rs:180
  62:	9004      	str	r0, [sp, #16]
/rustc/50a0defd5a93523067ef239936cc2e0755220904/src/libcore/iter/range.rs:176
  64:	e7ff      	b.n	66 <_ZN4core4iter5range101_$LT$impl$u20$core..iter..traits..iterator..Iterator$u20$for$u20$core..ops..range..Range$LT$A$GT$$GT$4next17hf290b57c570fbe7bE+0x66>
/rustc/50a0defd5a93523067ef239936cc2e0755220904/src/libcore/iter/range.rs:182
  66:	9806      	ldr	r0, [sp, #24]
  68:	2801      	cmp	r0, #1
  6a:	d00b      	beq.n	84 <_ZN4core4iter5range101_$LT$impl$u20$core..iter..traits..iterator..Iterator$u20$for$u20$core..ops..range..Range$LT$A$GT$$GT$4next17hf290b57c570fbe7bE+0x84>
  6c:	e014      	b.n	98 <_ZN4core4iter5range101_$LT$impl$u20$core..iter..traits..iterator..Iterator$u20$for$u20$core..ops..range..Range$LT$A$GT$$GT$4next17hf290b57c570fbe7bE+0x98>
  6e:	2000      	movs	r0, #0
/rustc/50a0defd5a93523067ef239936cc2e0755220904/src/libcore/iter/range.rs:183
  70:	9004      	str	r0, [sp, #16]
/rustc/50a0defd5a93523067ef239936cc2e0755220904/src/libcore/iter/range.rs:171
  72:	e7ff      	b.n	74 <_ZN4core4iter5range101_$LT$impl$u20$core..iter..traits..iterator..Iterator$u20$for$u20$core..ops..range..Range$LT$A$GT$$GT$4next17hf290b57c570fbe7bE+0x74>
/rustc/50a0defd5a93523067ef239936cc2e0755220904/src/libcore/iter/range.rs:185
  74:	9804      	ldr	r0, [sp, #16]
  76:	9905      	ldr	r1, [sp, #20]
  78:	b00a      	add	sp, #40	; 0x28
  7a:	bd80      	pop	{r7, pc}
  7c:	2000      	movs	r0, #0
/rustc/50a0defd5a93523067ef239936cc2e0755220904/src/libcore/iter/range.rs:182
  7e:	f88d 0027 	strb.w	r0, [sp, #39]	; 0x27
/rustc/50a0defd5a93523067ef239936cc2e0755220904/src/libcore/iter/range.rs:171
  82:	e7f7      	b.n	74 <_ZN4core4iter5range101_$LT$impl$u20$core..iter..traits..iterator..Iterator$u20$for$u20$core..ops..range..Range$LT$A$GT$$GT$4next17hf290b57c570fbe7bE+0x74>
/rustc/50a0defd5a93523067ef239936cc2e0755220904/src/libcore/iter/range.rs:182
  84:	f89d 0027 	ldrb.w	r0, [sp, #39]	; 0x27
  88:	07c0      	lsls	r0, r0, #31
  8a:	2800      	cmp	r0, #0
  8c:	d0f6      	beq.n	7c <_ZN4core4iter5range101_$LT$impl$u20$core..iter..traits..iterator..Iterator$u20$for$u20$core..ops..range..Range$LT$A$GT$$GT$4next17hf290b57c570fbe7bE+0x7c>
  8e:	e7ff      	b.n	90 <_ZN4core4iter5range101_$LT$impl$u20$core..iter..traits..iterator..Iterator$u20$for$u20$core..ops..range..Range$LT$A$GT$$GT$4next17hf290b57c570fbe7bE+0x90>
  90:	2000      	movs	r0, #0
  92:	f88d 0027 	strb.w	r0, [sp, #39]	; 0x27
  96:	e7f1      	b.n	7c <_ZN4core4iter5range101_$LT$impl$u20$core..iter..traits..iterator..Iterator$u20$for$u20$core..ops..range..Range$LT$A$GT$$GT$4next17hf290b57c570fbe7bE+0x7c>
  98:	e7f0      	b.n	7c <_ZN4core4iter5range101_$LT$impl$u20$core..iter..traits..iterator..Iterator$u20$for$u20$core..ops..range..Range$LT$A$GT$$GT$4next17hf290b57c570fbe7bE+0x7c>

Disassembly of section .text._ZN4core4iter5range101_$LT$impl$u20$core..iter..traits..iterator..Iterator$u20$for$u20$core..ops..range..Range$LT$A$GT$$GT$9size_hint17h71914ad02175f177E:

00000000 <_ZN4core4iter5range101_$LT$impl$u20$core..iter..traits..iterator..Iterator$u20$for$u20$core..ops..range..Range$LT$A$GT$$GT$9size_hint17h71914ad02175f177E>:
_ZN4core4iter5range101_$LT$impl$u20$core..iter..traits..iterator..Iterator$u20$for$u20$core..ops..range..Range$LT$A$GT$$GT$9size_hint17h71914ad02175f177E():
/rustc/50a0defd5a93523067ef239936cc2e0755220904/src/libcore/iter/range.rs:188
   0:	b580      	push	{r7, lr}
   2:	b08c      	sub	sp, #48	; 0x30
   4:	460a      	mov	r2, r1
   6:	9104      	str	r1, [sp, #16]
/rustc/50a0defd5a93523067ef239936cc2e0755220904/src/libcore/iter/range.rs:189
   8:	9904      	ldr	r1, [sp, #16]
   a:	1d0b      	adds	r3, r1, #4
   c:	9003      	str	r0, [sp, #12]
   e:	4608      	mov	r0, r1
  10:	4619      	mov	r1, r3
  12:	9202      	str	r2, [sp, #8]
  14:	f7ff fffe 	bl	0 <_ZN49_$LT$usize$u20$as$u20$core..iter..range..Step$GT$13steps_between17h890400c9aab17c8aE>
  18:	9106      	str	r1, [sp, #24]
  1a:	9005      	str	r0, [sp, #20]
  1c:	e7ff      	b.n	1e <_ZN4core4iter5range101_$LT$impl$u20$core..iter..traits..iterator..Iterator$u20$for$u20$core..ops..range..Range$LT$A$GT$$GT$9size_hint17h71914ad02175f177E+0x1e>
/rustc/50a0defd5a93523067ef239936cc2e0755220904/src/libcore/iter/range.rs:190
  1e:	9805      	ldr	r0, [sp, #20]
  20:	2800      	cmp	r0, #0
  22:	9001      	str	r0, [sp, #4]
  24:	d012      	beq.n	4c <_ZN4core4iter5range101_$LT$impl$u20$core..iter..traits..iterator..Iterator$u20$for$u20$core..ops..range..Range$LT$A$GT$$GT$9size_hint17h71914ad02175f177E+0x4c>
  26:	e7ff      	b.n	28 <_ZN4core4iter5range101_$LT$impl$u20$core..iter..traits..iterator..Iterator$u20$for$u20$core..ops..range..Range$LT$A$GT$$GT$9size_hint17h71914ad02175f177E+0x28>
  28:	9801      	ldr	r0, [sp, #4]
  2a:	2801      	cmp	r0, #1
  2c:	d001      	beq.n	32 <_ZN4core4iter5range101_$LT$impl$u20$core..iter..traits..iterator..Iterator$u20$for$u20$core..ops..range..Range$LT$A$GT$$GT$9size_hint17h71914ad02175f177E+0x32>
  2e:	e7ff      	b.n	30 <_ZN4core4iter5range101_$LT$impl$u20$core..iter..traits..iterator..Iterator$u20$for$u20$core..ops..range..Range$LT$A$GT$$GT$9size_hint17h71914ad02175f177E+0x30>
/rustc/50a0defd5a93523067ef239936cc2e0755220904/src/libcore/iter/range.rs:193
  30:	defe      	udf	#254	; 0xfe
/rustc/50a0defd5a93523067ef239936cc2e0755220904/src/libcore/iter/range.rs:190
  32:	9806      	ldr	r0, [sp, #24]
  34:	9007      	str	r0, [sp, #28]
  36:	9807      	ldr	r0, [sp, #28]
  38:	9009      	str	r0, [sp, #36]	; 0x24
  3a:	2101      	movs	r1, #1
  3c:	9108      	str	r1, [sp, #32]
  3e:	9903      	ldr	r1, [sp, #12]
  40:	6008      	str	r0, [r1, #0]
  42:	9808      	ldr	r0, [sp, #32]
  44:	9a09      	ldr	r2, [sp, #36]	; 0x24
  46:	6048      	str	r0, [r1, #4]
  48:	608a      	str	r2, [r1, #8]
/rustc/50a0defd5a93523067ef239936cc2e0755220904/src/libcore/iter/range.rs:189
  4a:	e00a      	b.n	62 <_ZN4core4iter5range101_$LT$impl$u20$core..iter..traits..iterator..Iterator$u20$for$u20$core..ops..range..Range$LT$A$GT$$GT$9size_hint17h71914ad02175f177E+0x62>
  4c:	2000      	movs	r0, #0
/rustc/50a0defd5a93523067ef239936cc2e0755220904/src/libcore/iter/range.rs:191
  4e:	900a      	str	r0, [sp, #40]	; 0x28
  50:	f04f 30ff 	mov.w	r0, #4294967295	; 0xffffffff
  54:	9903      	ldr	r1, [sp, #12]
  56:	6008      	str	r0, [r1, #0]
  58:	980a      	ldr	r0, [sp, #40]	; 0x28
  5a:	9a0b      	ldr	r2, [sp, #44]	; 0x2c
  5c:	6048      	str	r0, [r1, #4]
  5e:	608a      	str	r2, [r1, #8]
/rustc/50a0defd5a93523067ef239936cc2e0755220904/src/libcore/iter/range.rs:189
  60:	e7ff      	b.n	62 <_ZN4core4iter5range101_$LT$impl$u20$core..iter..traits..iterator..Iterator$u20$for$u20$core..ops..range..Range$LT$A$GT$$GT$9size_hint17h71914ad02175f177E+0x62>
/rustc/50a0defd5a93523067ef239936cc2e0755220904/src/libcore/iter/range.rs:193
  62:	b00c      	add	sp, #48	; 0x30
  64:	bd80      	pop	{r7, pc}

Disassembly of section .text._ZN4core4iter5range116_$LT$impl$u20$core..iter..traits..double_ended..DoubleEndedIterator$u20$for$u20$core..ops..range..Range$LT$A$GT$$GT$9next_back17h52d12f9f58f27a16E:

00000000 <_ZN4core4iter5range116_$LT$impl$u20$core..iter..traits..double_ended..DoubleEndedIterator$u20$for$u20$core..ops..range..Range$LT$A$GT$$GT$9next_back17h52d12f9f58f27a16E>:
_ZN4core4iter5range116_$LT$impl$u20$core..iter..traits..double_ended..DoubleEndedIterator$u20$for$u20$core..ops..range..Range$LT$A$GT$$GT$9next_back17h52d12f9f58f27a16E():
/rustc/50a0defd5a93523067ef239936cc2e0755220904/src/libcore/iter/range.rs:241
   0:	b580      	push	{r7, lr}
   2:	b088      	sub	sp, #32
   4:	4601      	mov	r1, r0
   6:	9004      	str	r0, [sp, #16]
/rustc/50a0defd5a93523067ef239936cc2e0755220904/src/libcore/iter/range.rs:242
   8:	9804      	ldr	r0, [sp, #16]
   a:	1d02      	adds	r2, r0, #4
   c:	9103      	str	r1, [sp, #12]
   e:	4611      	mov	r1, r2
  10:	f7ff fffe 	bl	0 <_ZN4core3cmp5impls57_$LT$impl$u20$core..cmp..PartialOrd$u20$for$u20$usize$GT$2lt17ha4f715bf1b969d3eE>
  14:	9002      	str	r0, [sp, #8]
  16:	e7ff      	b.n	18 <_ZN4core4iter5range116_$LT$impl$u20$core..iter..traits..double_ended..DoubleEndedIterator$u20$for$u20$core..ops..range..Range$LT$A$GT$$GT$9next_back17h52d12f9f58f27a16E+0x18>
  18:	9802      	ldr	r0, [sp, #8]
  1a:	07c1      	lsls	r1, r0, #31
  1c:	2900      	cmp	r1, #0
  1e:	d00c      	beq.n	3a <_ZN4core4iter5range116_$LT$impl$u20$core..iter..traits..double_ended..DoubleEndedIterator$u20$for$u20$core..ops..range..Range$LT$A$GT$$GT$9next_back17h52d12f9f58f27a16E+0x3a>
  20:	e7ff      	b.n	22 <_ZN4core4iter5range116_$LT$impl$u20$core..iter..traits..double_ended..DoubleEndedIterator$u20$for$u20$core..ops..range..Range$LT$A$GT$$GT$9next_back17h52d12f9f58f27a16E+0x22>
/rustc/50a0defd5a93523067ef239936cc2e0755220904/src/libcore/iter/range.rs:243
  22:	9804      	ldr	r0, [sp, #16]
  24:	3004      	adds	r0, #4
  26:	f7ff fffe 	bl	0 <_ZN49_$LT$usize$u20$as$u20$core..iter..range..Step$GT$7sub_one17hc50309bcf04fe07eE>
  2a:	9001      	str	r0, [sp, #4]
  2c:	e7ff      	b.n	2e <_ZN4core4iter5range116_$LT$impl$u20$core..iter..traits..double_ended..DoubleEndedIterator$u20$for$u20$core..ops..range..Range$LT$A$GT$$GT$9next_back17h52d12f9f58f27a16E+0x2e>
  2e:	e00b      	b.n	48 <_ZN4core4iter5range116_$LT$impl$u20$core..iter..traits..double_ended..DoubleEndedIterator$u20$for$u20$core..ops..range..Range$LT$A$GT$$GT$9next_back17h52d12f9f58f27a16E+0x48>
/rustc/50a0defd5a93523067ef239936cc2e0755220904/src/libcore/iter/range.rs:244
  30:	9807      	ldr	r0, [sp, #28]
  32:	9006      	str	r0, [sp, #24]
  34:	2001      	movs	r0, #1
  36:	9005      	str	r0, [sp, #20]
/rustc/50a0defd5a93523067ef239936cc2e0755220904/src/libcore/iter/range.rs:242
  38:	e002      	b.n	40 <_ZN4core4iter5range116_$LT$impl$u20$core..iter..traits..double_ended..DoubleEndedIterator$u20$for$u20$core..ops..range..Range$LT$A$GT$$GT$9next_back17h52d12f9f58f27a16E+0x40>
  3a:	2000      	movs	r0, #0
/rustc/50a0defd5a93523067ef239936cc2e0755220904/src/libcore/iter/range.rs:246
  3c:	9005      	str	r0, [sp, #20]
/rustc/50a0defd5a93523067ef239936cc2e0755220904/src/libcore/iter/range.rs:242
  3e:	e7ff      	b.n	40 <_ZN4core4iter5range116_$LT$impl$u20$core..iter..traits..double_ended..DoubleEndedIterator$u20$for$u20$core..ops..range..Range$LT$A$GT$$GT$9next_back17h52d12f9f58f27a16E+0x40>
/rustc/50a0defd5a93523067ef239936cc2e0755220904/src/libcore/iter/range.rs:248
  40:	9805      	ldr	r0, [sp, #20]
  42:	9906      	ldr	r1, [sp, #24]
  44:	b008      	add	sp, #32
  46:	bd80      	pop	{r7, pc}
/rustc/50a0defd5a93523067ef239936cc2e0755220904/src/libcore/iter/range.rs:243
  48:	9804      	ldr	r0, [sp, #16]
  4a:	9901      	ldr	r1, [sp, #4]
  4c:	6041      	str	r1, [r0, #4]
/rustc/50a0defd5a93523067ef239936cc2e0755220904/src/libcore/iter/range.rs:244
  4e:	9804      	ldr	r0, [sp, #16]
  50:	3004      	adds	r0, #4
  52:	f7ff fffe 	bl	0 <_ZN4core5clone5impls54_$LT$impl$u20$core..clone..Clone$u20$for$u20$usize$GT$5clone17h4b80b75fb82a9f47E>
  56:	9007      	str	r0, [sp, #28]
  58:	e7ea      	b.n	30 <_ZN4core4iter5range116_$LT$impl$u20$core..iter..traits..double_ended..DoubleEndedIterator$u20$for$u20$core..ops..range..Range$LT$A$GT$$GT$9next_back17h52d12f9f58f27a16E+0x30>

cstr_core-002f35632daba805.cstr_core.4br1pvmw-cgu.6.rcgu.o:     file format elf32-littlearm

SYMBOL TABLE:
00000000 l    df *ABS*	00000000 cstr_core.4br1pvmw-cgu.6
0000047c l       .debug_str	00000000 
00000307 l       .debug_str	00000000 
00000399 l       .debug_str	00000000 
000003dd l       .debug_str	00000000 
000003e8 l       .debug_str	00000000 
000004dc l       .debug_str	00000000 
0000058e l       .debug_str	00000000 
000005f5 l       .debug_str	00000000 
00000646 l       .debug_str	00000000 
00000689 l       .debug_str	00000000 
000006dc l       .debug_str	00000000 
0000073b l       .debug_str	00000000 
0000079e l       .debug_str	00000000 
00000811 l       .debug_str	00000000 
00000816 l       .debug_str	00000000 
00000883 l       .debug_str	00000000 
00000911 l       .debug_str	00000000 
00000936 l       .debug_str	00000000 
0000093a l       .debug_str	00000000 
00000000 l       .debug_str	00000000 
00000041 l       .debug_str	00000000 
00000099 l       .debug_str	00000000 
000000e6 l       .debug_str	00000000 
000000eb l       .debug_str	00000000 
000000f0 l       .debug_str	00000000 
000000f9 l       .debug_str	00000000 
00000101 l       .debug_str	00000000 
0000010a l       .debug_str	00000000 
0000010f l       .debug_str	00000000 
00000115 l       .debug_str	00000000 
0000011b l       .debug_str	00000000 
0000011f l       .debug_str	00000000 
00000122 l       .debug_str	00000000 
0000012c l       .debug_str	00000000 
00000130 l       .debug_str	00000000 
00000138 l       .debug_str	00000000 
0000013f l       .debug_str	00000000 
00000143 l       .debug_str	00000000 
00000145 l       .debug_str	00000000 
00000156 l       .debug_str	00000000 
0000015f l       .debug_str	00000000 
00000161 l       .debug_str	00000000 
00000169 l       .debug_str	00000000 
0000016b l       .debug_str	00000000 
0000016d l       .debug_str	00000000 
00000191 l       .debug_str	00000000 
0000019b l       .debug_str	00000000 
000001a2 l       .debug_str	00000000 
000001a6 l       .debug_str	00000000 
000001ab l       .debug_str	00000000 
000001b5 l       .debug_str	00000000 
000001bb l       .debug_str	00000000 
000001c1 l       .debug_str	00000000 
000001c5 l       .debug_str	00000000 
000001cb l       .debug_str	00000000 
000001d1 l       .debug_str	00000000 
000001d5 l       .debug_str	00000000 
000001e2 l       .debug_str	00000000 
000001e7 l       .debug_str	00000000 
000001fb l       .debug_str	00000000 
00000209 l       .debug_str	00000000 
0000020e l       .debug_str	00000000 
00000212 l       .debug_str	00000000 
0000023a l       .debug_str	00000000 
00000243 l       .debug_str	00000000 
00000245 l       .debug_str	00000000 
000002af l       .debug_str	00000000 
000002f8 l       .debug_str	00000000 
000002ff l       .debug_str	00000000 
00000000 l    d  .text._ZN114_$LT$core..iter..adapters..flatten..FlatMap$LT$I$C$U$C$F$GT$$u20$as$u20$core..iter..traits..iterator..Iterator$GT$4next17h63f09418751ec355E	00000000 .text._ZN114_$LT$core..iter..adapters..flatten..FlatMap$LT$I$C$U$C$F$GT$$u20$as$u20$core..iter..traits..iterator..Iterator$GT$4next17h63f09418751ec355E
00000000 l    d  .text._ZN116_$LT$core..iter..adapters..flatten..FlattenCompat$LT$I$C$U$GT$$u20$as$u20$core..iter..traits..iterator..Iterator$GT$4next17h1b1eb60cfab7e31eE	00000000 .text._ZN116_$LT$core..iter..adapters..flatten..FlattenCompat$LT$I$C$U$GT$$u20$as$u20$core..iter..traits..iterator..Iterator$GT$4next17h1b1eb60cfab7e31eE
00000000 l    d  .text._ZN116_$LT$core..iter..adapters..flatten..FlattenCompat$LT$I$C$U$GT$$u20$as$u20$core..iter..traits..iterator..Iterator$GT$4next28_$u7b$$u7b$closure$u7d$$u7d$17h7ef863f15aca5192E	00000000 .text._ZN116_$LT$core..iter..adapters..flatten..FlattenCompat$LT$I$C$U$GT$$u20$as$u20$core..iter..traits..iterator..Iterator$GT$4next28_$u7b$$u7b$closure$u7d$$u7d$17h7ef863f15aca5192E
00000000 l    d  .text._ZN4core4iter8adapters7flatten24FlatMap$LT$I$C$U$C$F$GT$3new17h468568bb2189164dE	00000000 .text._ZN4core4iter8adapters7flatten24FlatMap$LT$I$C$U$C$F$GT$3new17h468568bb2189164dE
00000000 l    d  .text._ZN4core4iter8adapters7flatten26FlattenCompat$LT$I$C$U$GT$3new17h22626c7245fa105cE	00000000 .text._ZN4core4iter8adapters7flatten26FlattenCompat$LT$I$C$U$GT$3new17h22626c7245fa105cE
00000000 l    d  .text._ZN63_$LT$I$u20$as$u20$core..iter..traits..collect..IntoIterator$GT$9into_iter17h4cd02ec9a3789ba9E	00000000 .text._ZN63_$LT$I$u20$as$u20$core..iter..traits..collect..IntoIterator$GT$9into_iter17h4cd02ec9a3789ba9E
00000000 l    d  .debug_loc	00000000 .debug_loc
00000000 l    d  .debug_abbrev	00000000 .debug_abbrev
00000000 l    d  .debug_info	00000000 .debug_info
00000000 l    d  .debug_ranges	00000000 .debug_ranges
00000000 l    d  .debug_frame	00000000 .debug_frame
00000000 l    d  .debug_line	00000000 .debug_line
00000000 g     F .text._ZN114_$LT$core..iter..adapters..flatten..FlatMap$LT$I$C$U$C$F$GT$$u20$as$u20$core..iter..traits..iterator..Iterator$GT$4next17h63f09418751ec355E	00000022 _ZN114_$LT$core..iter..adapters..flatten..FlatMap$LT$I$C$U$C$F$GT$$u20$as$u20$core..iter..traits..iterator..Iterator$GT$4next17h63f09418751ec355E
00000000 g     F .text._ZN116_$LT$core..iter..adapters..flatten..FlattenCompat$LT$I$C$U$GT$$u20$as$u20$core..iter..traits..iterator..Iterator$GT$4next17h1b1eb60cfab7e31eE	000000fe _ZN116_$LT$core..iter..adapters..flatten..FlattenCompat$LT$I$C$U$GT$$u20$as$u20$core..iter..traits..iterator..Iterator$GT$4next17h1b1eb60cfab7e31eE
00000000 g     F .text._ZN116_$LT$core..iter..adapters..flatten..FlattenCompat$LT$I$C$U$GT$$u20$as$u20$core..iter..traits..iterator..Iterator$GT$4next28_$u7b$$u7b$closure$u7d$$u7d$17h7ef863f15aca5192E	00000022 _ZN116_$LT$core..iter..adapters..flatten..FlattenCompat$LT$I$C$U$GT$$u20$as$u20$core..iter..traits..iterator..Iterator$GT$4next28_$u7b$$u7b$closure$u7d$$u7d$17h7ef863f15aca5192E
00000000         *UND*	00000000 _ZN4core4iter6traits8iterator8Iterator3map17h4161af8580973d37E
00000000 g     F .text._ZN4core4iter8adapters7flatten24FlatMap$LT$I$C$U$C$F$GT$3new17h468568bb2189164dE	0000004a _ZN4core4iter8adapters7flatten24FlatMap$LT$I$C$U$C$F$GT$3new17h468568bb2189164dE
00000000 g     F .text._ZN4core4iter8adapters7flatten26FlattenCompat$LT$I$C$U$GT$3new17h22626c7245fa105cE	0000004a _ZN4core4iter8adapters7flatten26FlattenCompat$LT$I$C$U$GT$3new17h22626c7245fa105cE
00000000         *UND*	00000000 _ZN4core6option15Option$LT$T$GT$6as_mut17h5855811a496c7521E
00000000         *UND*	00000000 _ZN4core6option15Option$LT$T$GT$8and_then17h6483672b049980eeE
00000000 g     F .text._ZN63_$LT$I$u20$as$u20$core..iter..traits..collect..IntoIterator$GT$9into_iter17h4cd02ec9a3789ba9E	00000020 _ZN63_$LT$I$u20$as$u20$core..iter..traits..collect..IntoIterator$GT$9into_iter17h4cd02ec9a3789ba9E
00000000         *UND*	00000000 _ZN63_$LT$I$u20$as$u20$core..iter..traits..collect..IntoIterator$GT$9into_iter17ha978ccb939c3fb05E
00000000         *UND*	00000000 _ZN90_$LT$cstr_core..ascii..EscapeDefault$u20$as$u20$core..iter..traits..iterator..Iterator$GT$4next17hd18c9becef56bae4E
00000000         *UND*	00000000 _ZN97_$LT$core..iter..adapters..Map$LT$I$C$F$GT$$u20$as$u20$core..iter..traits..iterator..Iterator$GT$4next17h18e299b4c35438deE



Disassembly of section .text._ZN114_$LT$core..iter..adapters..flatten..FlatMap$LT$I$C$U$C$F$GT$$u20$as$u20$core..iter..traits..iterator..Iterator$GT$4next17h63f09418751ec355E:

00000000 <_ZN114_$LT$core..iter..adapters..flatten..FlatMap$LT$I$C$U$C$F$GT$$u20$as$u20$core..iter..traits..iterator..Iterator$GT$4next17h63f09418751ec355E>:
_ZN114_$LT$core..iter..adapters..flatten..FlatMap$LT$I$C$U$C$F$GT$$u20$as$u20$core..iter..traits..iterator..Iterator$GT$4next17h63f09418751ec355E():
/rustc/50a0defd5a93523067ef239936cc2e0755220904/src/libcore/iter/adapters/flatten.rs:49
   0:	b580      	push	{r7, lr}
   2:	b084      	sub	sp, #16
   4:	4601      	mov	r1, r0
   6:	9003      	str	r0, [sp, #12]
   8:	9803      	ldr	r0, [sp, #12]
   a:	9102      	str	r1, [sp, #8]
   c:	f7ff fffe 	bl	0 <_ZN114_$LT$core..iter..adapters..flatten..FlatMap$LT$I$C$U$C$F$GT$$u20$as$u20$core..iter..traits..iterator..Iterator$GT$4next17h63f09418751ec355E>
  10:	9001      	str	r0, [sp, #4]
  12:	9100      	str	r1, [sp, #0]
  14:	e7ff      	b.n	16 <_ZN114_$LT$core..iter..adapters..flatten..FlatMap$LT$I$C$U$C$F$GT$$u20$as$u20$core..iter..traits..iterator..Iterator$GT$4next17h63f09418751ec355E+0x16>
  16:	9801      	ldr	r0, [sp, #4]
  18:	f000 0001 	and.w	r0, r0, #1
  1c:	9900      	ldr	r1, [sp, #0]
  1e:	b004      	add	sp, #16
  20:	bd80      	pop	{r7, pc}

Disassembly of section .text._ZN116_$LT$core..iter..adapters..flatten..FlattenCompat$LT$I$C$U$GT$$u20$as$u20$core..iter..traits..iterator..Iterator$GT$4next17h1b1eb60cfab7e31eE:

00000000 <_ZN116_$LT$core..iter..adapters..flatten..FlattenCompat$LT$I$C$U$GT$$u20$as$u20$core..iter..traits..iterator..Iterator$GT$4next17h1b1eb60cfab7e31eE>:
_ZN116_$LT$core..iter..adapters..flatten..FlattenCompat$LT$I$C$U$GT$$u20$as$u20$core..iter..traits..iterator..Iterator$GT$4next17h1b1eb60cfab7e31eE():
/rustc/50a0defd5a93523067ef239936cc2e0755220904/src/libcore/iter/adapters/flatten.rs:214
   0:	b580      	push	{r7, lr}
   2:	b09a      	sub	sp, #104	; 0x68
   4:	4601      	mov	r1, r0
   6:	9003      	str	r0, [sp, #12]
   8:	9102      	str	r1, [sp, #8]
   a:	e7ff      	b.n	c <_ZN116_$LT$core..iter..adapters..flatten..FlattenCompat$LT$I$C$U$GT$$u20$as$u20$core..iter..traits..iterator..Iterator$GT$4next17h1b1eb60cfab7e31eE+0xc>
/rustc/50a0defd5a93523067ef239936cc2e0755220904/src/libcore/iter/adapters/flatten.rs:216
   c:	9803      	ldr	r0, [sp, #12]
   e:	6880      	ldr	r0, [r0, #8]
  10:	2801      	cmp	r0, #1
  12:	d12a      	bne.n	6a <_ZN116_$LT$core..iter..adapters..flatten..FlattenCompat$LT$I$C$U$GT$$u20$as$u20$core..iter..traits..iterator..Iterator$GT$4next17h1b1eb60cfab7e31eE+0x6a>
  14:	e7ff      	b.n	16 <_ZN116_$LT$core..iter..adapters..flatten..FlattenCompat$LT$I$C$U$GT$$u20$as$u20$core..iter..traits..iterator..Iterator$GT$4next17h1b1eb60cfab7e31eE+0x16>
  16:	9803      	ldr	r0, [sp, #12]
  18:	300c      	adds	r0, #12
  1a:	9005      	str	r0, [sp, #20]
/rustc/50a0defd5a93523067ef239936cc2e0755220904/src/libcore/iter/adapters/flatten.rs:217
  1c:	9805      	ldr	r0, [sp, #20]
  1e:	f7ff fffe 	bl	0 <_ZN90_$LT$cstr_core..ascii..EscapeDefault$u20$as$u20$core..iter..traits..iterator..Iterator$GT$4next17hd18c9becef56bae4E>
  22:	f88d 1019 	strb.w	r1, [sp, #25]
  26:	f88d 0018 	strb.w	r0, [sp, #24]
  2a:	e7ff      	b.n	2c <_ZN116_$LT$core..iter..adapters..flatten..FlattenCompat$LT$I$C$U$GT$$u20$as$u20$core..iter..traits..iterator..Iterator$GT$4next17h1b1eb60cfab7e31eE+0x2c>
  2c:	f89d 0018 	ldrb.w	r0, [sp, #24]
  30:	07c0      	lsls	r0, r0, #31
  32:	2800      	cmp	r0, #0
  34:	d017      	beq.n	66 <_ZN116_$LT$core..iter..adapters..flatten..FlattenCompat$LT$I$C$U$GT$$u20$as$u20$core..iter..traits..iterator..Iterator$GT$4next17h1b1eb60cfab7e31eE+0x66>
  36:	e7ff      	b.n	38 <_ZN116_$LT$core..iter..adapters..flatten..FlattenCompat$LT$I$C$U$GT$$u20$as$u20$core..iter..traits..iterator..Iterator$GT$4next17h1b1eb60cfab7e31eE+0x38>
  38:	f89d 0018 	ldrb.w	r0, [sp, #24]
  3c:	f89d 1019 	ldrb.w	r1, [sp, #25]
  40:	f88d 001c 	strb.w	r0, [sp, #28]
  44:	f88d 101d 	strb.w	r1, [sp, #29]
  48:	f89d 001c 	ldrb.w	r0, [sp, #28]
  4c:	f89d 101d 	ldrb.w	r1, [sp, #29]
  50:	f88d 0010 	strb.w	r0, [sp, #16]
  54:	f88d 1011 	strb.w	r1, [sp, #17]
  58:	e7ff      	b.n	5a <_ZN116_$LT$core..iter..adapters..flatten..FlattenCompat$LT$I$C$U$GT$$u20$as$u20$core..iter..traits..iterator..Iterator$GT$4next17h1b1eb60cfab7e31eE+0x5a>
/rustc/50a0defd5a93523067ef239936cc2e0755220904/src/libcore/iter/adapters/flatten.rs:224
  5a:	f89d 0010 	ldrb.w	r0, [sp, #16]
  5e:	f89d 1011 	ldrb.w	r1, [sp, #17]
  62:	b01a      	add	sp, #104	; 0x68
  64:	bd80      	pop	{r7, pc}
/rustc/50a0defd5a93523067ef239936cc2e0755220904/src/libcore/iter/adapters/flatten.rs:218
  66:	e7ff      	b.n	68 <_ZN116_$LT$core..iter..adapters..flatten..FlattenCompat$LT$I$C$U$GT$$u20$as$u20$core..iter..traits..iterator..Iterator$GT$4next17h1b1eb60cfab7e31eE+0x68>
/rustc/50a0defd5a93523067ef239936cc2e0755220904/src/libcore/iter/adapters/flatten.rs:216
  68:	e7ff      	b.n	6a <_ZN116_$LT$core..iter..adapters..flatten..FlattenCompat$LT$I$C$U$GT$$u20$as$u20$core..iter..traits..iterator..Iterator$GT$4next17h1b1eb60cfab7e31eE+0x6a>
/rustc/50a0defd5a93523067ef239936cc2e0755220904/src/libcore/iter/adapters/flatten.rs:219
  6a:	9903      	ldr	r1, [sp, #12]
  6c:	a808      	add	r0, sp, #32
  6e:	f7ff fffe 	bl	0 <_ZN97_$LT$core..iter..adapters..Map$LT$I$C$F$GT$$u20$as$u20$core..iter..traits..iterator..Iterator$GT$4next17h18e299b4c35438deE>
  72:	e7ff      	b.n	74 <_ZN116_$LT$core..iter..adapters..flatten..FlattenCompat$LT$I$C$U$GT$$u20$as$u20$core..iter..traits..iterator..Iterator$GT$4next17h1b1eb60cfab7e31eE+0x74>
/rustc/50a0defd5a93523067ef239936cc2e0755220904/src/libcore/iter/adapters/flatten.rs:220
  74:	9808      	ldr	r0, [sp, #32]
  76:	2800      	cmp	r0, #0
  78:	9001      	str	r0, [sp, #4]
  7a:	d005      	beq.n	88 <_ZN116_$LT$core..iter..adapters..flatten..FlattenCompat$LT$I$C$U$GT$$u20$as$u20$core..iter..traits..iterator..Iterator$GT$4next17h1b1eb60cfab7e31eE+0x88>
  7c:	e7ff      	b.n	7e <_ZN116_$LT$core..iter..adapters..flatten..FlattenCompat$LT$I$C$U$GT$$u20$as$u20$core..iter..traits..iterator..Iterator$GT$4next17h1b1eb60cfab7e31eE+0x7e>
  7e:	9801      	ldr	r0, [sp, #4]
  80:	2801      	cmp	r0, #1
  82:	d011      	beq.n	a8 <_ZN116_$LT$core..iter..adapters..flatten..FlattenCompat$LT$I$C$U$GT$$u20$as$u20$core..iter..traits..iterator..Iterator$GT$4next17h1b1eb60cfab7e31eE+0xa8>
  84:	e7ff      	b.n	86 <_ZN116_$LT$core..iter..adapters..flatten..FlattenCompat$LT$I$C$U$GT$$u20$as$u20$core..iter..traits..iterator..Iterator$GT$4next17h1b1eb60cfab7e31eE+0x86>
/rustc/50a0defd5a93523067ef239936cc2e0755220904/src/libcore/iter/adapters/flatten.rs:224
  86:	defe      	udf	#254	; 0xfe
/rustc/50a0defd5a93523067ef239936cc2e0755220904/src/libcore/iter/adapters/flatten.rs:220
  88:	9803      	ldr	r0, [sp, #12]
  8a:	3018      	adds	r0, #24
  8c:	f7ff fffe 	bl	0 <_ZN4core6option15Option$LT$T$GT$6as_mut17h5855811a496c7521E>
  90:	9000      	str	r0, [sp, #0]
  92:	e7ff      	b.n	94 <_ZN116_$LT$core..iter..adapters..flatten..FlattenCompat$LT$I$C$U$GT$$u20$as$u20$core..iter..traits..iterator..Iterator$GT$4next17h1b1eb60cfab7e31eE+0x94>
  94:	9800      	ldr	r0, [sp, #0]
  96:	f7ff fffe 	bl	0 <_ZN4core6option15Option$LT$T$GT$8and_then17h6483672b049980eeE>
  9a:	f88d 1011 	strb.w	r1, [sp, #17]
  9e:	f88d 0010 	strb.w	r0, [sp, #16]
  a2:	e7ff      	b.n	a4 <_ZN116_$LT$core..iter..adapters..flatten..FlattenCompat$LT$I$C$U$GT$$u20$as$u20$core..iter..traits..iterator..Iterator$GT$4next17h1b1eb60cfab7e31eE+0xa4>
/rustc/50a0defd5a93523067ef239936cc2e0755220904/src/libcore/iter/adapters/flatten.rs:223
  a4:	e7ff      	b.n	a6 <_ZN116_$LT$core..iter..adapters..flatten..FlattenCompat$LT$I$C$U$GT$$u20$as$u20$core..iter..traits..iterator..Iterator$GT$4next17h1b1eb60cfab7e31eE+0xa6>
/rustc/50a0defd5a93523067ef239936cc2e0755220904/src/libcore/iter/adapters/flatten.rs:220
  a6:	e7d8      	b.n	5a <_ZN116_$LT$core..iter..adapters..flatten..FlattenCompat$LT$I$C$U$GT$$u20$as$u20$core..iter..traits..iterator..Iterator$GT$4next17h1b1eb60cfab7e31eE+0x5a>
/rustc/50a0defd5a93523067ef239936cc2e0755220904/src/libcore/iter/adapters/flatten.rs:221
  a8:	9809      	ldr	r0, [sp, #36]	; 0x24
  aa:	990a      	ldr	r1, [sp, #40]	; 0x28
  ac:	9a0b      	ldr	r2, [sp, #44]	; 0x2c
  ae:	920f      	str	r2, [sp, #60]	; 0x3c
  b0:	910e      	str	r1, [sp, #56]	; 0x38
  b2:	900d      	str	r0, [sp, #52]	; 0x34
  b4:	980d      	ldr	r0, [sp, #52]	; 0x34
  b6:	990e      	ldr	r1, [sp, #56]	; 0x38
  b8:	9a0f      	ldr	r2, [sp, #60]	; 0x3c
  ba:	9219      	str	r2, [sp, #100]	; 0x64
  bc:	9118      	str	r1, [sp, #96]	; 0x60
  be:	9017      	str	r0, [sp, #92]	; 0x5c
  c0:	a814      	add	r0, sp, #80	; 0x50
  c2:	a917      	add	r1, sp, #92	; 0x5c
  c4:	f7ff fffe 	bl	0 <_ZN63_$LT$I$u20$as$u20$core..iter..traits..collect..IntoIterator$GT$9into_iter17ha978ccb939c3fb05E>
  c8:	e7ff      	b.n	ca <_ZN116_$LT$core..iter..adapters..flatten..FlattenCompat$LT$I$C$U$GT$$u20$as$u20$core..iter..traits..iterator..Iterator$GT$4next17h1b1eb60cfab7e31eE+0xca>
  ca:	9814      	ldr	r0, [sp, #80]	; 0x50
  cc:	9915      	ldr	r1, [sp, #84]	; 0x54
  ce:	9a16      	ldr	r2, [sp, #88]	; 0x58
  d0:	9213      	str	r2, [sp, #76]	; 0x4c
  d2:	9112      	str	r1, [sp, #72]	; 0x48
  d4:	9011      	str	r0, [sp, #68]	; 0x44
  d6:	2001      	movs	r0, #1
  d8:	9010      	str	r0, [sp, #64]	; 0x40
  da:	e7ff      	b.n	dc <_ZN116_$LT$core..iter..adapters..flatten..FlattenCompat$LT$I$C$U$GT$$u20$as$u20$core..iter..traits..iterator..Iterator$GT$4next17h1b1eb60cfab7e31eE+0xdc>
  dc:	9803      	ldr	r0, [sp, #12]
  de:	9910      	ldr	r1, [sp, #64]	; 0x40
  e0:	9a11      	ldr	r2, [sp, #68]	; 0x44
  e2:	9b12      	ldr	r3, [sp, #72]	; 0x48
  e4:	f8dd c04c 	ldr.w	ip, [sp, #76]	; 0x4c
  e8:	f8c0 c014 	str.w	ip, [r0, #20]
  ec:	6103      	str	r3, [r0, #16]
  ee:	60c2      	str	r2, [r0, #12]
  f0:	6081      	str	r1, [r0, #8]
/rustc/50a0defd5a93523067ef239936cc2e0755220904/src/libcore/iter/adapters/flatten.rs:223
  f2:	9808      	ldr	r0, [sp, #32]
  f4:	2801      	cmp	r0, #1
  f6:	d101      	bne.n	fc <_ZN116_$LT$core..iter..adapters..flatten..FlattenCompat$LT$I$C$U$GT$$u20$as$u20$core..iter..traits..iterator..Iterator$GT$4next17h1b1eb60cfab7e31eE+0xfc>
  f8:	e7ff      	b.n	fa <_ZN116_$LT$core..iter..adapters..flatten..FlattenCompat$LT$I$C$U$GT$$u20$as$u20$core..iter..traits..iterator..Iterator$GT$4next17h1b1eb60cfab7e31eE+0xfa>
/rustc/50a0defd5a93523067ef239936cc2e0755220904/src/libcore/iter/adapters/flatten.rs:215
  fa:	e787      	b.n	c <_ZN116_$LT$core..iter..adapters..flatten..FlattenCompat$LT$I$C$U$GT$$u20$as$u20$core..iter..traits..iterator..Iterator$GT$4next17h1b1eb60cfab7e31eE+0xc>
/rustc/50a0defd5a93523067ef239936cc2e0755220904/src/libcore/iter/adapters/flatten.rs:223
  fc:	e7fd      	b.n	fa <_ZN116_$LT$core..iter..adapters..flatten..FlattenCompat$LT$I$C$U$GT$$u20$as$u20$core..iter..traits..iterator..Iterator$GT$4next17h1b1eb60cfab7e31eE+0xfa>

Disassembly of section .text._ZN116_$LT$core..iter..adapters..flatten..FlattenCompat$LT$I$C$U$GT$$u20$as$u20$core..iter..traits..iterator..Iterator$GT$4next28_$u7b$$u7b$closure$u7d$$u7d$17h7ef863f15aca5192E:

00000000 <_ZN116_$LT$core..iter..adapters..flatten..FlattenCompat$LT$I$C$U$GT$$u20$as$u20$core..iter..traits..iterator..Iterator$GT$4next28_$u7b$$u7b$closure$u7d$$u7d$17h7ef863f15aca5192E>:
_ZN116_$LT$core..iter..adapters..flatten..FlattenCompat$LT$I$C$U$GT$$u20$as$u20$core..iter..traits..iterator..Iterator$GT$4next28_$u7b$$u7b$closure$u7d$$u7d$17h7ef863f15aca5192E():
/rustc/50a0defd5a93523067ef239936cc2e0755220904/src/libcore/iter/adapters/flatten.rs:220
   0:	b580      	push	{r7, lr}
   2:	b086      	sub	sp, #24
   4:	4601      	mov	r1, r0
   6:	9005      	str	r0, [sp, #20]
   8:	9805      	ldr	r0, [sp, #20]
   a:	9103      	str	r1, [sp, #12]
   c:	f7ff fffe 	bl	0 <_ZN90_$LT$cstr_core..ascii..EscapeDefault$u20$as$u20$core..iter..traits..iterator..Iterator$GT$4next17hd18c9becef56bae4E>
  10:	9002      	str	r0, [sp, #8]
  12:	9101      	str	r1, [sp, #4]
  14:	e7ff      	b.n	16 <_ZN116_$LT$core..iter..adapters..flatten..FlattenCompat$LT$I$C$U$GT$$u20$as$u20$core..iter..traits..iterator..Iterator$GT$4next28_$u7b$$u7b$closure$u7d$$u7d$17h7ef863f15aca5192E+0x16>
  16:	9802      	ldr	r0, [sp, #8]
  18:	f000 0001 	and.w	r0, r0, #1
  1c:	9901      	ldr	r1, [sp, #4]
  1e:	b006      	add	sp, #24
  20:	bd80      	pop	{r7, pc}

Disassembly of section .text._ZN4core4iter8adapters7flatten24FlatMap$LT$I$C$U$C$F$GT$3new17h468568bb2189164dE:

00000000 <_ZN4core4iter8adapters7flatten24FlatMap$LT$I$C$U$C$F$GT$3new17h468568bb2189164dE>:
_ZN4core4iter8adapters7flatten24FlatMap$LT$I$C$U$C$F$GT$3new17h468568bb2189164dE():
/rustc/50a0defd5a93523067ef239936cc2e0755220904/src/libcore/iter/adapters/flatten.rs:21
   0:	b510      	push	{r4, lr}
   2:	b092      	sub	sp, #72	; 0x48
   4:	4613      	mov	r3, r2
   6:	468c      	mov	ip, r1
   8:	9105      	str	r1, [sp, #20]
   a:	9206      	str	r2, [sp, #24]
/rustc/50a0defd5a93523067ef239936cc2e0755220904/src/libcore/iter/adapters/flatten.rs:22
   c:	9905      	ldr	r1, [sp, #20]
   e:	9a06      	ldr	r2, [sp, #24]
  10:	9004      	str	r0, [sp, #16]
  12:	4608      	mov	r0, r1
  14:	4611      	mov	r1, r2
  16:	9303      	str	r3, [sp, #12]
  18:	f8cd c008 	str.w	ip, [sp, #8]
  1c:	f7ff fffe 	bl	0 <_ZN4core4iter6traits8iterator8Iterator3map17h4161af8580973d37E>
  20:	9001      	str	r0, [sp, #4]
  22:	9100      	str	r1, [sp, #0]
  24:	e7ff      	b.n	26 <_ZN4core4iter8adapters7flatten24FlatMap$LT$I$C$U$C$F$GT$3new17h468568bb2189164dE+0x26>
  26:	a808      	add	r0, sp, #32
  28:	9901      	ldr	r1, [sp, #4]
  2a:	9a00      	ldr	r2, [sp, #0]
  2c:	f7ff fffe 	bl	0 <_ZN4core4iter8adapters7flatten24FlatMap$LT$I$C$U$C$F$GT$3new17h468568bb2189164dE>
  30:	e7ff      	b.n	32 <_ZN4core4iter8adapters7flatten24FlatMap$LT$I$C$U$C$F$GT$3new17h468568bb2189164dE+0x32>
  32:	a808      	add	r0, sp, #32
  34:	9904      	ldr	r1, [sp, #16]
  36:	e8b0 501c 	ldmia.w	r0!, {r2, r3, r4, ip, lr}
  3a:	e8a1 501c 	stmia.w	r1!, {r2, r3, r4, ip, lr}
  3e:	e890 501c 	ldmia.w	r0, {r2, r3, r4, ip, lr}
  42:	e881 501c 	stmia.w	r1, {r2, r3, r4, ip, lr}
/rustc/50a0defd5a93523067ef239936cc2e0755220904/src/libcore/iter/adapters/flatten.rs:23
  46:	b012      	add	sp, #72	; 0x48
  48:	bd10      	pop	{r4, pc}

Disassembly of section .text._ZN4core4iter8adapters7flatten26FlattenCompat$LT$I$C$U$GT$3new17h22626c7245fa105cE:

00000000 <_ZN4core4iter8adapters7flatten26FlattenCompat$LT$I$C$U$GT$3new17h22626c7245fa105cE>:
_ZN4core4iter8adapters7flatten26FlattenCompat$LT$I$C$U$GT$3new17h22626c7245fa105cE():
/rustc/50a0defd5a93523067ef239936cc2e0755220904/src/libcore/iter/adapters/flatten.rs:202
   0:	b5b0      	push	{r4, r5, r7, lr}
   2:	b08d      	sub	sp, #52	; 0x34
   4:	4613      	mov	r3, r2
   6:	468c      	mov	ip, r1
   8:	4686      	mov	lr, r0
   a:	9103      	str	r1, [sp, #12]
   c:	9204      	str	r2, [sp, #16]
/rustc/50a0defd5a93523067ef239936cc2e0755220904/src/libcore/iter/adapters/flatten.rs:203
   e:	9903      	ldr	r1, [sp, #12]
  10:	9a04      	ldr	r2, [sp, #16]
  12:	2400      	movs	r4, #0
  14:	9405      	str	r4, [sp, #20]
  16:	9409      	str	r4, [sp, #36]	; 0x24
  18:	6001      	str	r1, [r0, #0]
  1a:	6042      	str	r2, [r0, #4]
  1c:	9905      	ldr	r1, [sp, #20]
  1e:	9a06      	ldr	r2, [sp, #24]
  20:	9c07      	ldr	r4, [sp, #28]
  22:	9d08      	ldr	r5, [sp, #32]
  24:	6145      	str	r5, [r0, #20]
  26:	6104      	str	r4, [r0, #16]
  28:	60c2      	str	r2, [r0, #12]
  2a:	6081      	str	r1, [r0, #8]
  2c:	9909      	ldr	r1, [sp, #36]	; 0x24
  2e:	9a0a      	ldr	r2, [sp, #40]	; 0x28
  30:	9c0b      	ldr	r4, [sp, #44]	; 0x2c
  32:	9d0c      	ldr	r5, [sp, #48]	; 0x30
  34:	6245      	str	r5, [r0, #36]	; 0x24
  36:	6204      	str	r4, [r0, #32]
  38:	61c2      	str	r2, [r0, #28]
  3a:	6181      	str	r1, [r0, #24]
/rustc/50a0defd5a93523067ef239936cc2e0755220904/src/libcore/iter/adapters/flatten.rs:204
  3c:	9302      	str	r3, [sp, #8]
  3e:	f8cd c004 	str.w	ip, [sp, #4]
  42:	f8cd e000 	str.w	lr, [sp]
  46:	b00d      	add	sp, #52	; 0x34
  48:	bdb0      	pop	{r4, r5, r7, pc}

Disassembly of section .text._ZN63_$LT$I$u20$as$u20$core..iter..traits..collect..IntoIterator$GT$9into_iter17h4cd02ec9a3789ba9E:

00000000 <_ZN63_$LT$I$u20$as$u20$core..iter..traits..collect..IntoIterator$GT$9into_iter17h4cd02ec9a3789ba9E>:
_ZN63_$LT$I$u20$as$u20$core..iter..traits..collect..IntoIterator$GT$9into_iter17h4cd02ec9a3789ba9E():
/rustc/50a0defd5a93523067ef239936cc2e0755220904/src/libcore/iter/traits/collect.rs:245
   0:	b570      	push	{r4, r5, r6, lr}
   2:	b082      	sub	sp, #8
   4:	460a      	mov	r2, r1
   6:	4603      	mov	r3, r0
/rustc/50a0defd5a93523067ef239936cc2e0755220904/src/libcore/iter/traits/collect.rs:246
   8:	e8b1 5070 	ldmia.w	r1!, {r4, r5, r6, ip, lr}
   c:	e8a0 5070 	stmia.w	r0!, {r4, r5, r6, ip, lr}
  10:	e891 5070 	ldmia.w	r1, {r4, r5, r6, ip, lr}
  14:	e880 5070 	stmia.w	r0, {r4, r5, r6, ip, lr}
/rustc/50a0defd5a93523067ef239936cc2e0755220904/src/libcore/iter/traits/collect.rs:247
  18:	9201      	str	r2, [sp, #4]
  1a:	9300      	str	r3, [sp, #0]
  1c:	b002      	add	sp, #8
  1e:	bd70      	pop	{r4, r5, r6, pc}

cstr_core-002f35632daba805.cstr_core.4br1pvmw-cgu.7.rcgu.o:     file format elf32-littlearm

SYMBOL TABLE:
00000000 l    df *ABS*	00000000 cstr_core.4br1pvmw-cgu.7
000001f1 l       .debug_str	00000000 
000001de l       .debug_str	00000000 
000001ec l       .debug_str	00000000 
000001f5 l       .debug_str	00000000 
000001f7 l       .debug_str	00000000 
00000000 l       .debug_str	00000000 
00000041 l       .debug_str	00000000 
00000099 l       .debug_str	00000000 
000000e6 l       .debug_str	00000000 
000000eb l       .debug_str	00000000 
000000ef l       .debug_str	00000000 
000000f8 l       .debug_str	00000000 
0000013f l       .debug_str	00000000 
0000014b l       .debug_str	00000000 
00000152 l       .debug_str	00000000 
00000156 l       .debug_str	00000000 
0000015b l       .debug_str	00000000 
00000161 l       .debug_str	00000000 
00000163 l       .debug_str	00000000 
00000168 l       .debug_str	00000000 
0000016c l       .debug_str	00000000 
0000017a l       .debug_str	00000000 
000001c5 l       .debug_str	00000000 
000001d5 l       .debug_str	00000000 
000001d9 l       .debug_str	00000000 
00000000 l     F .text._ZN4core3num23_$LT$impl$u20$usize$GT$15overflowing_add17h40aff0c4f9ba2454E	00000052 _ZN4core3num23_$LT$impl$u20$usize$GT$15overflowing_add17h40aff0c4f9ba2454E
00000000 l    d  .text._ZN4core3num23_$LT$impl$u20$usize$GT$11checked_add17h8c255323ca5519dfE	00000000 .text._ZN4core3num23_$LT$impl$u20$usize$GT$11checked_add17h8c255323ca5519dfE
00000000 l    d  .text._ZN4core3num23_$LT$impl$u20$usize$GT$15overflowing_add17h40aff0c4f9ba2454E	00000000 .text._ZN4core3num23_$LT$impl$u20$usize$GT$15overflowing_add17h40aff0c4f9ba2454E
00000000 l    d  .debug_abbrev	00000000 .debug_abbrev
00000000 l    d  .debug_info	00000000 .debug_info
00000000 l    d  .debug_ranges	00000000 .debug_ranges
00000000 l    d  .debug_frame	00000000 .debug_frame
00000000 l    d  .debug_line	00000000 .debug_line
00000000 g     F .text._ZN4core3num23_$LT$impl$u20$usize$GT$11checked_add17h8c255323ca5519dfE	00000050 .hidden _ZN4core3num23_$LT$impl$u20$usize$GT$11checked_add17h8c255323ca5519dfE



Disassembly of section .text._ZN4core3num23_$LT$impl$u20$usize$GT$11checked_add17h8c255323ca5519dfE:

00000000 <_ZN4core3num23_$LT$impl$u20$usize$GT$11checked_add17h8c255323ca5519dfE>:
_ZN4core3num23_$LT$impl$u20$usize$GT$11checked_add17h8c255323ca5519dfE():
/rustc/50a0defd5a93523067ef239936cc2e0755220904/src/libcore/num/mod.rs:2678
   0:	b580      	push	{r7, lr}
   2:	b08a      	sub	sp, #40	; 0x28
   4:	460a      	mov	r2, r1
   6:	4603      	mov	r3, r0
   8:	9004      	str	r0, [sp, #16]
   a:	9105      	str	r1, [sp, #20]
/rustc/50a0defd5a93523067ef239936cc2e0755220904/src/libcore/num/mod.rs:2679
   c:	9804      	ldr	r0, [sp, #16]
   e:	9905      	ldr	r1, [sp, #20]
  10:	9203      	str	r2, [sp, #12]
  12:	9302      	str	r3, [sp, #8]
  14:	f7ff fffe 	bl	0 <_ZN4core3num23_$LT$impl$u20$usize$GT$11checked_add17h8c255323ca5519dfE>
  18:	9001      	str	r0, [sp, #4]
  1a:	9100      	str	r1, [sp, #0]
  1c:	e7ff      	b.n	1e <_ZN4core3num23_$LT$impl$u20$usize$GT$11checked_add17h8c255323ca5519dfE+0x1e>
  1e:	9801      	ldr	r0, [sp, #4]
  20:	9008      	str	r0, [sp, #32]
  22:	9900      	ldr	r1, [sp, #0]
  24:	f001 0201 	and.w	r2, r1, #1
  28:	f88d 2027 	strb.w	r2, [sp, #39]	; 0x27
/rustc/50a0defd5a93523067ef239936cc2e0755220904/src/libcore/num/mod.rs:2680
  2c:	f89d 2027 	ldrb.w	r2, [sp, #39]	; 0x27
  30:	07d2      	lsls	r2, r2, #31
  32:	2a00      	cmp	r2, #0
  34:	d003      	beq.n	3e <_ZN4core3num23_$LT$impl$u20$usize$GT$11checked_add17h8c255323ca5519dfE+0x3e>
  36:	e7ff      	b.n	38 <_ZN4core3num23_$LT$impl$u20$usize$GT$11checked_add17h8c255323ca5519dfE+0x38>
  38:	2000      	movs	r0, #0
  3a:	9006      	str	r0, [sp, #24]
  3c:	e004      	b.n	48 <_ZN4core3num23_$LT$impl$u20$usize$GT$11checked_add17h8c255323ca5519dfE+0x48>
  3e:	9808      	ldr	r0, [sp, #32]
  40:	9007      	str	r0, [sp, #28]
  42:	2001      	movs	r0, #1
  44:	9006      	str	r0, [sp, #24]
  46:	e7ff      	b.n	48 <_ZN4core3num23_$LT$impl$u20$usize$GT$11checked_add17h8c255323ca5519dfE+0x48>
/rustc/50a0defd5a93523067ef239936cc2e0755220904/src/libcore/num/mod.rs:2681
  48:	9806      	ldr	r0, [sp, #24]
  4a:	9907      	ldr	r1, [sp, #28]
  4c:	b00a      	add	sp, #40	; 0x28
  4e:	bd80      	pop	{r7, pc}

Disassembly of section .text._ZN4core3num23_$LT$impl$u20$usize$GT$15overflowing_add17h40aff0c4f9ba2454E:

00000000 <_ZN4core3num23_$LT$impl$u20$usize$GT$15overflowing_add17h40aff0c4f9ba2454E>:
_ZN4core3num23_$LT$impl$u20$usize$GT$15overflowing_add17h40aff0c4f9ba2454E():
/rustc/50a0defd5a93523067ef239936cc2e0755220904/src/libcore/num/mod.rs:3348
   0:	b08c      	sub	sp, #48	; 0x30
   2:	460a      	mov	r2, r1
   4:	4603      	mov	r3, r0
   6:	9004      	str	r0, [sp, #16]
   8:	9105      	str	r1, [sp, #20]
/rustc/50a0defd5a93523067ef239936cc2e0755220904/src/libcore/num/mod.rs:3349
   a:	9804      	ldr	r0, [sp, #16]
   c:	9905      	ldr	r1, [sp, #20]
   e:	1840      	adds	r0, r0, r1
  10:	f04f 0100 	mov.w	r1, #0
  14:	f141 0100 	adc.w	r1, r1, #0
  18:	900a      	str	r0, [sp, #40]	; 0x28
  1a:	f88d 102c 	strb.w	r1, [sp, #44]	; 0x2c
  1e:	980a      	ldr	r0, [sp, #40]	; 0x28
  20:	f89d 102c 	ldrb.w	r1, [sp, #44]	; 0x2c
  24:	9203      	str	r2, [sp, #12]
  26:	9302      	str	r3, [sp, #8]
  28:	9001      	str	r0, [sp, #4]
  2a:	9100      	str	r1, [sp, #0]
  2c:	e7ff      	b.n	2e <_ZN4core3num23_$LT$impl$u20$usize$GT$15overflowing_add17h40aff0c4f9ba2454E+0x2e>
  2e:	9801      	ldr	r0, [sp, #4]
  30:	9008      	str	r0, [sp, #32]
  32:	9900      	ldr	r1, [sp, #0]
  34:	f001 0201 	and.w	r2, r1, #1
  38:	f88d 2027 	strb.w	r2, [sp, #39]	; 0x27
/rustc/50a0defd5a93523067ef239936cc2e0755220904/src/libcore/num/mod.rs:3350
  3c:	9a08      	ldr	r2, [sp, #32]
  3e:	f89d 3027 	ldrb.w	r3, [sp, #39]	; 0x27
  42:	9206      	str	r2, [sp, #24]
  44:	f88d 301c 	strb.w	r3, [sp, #28]
/rustc/50a0defd5a93523067ef239936cc2e0755220904/src/libcore/num/mod.rs:3351
  48:	9806      	ldr	r0, [sp, #24]
  4a:	f89d 101c 	ldrb.w	r1, [sp, #28]
  4e:	b00c      	add	sp, #48	; 0x30
  50:	4770      	bx	lr

cstr_core-002f35632daba805.cstr_core.4br1pvmw-cgu.8.rcgu.o:     file format elf32-littlearm

SYMBOL TABLE:
00000000 l    df *ABS*	00000000 cstr_core.4br1pvmw-cgu.8
0000025d l       .debug_str	00000000 
00000250 l       .debug_str	00000000 
00000256 l       .debug_str	00000000 
00000261 l       .debug_str	00000000 
00000268 l       .debug_str	00000000 
00000266 l       .debug_str	00000000 
00000000 l       .debug_str	00000000 
00000041 l       .debug_str	00000000 
00000099 l       .debug_str	00000000 
000000e6 l       .debug_str	00000000 
000000eb l       .debug_str	00000000 
000000f0 l       .debug_str	00000000 
000000f6 l       .debug_str	00000000 
000000ff l       .debug_str	00000000 
00000159 l       .debug_str	00000000 
00000167 l       .debug_str	00000000 
0000016e l       .debug_str	00000000 
00000172 l       .debug_str	00000000 
00000177 l       .debug_str	00000000 
0000017d l       .debug_str	00000000 
0000017f l       .debug_str	00000000 
00000184 l       .debug_str	00000000 
00000188 l       .debug_str	00000000 
00000196 l       .debug_str	00000000 
000001e9 l       .debug_str	00000000 
000001f1 l       .debug_str	00000000 
00000246 l       .debug_str	00000000 
00000000 l    d  .text._ZN49_$LT$usize$u20$as$u20$core..iter..range..Step$GT$13steps_between17h890400c9aab17c8aE	00000000 .text._ZN49_$LT$usize$u20$as$u20$core..iter..range..Step$GT$13steps_between17h890400c9aab17c8aE
00000000 l    d  .text._ZN49_$LT$usize$u20$as$u20$core..iter..range..Step$GT$7sub_one17hc50309bcf04fe07eE	00000000 .text._ZN49_$LT$usize$u20$as$u20$core..iter..range..Step$GT$7sub_one17hc50309bcf04fe07eE
00000000 l    d  .text._ZN49_$LT$usize$u20$as$u20$core..iter..range..Step$GT$9add_usize17h32c1a16737a51327E	00000000 .text._ZN49_$LT$usize$u20$as$u20$core..iter..range..Step$GT$9add_usize17h32c1a16737a51327E
00000000 l    d  .debug_abbrev	00000000 .debug_abbrev
00000000 l    d  .debug_info	00000000 .debug_info
00000000 l    d  .debug_ranges	00000000 .debug_ranges
00000000 l    d  .debug_frame	00000000 .debug_frame
00000000 l    d  .debug_line	00000000 .debug_line
00000000         *UND*	00000000 .hidden _ZN47_$LT$usize$u20$as$u20$core..ops..arith..Sub$GT$3sub17h2b2c258a8ad07617E
00000000 g     F .text._ZN49_$LT$usize$u20$as$u20$core..iter..range..Step$GT$13steps_between17h890400c9aab17c8aE	00000050 .hidden _ZN49_$LT$usize$u20$as$u20$core..iter..range..Step$GT$13steps_between17h890400c9aab17c8aE
00000000 g     F .text._ZN49_$LT$usize$u20$as$u20$core..iter..range..Step$GT$7sub_one17hc50309bcf04fe07eE	00000020 .hidden _ZN49_$LT$usize$u20$as$u20$core..iter..range..Step$GT$7sub_one17hc50309bcf04fe07eE
00000000 g     F .text._ZN49_$LT$usize$u20$as$u20$core..iter..range..Step$GT$9add_usize17h32c1a16737a51327E	00000036 .hidden _ZN49_$LT$usize$u20$as$u20$core..iter..range..Step$GT$9add_usize17h32c1a16737a51327E
00000000         *UND*	00000000 .hidden _ZN4core3num23_$LT$impl$u20$usize$GT$11checked_add17h8c255323ca5519dfE
00000000         *UND*	00000000 _ZN4core6result19Result$LT$T$C$E$GT$2ok17h2a92b6f25b4a5c7cE
00000000         *UND*	00000000 _ZN53_$LT$T$u20$as$u20$core..convert..TryFrom$LT$U$GT$$GT$8try_from17heb29fdb01680adabE



Disassembly of section .text._ZN49_$LT$usize$u20$as$u20$core..iter..range..Step$GT$13steps_between17h890400c9aab17c8aE:

00000000 <_ZN49_$LT$usize$u20$as$u20$core..iter..range..Step$GT$13steps_between17h890400c9aab17c8aE>:
_ZN49_$LT$usize$u20$as$u20$core..iter..range..Step$GT$13steps_between17h890400c9aab17c8aE():
/rustc/50a0defd5a93523067ef239936cc2e0755220904/src/libcore/iter/range.rs:71
   0:	b580      	push	{r7, lr}
   2:	b088      	sub	sp, #32
   4:	460a      	mov	r2, r1
   6:	4603      	mov	r3, r0
   8:	9004      	str	r0, [sp, #16]
   a:	9105      	str	r1, [sp, #20]
/rustc/50a0defd5a93523067ef239936cc2e0755220904/src/libcore/iter/range.rs:72
   c:	9804      	ldr	r0, [sp, #16]
   e:	6800      	ldr	r0, [r0, #0]
  10:	9905      	ldr	r1, [sp, #20]
  12:	6809      	ldr	r1, [r1, #0]
  14:	4288      	cmp	r0, r1
  16:	9203      	str	r2, [sp, #12]
  18:	9302      	str	r3, [sp, #8]
  1a:	d210      	bcs.n	3e <_ZN49_$LT$usize$u20$as$u20$core..iter..range..Step$GT$13steps_between17h890400c9aab17c8aE+0x3e>
  1c:	e7ff      	b.n	1e <_ZN49_$LT$usize$u20$as$u20$core..iter..range..Step$GT$13steps_between17h890400c9aab17c8aE+0x1e>
/rustc/50a0defd5a93523067ef239936cc2e0755220904/src/libcore/iter/range.rs:73
  1e:	9805      	ldr	r0, [sp, #20]
  20:	6800      	ldr	r0, [r0, #0]
  22:	9904      	ldr	r1, [sp, #16]
  24:	6809      	ldr	r1, [r1, #0]
  26:	1a40      	subs	r0, r0, r1
  28:	f7ff fffe 	bl	0 <_ZN53_$LT$T$u20$as$u20$core..convert..TryFrom$LT$U$GT$$GT$8try_from17heb29fdb01680adabE>
  2c:	9001      	str	r0, [sp, #4]
  2e:	e7ff      	b.n	30 <_ZN49_$LT$usize$u20$as$u20$core..iter..range..Step$GT$13steps_between17h890400c9aab17c8aE+0x30>
  30:	9801      	ldr	r0, [sp, #4]
  32:	f7ff fffe 	bl	0 <_ZN4core6result19Result$LT$T$C$E$GT$2ok17h2a92b6f25b4a5c7cE>
  36:	9107      	str	r1, [sp, #28]
  38:	9006      	str	r0, [sp, #24]
  3a:	e7ff      	b.n	3c <_ZN49_$LT$usize$u20$as$u20$core..iter..range..Step$GT$13steps_between17h890400c9aab17c8aE+0x3c>
/rustc/50a0defd5a93523067ef239936cc2e0755220904/src/libcore/iter/range.rs:72
  3c:	e004      	b.n	48 <_ZN49_$LT$usize$u20$as$u20$core..iter..range..Step$GT$13steps_between17h890400c9aab17c8aE+0x48>
  3e:	2000      	movs	r0, #0
/rustc/50a0defd5a93523067ef239936cc2e0755220904/src/libcore/iter/range.rs:75
  40:	9007      	str	r0, [sp, #28]
  42:	2001      	movs	r0, #1
  44:	9006      	str	r0, [sp, #24]
/rustc/50a0defd5a93523067ef239936cc2e0755220904/src/libcore/iter/range.rs:72
  46:	e7ff      	b.n	48 <_ZN49_$LT$usize$u20$as$u20$core..iter..range..Step$GT$13steps_between17h890400c9aab17c8aE+0x48>
/rustc/50a0defd5a93523067ef239936cc2e0755220904/src/libcore/iter/range.rs:77
  48:	9806      	ldr	r0, [sp, #24]
  4a:	9907      	ldr	r1, [sp, #28]
  4c:	b008      	add	sp, #32
  4e:	bd80      	pop	{r7, pc}

Disassembly of section .text._ZN49_$LT$usize$u20$as$u20$core..iter..range..Step$GT$7sub_one17hc50309bcf04fe07eE:

00000000 <_ZN49_$LT$usize$u20$as$u20$core..iter..range..Step$GT$7sub_one17hc50309bcf04fe07eE>:
_ZN49_$LT$usize$u20$as$u20$core..iter..range..Step$GT$7sub_one17hc50309bcf04fe07eE():
/rustc/50a0defd5a93523067ef239936cc2e0755220904/src/libcore/iter/range.rs:58
   0:	b580      	push	{r7, lr}
   2:	b084      	sub	sp, #16
   4:	4601      	mov	r1, r0
   6:	9003      	str	r0, [sp, #12]
/rustc/50a0defd5a93523067ef239936cc2e0755220904/src/libcore/iter/range.rs:59
   8:	9803      	ldr	r0, [sp, #12]
   a:	6800      	ldr	r0, [r0, #0]
   c:	2201      	movs	r2, #1
   e:	9102      	str	r1, [sp, #8]
  10:	4611      	mov	r1, r2
  12:	f7ff fffe 	bl	0 <_ZN47_$LT$usize$u20$as$u20$core..ops..arith..Sub$GT$3sub17h2b2c258a8ad07617E>
  16:	9001      	str	r0, [sp, #4]
  18:	e7ff      	b.n	1a <_ZN49_$LT$usize$u20$as$u20$core..iter..range..Step$GT$7sub_one17hc50309bcf04fe07eE+0x1a>
/rustc/50a0defd5a93523067ef239936cc2e0755220904/src/libcore/iter/range.rs:60
  1a:	9801      	ldr	r0, [sp, #4]
  1c:	b004      	add	sp, #16
  1e:	bd80      	pop	{r7, pc}

Disassembly of section .text._ZN49_$LT$usize$u20$as$u20$core..iter..range..Step$GT$9add_usize17h32c1a16737a51327E:

00000000 <_ZN49_$LT$usize$u20$as$u20$core..iter..range..Step$GT$9add_usize17h32c1a16737a51327E>:
_ZN49_$LT$usize$u20$as$u20$core..iter..range..Step$GT$9add_usize17h32c1a16737a51327E():
/rustc/50a0defd5a93523067ef239936cc2e0755220904/src/libcore/iter/range.rs:81
   0:	b580      	push	{r7, lr}
   2:	b088      	sub	sp, #32
   4:	460a      	mov	r2, r1
   6:	4603      	mov	r3, r0
   8:	9004      	str	r0, [sp, #16]
   a:	9105      	str	r1, [sp, #20]
/rustc/50a0defd5a93523067ef239936cc2e0755220904/src/libcore/iter/range.rs:82
   c:	9805      	ldr	r0, [sp, #20]
   e:	9203      	str	r2, [sp, #12]
  10:	9302      	str	r3, [sp, #8]
  12:	f7ff fffe 	bl	0 <_ZN53_$LT$T$u20$as$u20$core..convert..TryFrom$LT$U$GT$$GT$8try_from17heb29fdb01680adabE>
  16:	9006      	str	r0, [sp, #24]
  18:	e7ff      	b.n	1a <_ZN49_$LT$usize$u20$as$u20$core..iter..range..Step$GT$9add_usize17h32c1a16737a51327E+0x1a>
/rustc/50a0defd5a93523067ef239936cc2e0755220904/src/libcore/iter/range.rs:83
  1a:	9806      	ldr	r0, [sp, #24]
  1c:	9007      	str	r0, [sp, #28]
  1e:	9804      	ldr	r0, [sp, #16]
  20:	6800      	ldr	r0, [r0, #0]
  22:	9907      	ldr	r1, [sp, #28]
  24:	f7ff fffe 	bl	0 <_ZN4core3num23_$LT$impl$u20$usize$GT$11checked_add17h8c255323ca5519dfE>
  28:	9001      	str	r0, [sp, #4]
  2a:	9100      	str	r1, [sp, #0]
  2c:	e7ff      	b.n	2e <_ZN49_$LT$usize$u20$as$u20$core..iter..range..Step$GT$9add_usize17h32c1a16737a51327E+0x2e>
/rustc/50a0defd5a93523067ef239936cc2e0755220904/src/libcore/iter/range.rs:86
  2e:	9801      	ldr	r0, [sp, #4]
  30:	9900      	ldr	r1, [sp, #0]
  32:	b008      	add	sp, #32
  34:	bd80      	pop	{r7, pc}

cstr_core-002f35632daba805.cstr_core.4br1pvmw-cgu.9.rcgu.o:     file format elf32-littlearm

SYMBOL TABLE:
00000000 l    df *ABS*	00000000 cstr_core.4br1pvmw-cgu.9
000001ee l       .debug_str	00000000 
000001e9 l       .debug_str	00000000 
000001f4 l       .debug_str	00000000 
000001fb l       .debug_str	00000000 
00000000 l       .debug_str	00000000 
00000041 l       .debug_str	00000000 
00000099 l       .debug_str	00000000 
000000e6 l       .debug_str	00000000 
000000eb l       .debug_str	00000000 
000000ef l       .debug_str	00000000 
000000f2 l       .debug_str	00000000 
000000f7 l       .debug_str	00000000 
000000fd l       .debug_str	00000000 
00000105 l       .debug_str	00000000 
0000010e l       .debug_str	00000000 
00000114 l       .debug_str	00000000 
0000011d l       .debug_str	00000000 
0000017c l       .debug_str	00000000 
000001e1 l       .debug_str	00000000 
000001e4 l       .debug_str	00000000 
00000000 l    d  .text._ZN4core3cmp5impls50_$LT$impl$u20$core..cmp..Ord$u20$for$u20$usize$GT$3cmp17h3e9a54d53fafb581E	00000000 .text._ZN4core3cmp5impls50_$LT$impl$u20$core..cmp..Ord$u20$for$u20$usize$GT$3cmp17h3e9a54d53fafb581E
00000000 l    d  .text._ZN4core3cmp5impls57_$LT$impl$u20$core..cmp..PartialOrd$u20$for$u20$usize$GT$2lt17ha4f715bf1b969d3eE	00000000 .text._ZN4core3cmp5impls57_$LT$impl$u20$core..cmp..PartialOrd$u20$for$u20$usize$GT$2lt17ha4f715bf1b969d3eE
00000000 l    d  .debug_abbrev	00000000 .debug_abbrev
00000000 l    d  .debug_info	00000000 .debug_info
00000000 l    d  .debug_ranges	00000000 .debug_ranges
00000000 l    d  .debug_frame	00000000 .debug_frame
00000000 l    d  .debug_line	00000000 .debug_line
00000000 g     F .text._ZN4core3cmp5impls50_$LT$impl$u20$core..cmp..Ord$u20$for$u20$usize$GT$3cmp17h3e9a54d53fafb581E	0000004c .hidden _ZN4core3cmp5impls50_$LT$impl$u20$core..cmp..Ord$u20$for$u20$usize$GT$3cmp17h3e9a54d53fafb581E
00000000 g     F .text._ZN4core3cmp5impls57_$LT$impl$u20$core..cmp..PartialOrd$u20$for$u20$usize$GT$2lt17ha4f715bf1b969d3eE	00000028 .hidden _ZN4core3cmp5impls57_$LT$impl$u20$core..cmp..PartialOrd$u20$for$u20$usize$GT$2lt17ha4f715bf1b969d3eE



Disassembly of section .text._ZN4core3cmp5impls50_$LT$impl$u20$core..cmp..Ord$u20$for$u20$usize$GT$3cmp17h3e9a54d53fafb581E:

00000000 <_ZN4core3cmp5impls50_$LT$impl$u20$core..cmp..Ord$u20$for$u20$usize$GT$3cmp17h3e9a54d53fafb581E>:
_ZN4core3cmp5impls50_$LT$impl$u20$core..cmp..Ord$u20$for$u20$usize$GT$3cmp17h3e9a54d53fafb581E():
/rustc/50a0defd5a93523067ef239936cc2e0755220904/src/libcore/cmp.rs:986
   0:	b085      	sub	sp, #20
   2:	460a      	mov	r2, r1
   4:	4603      	mov	r3, r0
   6:	9002      	str	r0, [sp, #8]
   8:	9103      	str	r1, [sp, #12]
/rustc/50a0defd5a93523067ef239936cc2e0755220904/src/libcore/cmp.rs:987
   a:	9802      	ldr	r0, [sp, #8]
   c:	6800      	ldr	r0, [r0, #0]
   e:	9903      	ldr	r1, [sp, #12]
  10:	6809      	ldr	r1, [r1, #0]
  12:	4288      	cmp	r0, r1
  14:	9201      	str	r2, [sp, #4]
  16:	9300      	str	r3, [sp, #0]
  18:	d104      	bne.n	24 <_ZN4core3cmp5impls50_$LT$impl$u20$core..cmp..Ord$u20$for$u20$usize$GT$3cmp17h3e9a54d53fafb581E+0x24>
  1a:	e7ff      	b.n	1c <_ZN4core3cmp5impls50_$LT$impl$u20$core..cmp..Ord$u20$for$u20$usize$GT$3cmp17h3e9a54d53fafb581E+0x1c>
  1c:	2000      	movs	r0, #0
  1e:	f88d 0013 	strb.w	r0, [sp, #19]
  22:	e00f      	b.n	44 <_ZN4core3cmp5impls50_$LT$impl$u20$core..cmp..Ord$u20$for$u20$usize$GT$3cmp17h3e9a54d53fafb581E+0x44>
/rustc/50a0defd5a93523067ef239936cc2e0755220904/src/libcore/cmp.rs:988
  24:	9802      	ldr	r0, [sp, #8]
  26:	6800      	ldr	r0, [r0, #0]
  28:	9903      	ldr	r1, [sp, #12]
  2a:	6809      	ldr	r1, [r1, #0]
  2c:	4288      	cmp	r0, r1
  2e:	d204      	bcs.n	3a <_ZN4core3cmp5impls50_$LT$impl$u20$core..cmp..Ord$u20$for$u20$usize$GT$3cmp17h3e9a54d53fafb581E+0x3a>
  30:	e7ff      	b.n	32 <_ZN4core3cmp5impls50_$LT$impl$u20$core..cmp..Ord$u20$for$u20$usize$GT$3cmp17h3e9a54d53fafb581E+0x32>
  32:	20ff      	movs	r0, #255	; 0xff
  34:	f88d 0013 	strb.w	r0, [sp, #19]
  38:	e003      	b.n	42 <_ZN4core3cmp5impls50_$LT$impl$u20$core..cmp..Ord$u20$for$u20$usize$GT$3cmp17h3e9a54d53fafb581E+0x42>
  3a:	2001      	movs	r0, #1
/rustc/50a0defd5a93523067ef239936cc2e0755220904/src/libcore/cmp.rs:989
  3c:	f88d 0013 	strb.w	r0, [sp, #19]
/rustc/50a0defd5a93523067ef239936cc2e0755220904/src/libcore/cmp.rs:988
  40:	e7ff      	b.n	42 <_ZN4core3cmp5impls50_$LT$impl$u20$core..cmp..Ord$u20$for$u20$usize$GT$3cmp17h3e9a54d53fafb581E+0x42>
/rustc/50a0defd5a93523067ef239936cc2e0755220904/src/libcore/cmp.rs:987
  42:	e7ff      	b.n	44 <_ZN4core3cmp5impls50_$LT$impl$u20$core..cmp..Ord$u20$for$u20$usize$GT$3cmp17h3e9a54d53fafb581E+0x44>
/rustc/50a0defd5a93523067ef239936cc2e0755220904/src/libcore/cmp.rs:990
  44:	f89d 0013 	ldrb.w	r0, [sp, #19]
  48:	b005      	add	sp, #20
  4a:	4770      	bx	lr

Disassembly of section .text._ZN4core3cmp5impls57_$LT$impl$u20$core..cmp..PartialOrd$u20$for$u20$usize$GT$2lt17ha4f715bf1b969d3eE:

00000000 <_ZN4core3cmp5impls57_$LT$impl$u20$core..cmp..PartialOrd$u20$for$u20$usize$GT$2lt17ha4f715bf1b969d3eE>:
_ZN4core3cmp5impls57_$LT$impl$u20$core..cmp..PartialOrd$u20$for$u20$usize$GT$2lt17ha4f715bf1b969d3eE():
/rustc/50a0defd5a93523067ef239936cc2e0755220904/src/libcore/cmp.rs:974
   0:	b084      	sub	sp, #16
   2:	460a      	mov	r2, r1
   4:	4603      	mov	r3, r0
   6:	9002      	str	r0, [sp, #8]
   8:	9103      	str	r1, [sp, #12]
   a:	9802      	ldr	r0, [sp, #8]
   c:	6800      	ldr	r0, [r0, #0]
   e:	9903      	ldr	r1, [sp, #12]
  10:	6809      	ldr	r1, [r1, #0]
  12:	f04f 0c00 	mov.w	ip, #0
  16:	4288      	cmp	r0, r1
  18:	bf38      	it	cc
  1a:	f04f 0c01 	movcc.w	ip, #1
  1e:	4660      	mov	r0, ip
  20:	9201      	str	r2, [sp, #4]
  22:	9300      	str	r3, [sp, #0]
  24:	b004      	add	sp, #16
  26:	4770      	bx	lr

cty-0197cbf7a3600457.cty.ewqn02bw-cgu.0.rcgu.o:     file format elf32-littlearm

SYMBOL TABLE:
00000000 l    df *ABS*	00000000 cty.ewqn02bw-cgu.0



cty-aaa0a2034f77a628.cty.1wm03uxu-cgu.0.rcgu.o:     file format elf32-littlearm

SYMBOL TABLE:
00000000 l    df *ABS*	00000000 cty.1wm03uxu-cgu.0



memchr-e5ca130edfba2c24.memchr.2jnkkboq-cgu.0.rcgu.o:     file format elf32-littlearm

SYMBOL TABLE:
00000000 l    df *ABS*	00000000 memchr.2jnkkboq-cgu.0
0000032c l       .debug_str	00000000 
000001a2 l       .debug_str	00000000 
000001ed l       .debug_str	00000000 
000001fd l       .debug_str	00000000 
00000201 l       .debug_str	00000000 
00000205 l       .debug_str	00000000 
0000020a l       .debug_str	00000000 
00000218 l       .debug_str	00000000 
0000025c l       .debug_str	00000000 
00000266 l       .debug_str	00000000 
000002ad l       .debug_str	00000000 
000002b9 l       .debug_str	00000000 
000002c0 l       .debug_str	00000000 
000002c4 l       .debug_str	00000000 
000002c9 l       .debug_str	00000000 
000002cf l       .debug_str	00000000 
000002d1 l       .debug_str	00000000 
000002d6 l       .debug_str	00000000 
000002e4 l       .debug_str	00000000 
00000339 l       .debug_str	00000000 
00000383 l       .debug_str	00000000 
00000392 l       .debug_str	00000000 
000003dd l       .debug_str	00000000 
000003ed l       .debug_str	00000000 
000003fb l       .debug_str	00000000 
0000043f l       .debug_str	00000000 
00000449 l       .debug_str	00000000 
0000044e l       .debug_str	00000000 
00000452 l       .debug_str	00000000 
00000454 l       .debug_str	00000000 
00000000 l       .debug_str	00000000 
00000041 l       .debug_str	00000000 
00000096 l       .debug_str	00000000 
000000e0 l       .debug_str	00000000 
000000e5 l       .debug_str	00000000 
000000e9 l       .debug_str	00000000 
000000f2 l       .debug_str	00000000 
0000013a l       .debug_str	00000000 
00000147 l       .debug_str	00000000 
0000014d l       .debug_str	00000000 
00000195 l       .debug_str	00000000 
00000000 l     F .text._ZN4core3num23_$LT$impl$u20$isize$GT$12wrapping_add17hc3de6e1b674ae8acE	00000022 _ZN4core3num23_$LT$impl$u20$isize$GT$12wrapping_add17hc3de6e1b674ae8acE
00000000 l     F .text._ZN4core3num23_$LT$impl$u20$isize$GT$15overflowing_neg17h8d64362b72a99ebeE	00000044 _ZN4core3num23_$LT$impl$u20$isize$GT$15overflowing_neg17h8d64362b72a99ebeE
00000000 l     F .text._ZN4core3num23_$LT$impl$u20$isize$GT$9min_value17h0bbfbfd4654c1a00E	00000006 _ZN4core3num23_$LT$impl$u20$isize$GT$9min_value17h0bbfbfd4654c1a00E
00000000 l     F .text._ZN4core3num23_$LT$impl$u20$usize$GT$11checked_mul17he7331e867aa928a9E	00000050 _ZN4core3num23_$LT$impl$u20$usize$GT$11checked_mul17he7331e867aa928a9E
00000000 l     F .text._ZN4core3num23_$LT$impl$u20$usize$GT$15overflowing_mul17hc0ff250c8cbd91ddE	00000052 _ZN4core3num23_$LT$impl$u20$usize$GT$15overflowing_mul17hc0ff250c8cbd91ddE
00000000 l     F .text._ZN4core3num23_$LT$impl$u20$usize$GT$9max_value17hb77c5e4e21811aeaE	00000006 _ZN4core3num23_$LT$impl$u20$usize$GT$9max_value17hb77c5e4e21811aeaE
00000000 l    d  .text._ZN4core3num23_$LT$impl$u20$isize$GT$12wrapping_add17hc3de6e1b674ae8acE	00000000 .text._ZN4core3num23_$LT$impl$u20$isize$GT$12wrapping_add17hc3de6e1b674ae8acE
00000000 l    d  .text._ZN4core3num23_$LT$impl$u20$isize$GT$12wrapping_neg17hf93fc63f2adf90ccE	00000000 .text._ZN4core3num23_$LT$impl$u20$isize$GT$12wrapping_neg17hf93fc63f2adf90ccE
00000000 l    d  .text._ZN4core3num23_$LT$impl$u20$isize$GT$15overflowing_neg17h8d64362b72a99ebeE	00000000 .text._ZN4core3num23_$LT$impl$u20$isize$GT$15overflowing_neg17h8d64362b72a99ebeE
00000000 l    d  .text._ZN4core3num23_$LT$impl$u20$isize$GT$9min_value17h0bbfbfd4654c1a00E	00000000 .text._ZN4core3num23_$LT$impl$u20$isize$GT$9min_value17h0bbfbfd4654c1a00E
00000000 l    d  .text._ZN4core3num23_$LT$impl$u20$usize$GT$11checked_mul17he7331e867aa928a9E	00000000 .text._ZN4core3num23_$LT$impl$u20$usize$GT$11checked_mul17he7331e867aa928a9E
00000000 l    d  .text._ZN4core3num23_$LT$impl$u20$usize$GT$12wrapping_sub17h049a26b7a4ff5318E	00000000 .text._ZN4core3num23_$LT$impl$u20$usize$GT$12wrapping_sub17h049a26b7a4ff5318E
00000000 l    d  .text._ZN4core3num23_$LT$impl$u20$usize$GT$14saturating_mul17hbe17bae9aebecc36E	00000000 .text._ZN4core3num23_$LT$impl$u20$usize$GT$14saturating_mul17hbe17bae9aebecc36E
00000000 l    d  .text._ZN4core3num23_$LT$impl$u20$usize$GT$15overflowing_mul17hc0ff250c8cbd91ddE	00000000 .text._ZN4core3num23_$LT$impl$u20$usize$GT$15overflowing_mul17hc0ff250c8cbd91ddE
00000000 l    d  .text._ZN4core3num23_$LT$impl$u20$usize$GT$9max_value17hb77c5e4e21811aeaE	00000000 .text._ZN4core3num23_$LT$impl$u20$usize$GT$9max_value17hb77c5e4e21811aeaE
00000000 l    d  .debug_abbrev	00000000 .debug_abbrev
00000000 l    d  .debug_info	00000000 .debug_info
00000000 l    d  .debug_ranges	00000000 .debug_ranges
00000000 l    d  .debug_frame	00000000 .debug_frame
00000000 l    d  .debug_line	00000000 .debug_line
00000000 g     F .text._ZN4core3num23_$LT$impl$u20$isize$GT$12wrapping_neg17hf93fc63f2adf90ccE	0000001c .hidden _ZN4core3num23_$LT$impl$u20$isize$GT$12wrapping_neg17hf93fc63f2adf90ccE
00000000 g     F .text._ZN4core3num23_$LT$impl$u20$usize$GT$12wrapping_sub17h049a26b7a4ff5318E	00000022 .hidden _ZN4core3num23_$LT$impl$u20$usize$GT$12wrapping_sub17h049a26b7a4ff5318E
00000000 g     F .text._ZN4core3num23_$LT$impl$u20$usize$GT$14saturating_mul17hbe17bae9aebecc36E	0000003a .hidden _ZN4core3num23_$LT$impl$u20$usize$GT$14saturating_mul17hbe17bae9aebecc36E
00000000         *UND*	00000000 _ZN4core6option15Option$LT$T$GT$9unwrap_or17h11bcdf00467e6e73E



Disassembly of section .text._ZN4core3num23_$LT$impl$u20$isize$GT$12wrapping_add17hc3de6e1b674ae8acE:

00000000 <_ZN4core3num23_$LT$impl$u20$isize$GT$12wrapping_add17hc3de6e1b674ae8acE>:
_ZN4core3num23_$LT$impl$u20$isize$GT$12wrapping_add17hc3de6e1b674ae8acE():
/rustc/50a0defd5a93523067ef239936cc2e0755220904/src/libcore/num/mod.rs:1117
   0:	b086      	sub	sp, #24
   2:	460a      	mov	r2, r1
   4:	4603      	mov	r3, r0
   6:	9003      	str	r0, [sp, #12]
   8:	9104      	str	r1, [sp, #16]
/rustc/50a0defd5a93523067ef239936cc2e0755220904/src/libcore/num/mod.rs:1118
   a:	9803      	ldr	r0, [sp, #12]
   c:	9904      	ldr	r1, [sp, #16]
   e:	4408      	add	r0, r1
  10:	9005      	str	r0, [sp, #20]
  12:	9805      	ldr	r0, [sp, #20]
  14:	9202      	str	r2, [sp, #8]
  16:	9301      	str	r3, [sp, #4]
  18:	9000      	str	r0, [sp, #0]
  1a:	e7ff      	b.n	1c <_ZN4core3num23_$LT$impl$u20$isize$GT$12wrapping_add17hc3de6e1b674ae8acE+0x1c>
/rustc/50a0defd5a93523067ef239936cc2e0755220904/src/libcore/num/mod.rs:1119
  1c:	9800      	ldr	r0, [sp, #0]
  1e:	b006      	add	sp, #24
  20:	4770      	bx	lr

Disassembly of section .text._ZN4core3num23_$LT$impl$u20$isize$GT$12wrapping_neg17hf93fc63f2adf90ccE:

00000000 <_ZN4core3num23_$LT$impl$u20$isize$GT$12wrapping_neg17hf93fc63f2adf90ccE>:
_ZN4core3num23_$LT$impl$u20$isize$GT$12wrapping_neg17hf93fc63f2adf90ccE():
/rustc/50a0defd5a93523067ef239936cc2e0755220904/src/libcore/num/mod.rs:1306
   0:	b580      	push	{r7, lr}
   2:	b084      	sub	sp, #16
   4:	4601      	mov	r1, r0
   6:	9003      	str	r0, [sp, #12]
/rustc/50a0defd5a93523067ef239936cc2e0755220904/src/libcore/num/mod.rs:1307
   8:	9803      	ldr	r0, [sp, #12]
   a:	9102      	str	r1, [sp, #8]
   c:	f7ff fffe 	bl	0 <_ZN4core3num23_$LT$impl$u20$isize$GT$12wrapping_neg17hf93fc63f2adf90ccE>
  10:	9101      	str	r1, [sp, #4]
  12:	9000      	str	r0, [sp, #0]
  14:	e7ff      	b.n	16 <_ZN4core3num23_$LT$impl$u20$isize$GT$12wrapping_neg17hf93fc63f2adf90ccE+0x16>
/rustc/50a0defd5a93523067ef239936cc2e0755220904/src/libcore/num/mod.rs:1308
  16:	9800      	ldr	r0, [sp, #0]
  18:	b004      	add	sp, #16
  1a:	bd80      	pop	{r7, pc}

Disassembly of section .text._ZN4core3num23_$LT$impl$u20$isize$GT$15overflowing_neg17h8d64362b72a99ebeE:

00000000 <_ZN4core3num23_$LT$impl$u20$isize$GT$15overflowing_neg17h8d64362b72a99ebeE>:
_ZN4core3num23_$LT$impl$u20$isize$GT$15overflowing_neg17h8d64362b72a99ebeE():
/rustc/50a0defd5a93523067ef239936cc2e0755220904/src/libcore/num/mod.rs:1680
   0:	b580      	push	{r7, lr}
   2:	b088      	sub	sp, #32
   4:	4601      	mov	r1, r0
   6:	9005      	str	r0, [sp, #20]
/rustc/50a0defd5a93523067ef239936cc2e0755220904/src/libcore/num/mod.rs:1681
   8:	9805      	ldr	r0, [sp, #20]
   a:	43c0      	mvns	r0, r0
   c:	2201      	movs	r2, #1
   e:	9104      	str	r1, [sp, #16]
  10:	4611      	mov	r1, r2
  12:	f7ff fffe 	bl	0 <_ZN4core3num23_$LT$impl$u20$isize$GT$15overflowing_neg17h8d64362b72a99ebeE>
  16:	9003      	str	r0, [sp, #12]
  18:	e7ff      	b.n	1a <_ZN4core3num23_$LT$impl$u20$isize$GT$15overflowing_neg17h8d64362b72a99ebeE+0x1a>
  1a:	9805      	ldr	r0, [sp, #20]
  1c:	9002      	str	r0, [sp, #8]
  1e:	f7ff fffe 	bl	0 <_ZN4core3num23_$LT$impl$u20$isize$GT$15overflowing_neg17h8d64362b72a99ebeE>
  22:	9001      	str	r0, [sp, #4]
  24:	e7ff      	b.n	26 <_ZN4core3num23_$LT$impl$u20$isize$GT$15overflowing_neg17h8d64362b72a99ebeE+0x26>
  26:	9802      	ldr	r0, [sp, #8]
  28:	9901      	ldr	r1, [sp, #4]
  2a:	1a42      	subs	r2, r0, r1
  2c:	fab2 f282 	clz	r2, r2
  30:	0952      	lsrs	r2, r2, #5
  32:	9b03      	ldr	r3, [sp, #12]
  34:	9306      	str	r3, [sp, #24]
  36:	f88d 201c 	strb.w	r2, [sp, #28]
/rustc/50a0defd5a93523067ef239936cc2e0755220904/src/libcore/num/mod.rs:1682
  3a:	9806      	ldr	r0, [sp, #24]
  3c:	f89d 101c 	ldrb.w	r1, [sp, #28]
  40:	b008      	add	sp, #32
  42:	bd80      	pop	{r7, pc}

Disassembly of section .text._ZN4core3num23_$LT$impl$u20$isize$GT$9min_value17h0bbfbfd4654c1a00E:

00000000 <_ZN4core3num23_$LT$impl$u20$isize$GT$9min_value17h0bbfbfd4654c1a00E>:
_ZN4core3num23_$LT$impl$u20$isize$GT$9min_value17h0bbfbfd4654c1a00E():
/rustc/50a0defd5a93523067ef239936cc2e0755220904/src/libcore/num/mod.rs:256
   0:	f04f 4000 	mov.w	r0, #2147483648	; 0x80000000
/rustc/50a0defd5a93523067ef239936cc2e0755220904/src/libcore/num/mod.rs:258
   4:	4770      	bx	lr

Disassembly of section .text._ZN4core3num23_$LT$impl$u20$usize$GT$11checked_mul17he7331e867aa928a9E:

00000000 <_ZN4core3num23_$LT$impl$u20$usize$GT$11checked_mul17he7331e867aa928a9E>:
_ZN4core3num23_$LT$impl$u20$usize$GT$11checked_mul17he7331e867aa928a9E():
/rustc/50a0defd5a93523067ef239936cc2e0755220904/src/libcore/num/mod.rs:2722
   0:	b580      	push	{r7, lr}
   2:	b08a      	sub	sp, #40	; 0x28
   4:	460a      	mov	r2, r1
   6:	4603      	mov	r3, r0
   8:	9004      	str	r0, [sp, #16]
   a:	9105      	str	r1, [sp, #20]
/rustc/50a0defd5a93523067ef239936cc2e0755220904/src/libcore/num/mod.rs:2723
   c:	9804      	ldr	r0, [sp, #16]
   e:	9905      	ldr	r1, [sp, #20]
  10:	9203      	str	r2, [sp, #12]
  12:	9302      	str	r3, [sp, #8]
  14:	f7ff fffe 	bl	0 <_ZN4core3num23_$LT$impl$u20$usize$GT$11checked_mul17he7331e867aa928a9E>
  18:	9001      	str	r0, [sp, #4]
  1a:	9100      	str	r1, [sp, #0]
  1c:	e7ff      	b.n	1e <_ZN4core3num23_$LT$impl$u20$usize$GT$11checked_mul17he7331e867aa928a9E+0x1e>
  1e:	9801      	ldr	r0, [sp, #4]
  20:	9008      	str	r0, [sp, #32]
  22:	9900      	ldr	r1, [sp, #0]
  24:	f001 0201 	and.w	r2, r1, #1
  28:	f88d 2027 	strb.w	r2, [sp, #39]	; 0x27
/rustc/50a0defd5a93523067ef239936cc2e0755220904/src/libcore/num/mod.rs:2724
  2c:	f89d 2027 	ldrb.w	r2, [sp, #39]	; 0x27
  30:	07d2      	lsls	r2, r2, #31
  32:	2a00      	cmp	r2, #0
  34:	d003      	beq.n	3e <_ZN4core3num23_$LT$impl$u20$usize$GT$11checked_mul17he7331e867aa928a9E+0x3e>
  36:	e7ff      	b.n	38 <_ZN4core3num23_$LT$impl$u20$usize$GT$11checked_mul17he7331e867aa928a9E+0x38>
  38:	2000      	movs	r0, #0
  3a:	9006      	str	r0, [sp, #24]
  3c:	e004      	b.n	48 <_ZN4core3num23_$LT$impl$u20$usize$GT$11checked_mul17he7331e867aa928a9E+0x48>
  3e:	9808      	ldr	r0, [sp, #32]
  40:	9007      	str	r0, [sp, #28]
  42:	2001      	movs	r0, #1
  44:	9006      	str	r0, [sp, #24]
  46:	e7ff      	b.n	48 <_ZN4core3num23_$LT$impl$u20$usize$GT$11checked_mul17he7331e867aa928a9E+0x48>
/rustc/50a0defd5a93523067ef239936cc2e0755220904/src/libcore/num/mod.rs:2725
  48:	9806      	ldr	r0, [sp, #24]
  4a:	9907      	ldr	r1, [sp, #28]
  4c:	b00a      	add	sp, #40	; 0x28
  4e:	bd80      	pop	{r7, pc}

Disassembly of section .text._ZN4core3num23_$LT$impl$u20$usize$GT$12wrapping_sub17h049a26b7a4ff5318E:

00000000 <_ZN4core3num23_$LT$impl$u20$usize$GT$12wrapping_sub17h049a26b7a4ff5318E>:
_ZN4core3num23_$LT$impl$u20$usize$GT$12wrapping_sub17h049a26b7a4ff5318E():
/rustc/50a0defd5a93523067ef239936cc2e0755220904/src/libcore/num/mod.rs:3070
   0:	b086      	sub	sp, #24
   2:	460a      	mov	r2, r1
   4:	4603      	mov	r3, r0
   6:	9003      	str	r0, [sp, #12]
   8:	9104      	str	r1, [sp, #16]
/rustc/50a0defd5a93523067ef239936cc2e0755220904/src/libcore/num/mod.rs:3071
   a:	9803      	ldr	r0, [sp, #12]
   c:	9904      	ldr	r1, [sp, #16]
   e:	1a40      	subs	r0, r0, r1
  10:	9005      	str	r0, [sp, #20]
  12:	9805      	ldr	r0, [sp, #20]
  14:	9202      	str	r2, [sp, #8]
  16:	9301      	str	r3, [sp, #4]
  18:	9000      	str	r0, [sp, #0]
  1a:	e7ff      	b.n	1c <_ZN4core3num23_$LT$impl$u20$usize$GT$12wrapping_sub17h049a26b7a4ff5318E+0x1c>
/rustc/50a0defd5a93523067ef239936cc2e0755220904/src/libcore/num/mod.rs:3072
  1c:	9800      	ldr	r0, [sp, #0]
  1e:	b006      	add	sp, #24
  20:	4770      	bx	lr

Disassembly of section .text._ZN4core3num23_$LT$impl$u20$usize$GT$14saturating_mul17hbe17bae9aebecc36E:

00000000 <_ZN4core3num23_$LT$impl$u20$usize$GT$14saturating_mul17hbe17bae9aebecc36E>:
_ZN4core3num23_$LT$impl$u20$usize$GT$14saturating_mul17hbe17bae9aebecc36E():
/rustc/50a0defd5a93523067ef239936cc2e0755220904/src/libcore/num/mod.rs:2999
   0:	b580      	push	{r7, lr}
   2:	b088      	sub	sp, #32
   4:	460a      	mov	r2, r1
   6:	4603      	mov	r3, r0
   8:	9006      	str	r0, [sp, #24]
   a:	9107      	str	r1, [sp, #28]
/rustc/50a0defd5a93523067ef239936cc2e0755220904/src/libcore/num/mod.rs:3000
   c:	9806      	ldr	r0, [sp, #24]
   e:	9907      	ldr	r1, [sp, #28]
  10:	9205      	str	r2, [sp, #20]
  12:	9304      	str	r3, [sp, #16]
  14:	f7ff fffe 	bl	0 <_ZN4core3num23_$LT$impl$u20$usize$GT$14saturating_mul17hbe17bae9aebecc36E>
  18:	9003      	str	r0, [sp, #12]
  1a:	9102      	str	r1, [sp, #8]
  1c:	e7ff      	b.n	1e <_ZN4core3num23_$LT$impl$u20$usize$GT$14saturating_mul17hbe17bae9aebecc36E+0x1e>
  1e:	f7ff fffe 	bl	0 <_ZN4core3num23_$LT$impl$u20$usize$GT$14saturating_mul17hbe17bae9aebecc36E>
  22:	9001      	str	r0, [sp, #4]
  24:	e7ff      	b.n	26 <_ZN4core3num23_$LT$impl$u20$usize$GT$14saturating_mul17hbe17bae9aebecc36E+0x26>
  26:	9803      	ldr	r0, [sp, #12]
  28:	9902      	ldr	r1, [sp, #8]
  2a:	9a01      	ldr	r2, [sp, #4]
  2c:	f7ff fffe 	bl	0 <_ZN4core6option15Option$LT$T$GT$9unwrap_or17h11bcdf00467e6e73E>
  30:	9000      	str	r0, [sp, #0]
  32:	e7ff      	b.n	34 <_ZN4core3num23_$LT$impl$u20$usize$GT$14saturating_mul17hbe17bae9aebecc36E+0x34>
/rustc/50a0defd5a93523067ef239936cc2e0755220904/src/libcore/num/mod.rs:3001
  34:	9800      	ldr	r0, [sp, #0]
  36:	b008      	add	sp, #32
  38:	bd80      	pop	{r7, pc}

Disassembly of section .text._ZN4core3num23_$LT$impl$u20$usize$GT$15overflowing_mul17hc0ff250c8cbd91ddE:

00000000 <_ZN4core3num23_$LT$impl$u20$usize$GT$15overflowing_mul17hc0ff250c8cbd91ddE>:
_ZN4core3num23_$LT$impl$u20$usize$GT$15overflowing_mul17hc0ff250c8cbd91ddE():
/rustc/50a0defd5a93523067ef239936cc2e0755220904/src/libcore/num/mod.rs:3403
   0:	b08c      	sub	sp, #48	; 0x30
   2:	460a      	mov	r2, r1
   4:	4603      	mov	r3, r0
   6:	9004      	str	r0, [sp, #16]
   8:	9105      	str	r1, [sp, #20]
/rustc/50a0defd5a93523067ef239936cc2e0755220904/src/libcore/num/mod.rs:3404
   a:	9804      	ldr	r0, [sp, #16]
   c:	9905      	ldr	r1, [sp, #20]
   e:	fba0 0101 	umull	r0, r1, r0, r1
  12:	2900      	cmp	r1, #0
  14:	bf18      	it	ne
  16:	2101      	movne	r1, #1
  18:	900a      	str	r0, [sp, #40]	; 0x28
  1a:	f88d 102c 	strb.w	r1, [sp, #44]	; 0x2c
  1e:	980a      	ldr	r0, [sp, #40]	; 0x28
  20:	f89d 102c 	ldrb.w	r1, [sp, #44]	; 0x2c
  24:	9203      	str	r2, [sp, #12]
  26:	9302      	str	r3, [sp, #8]
  28:	9001      	str	r0, [sp, #4]
  2a:	9100      	str	r1, [sp, #0]
  2c:	e7ff      	b.n	2e <_ZN4core3num23_$LT$impl$u20$usize$GT$15overflowing_mul17hc0ff250c8cbd91ddE+0x2e>
  2e:	9801      	ldr	r0, [sp, #4]
  30:	9008      	str	r0, [sp, #32]
  32:	9900      	ldr	r1, [sp, #0]
  34:	f001 0201 	and.w	r2, r1, #1
  38:	f88d 2027 	strb.w	r2, [sp, #39]	; 0x27
/rustc/50a0defd5a93523067ef239936cc2e0755220904/src/libcore/num/mod.rs:3405
  3c:	9a08      	ldr	r2, [sp, #32]
  3e:	f89d 3027 	ldrb.w	r3, [sp, #39]	; 0x27
  42:	9206      	str	r2, [sp, #24]
  44:	f88d 301c 	strb.w	r3, [sp, #28]
/rustc/50a0defd5a93523067ef239936cc2e0755220904/src/libcore/num/mod.rs:3406
  48:	9806      	ldr	r0, [sp, #24]
  4a:	f89d 101c 	ldrb.w	r1, [sp, #28]
  4e:	b00c      	add	sp, #48	; 0x30
  50:	4770      	bx	lr

Disassembly of section .text._ZN4core3num23_$LT$impl$u20$usize$GT$9max_value17hb77c5e4e21811aeaE:

00000000 <_ZN4core3num23_$LT$impl$u20$usize$GT$9max_value17hb77c5e4e21811aeaE>:
_ZN4core3num23_$LT$impl$u20$usize$GT$9max_value17hb77c5e4e21811aeaE():
/rustc/50a0defd5a93523067ef239936cc2e0755220904/src/libcore/num/mod.rs:2327
   0:	f04f 30ff 	mov.w	r0, #4294967295	; 0xffffffff
   4:	4770      	bx	lr

memchr-e5ca130edfba2c24.memchr.2jnkkboq-cgu.1.rcgu.o:     file format elf32-littlearm

SYMBOL TABLE:
00000000 l    df *ABS*	00000000 memchr.2jnkkboq-cgu.1
000002e7 l       .debug_str	00000000 
000002db l       .debug_str	00000000 
000002e1 l       .debug_str	00000000 
000002eb l       .debug_str	00000000 
00000300 l       .debug_str	00000000 
000002fc l       .debug_str	00000000 
00000000 l       .debug_str	00000000 
00000041 l       .debug_str	00000000 
00000096 l       .debug_str	00000000 
000000e0 l       .debug_str	00000000 
000000e5 l       .debug_str	00000000 
000000eb l       .debug_str	00000000 
000000f4 l       .debug_str	00000000 
000000f7 l       .debug_str	00000000 
000000f9 l       .debug_str	00000000 
00000181 l       .debug_str	00000000 
0000018b l       .debug_str	00000000 
00000194 l       .debug_str	00000000 
0000019e l       .debug_str	00000000 
000001a5 l       .debug_str	00000000 
000001ab l       .debug_str	00000000 
000001b1 l       .debug_str	00000000 
0000023d l       .debug_str	00000000 
0000024f l       .debug_str	00000000 
000002d2 l       .debug_str	00000000 
000002d7 l       .debug_str	00000000 
00000000 l    d  .text._ZN103_$LT$core..ops..range..RangeFrom$LT$usize$GT$$u20$as$u20$core..slice..SliceIndex$LT$$u5b$T$u5d$$GT$$GT$5index17h1803157cb2b374e1E	00000000 .text._ZN103_$LT$core..ops..range..RangeFrom$LT$usize$GT$$u20$as$u20$core..slice..SliceIndex$LT$$u5b$T$u5d$$GT$$GT$5index17h1803157cb2b374e1E
00000000 l    d  .text._ZN99_$LT$core..ops..range..Range$LT$usize$GT$$u20$as$u20$core..slice..SliceIndex$LT$$u5b$T$u5d$$GT$$GT$13get_unchecked17hb331c1c803e977d3E	00000000 .text._ZN99_$LT$core..ops..range..Range$LT$usize$GT$$u20$as$u20$core..slice..SliceIndex$LT$$u5b$T$u5d$$GT$$GT$13get_unchecked17hb331c1c803e977d3E
00000000 l    d  .text._ZN99_$LT$core..ops..range..Range$LT$usize$GT$$u20$as$u20$core..slice..SliceIndex$LT$$u5b$T$u5d$$GT$$GT$5index17hebce8ce8ee9eefe0E	00000000 .text._ZN99_$LT$core..ops..range..Range$LT$usize$GT$$u20$as$u20$core..slice..SliceIndex$LT$$u5b$T$u5d$$GT$$GT$5index17hebce8ce8ee9eefe0E
00000000 l    d  .debug_abbrev	00000000 .debug_abbrev
00000000 l    d  .debug_info	00000000 .debug_info
00000000 l    d  .debug_ranges	00000000 .debug_ranges
00000000 l    d  .debug_frame	00000000 .debug_frame
00000000 l    d  .debug_line	00000000 .debug_line
00000000 g     F .text._ZN103_$LT$core..ops..range..RangeFrom$LT$usize$GT$$u20$as$u20$core..slice..SliceIndex$LT$$u5b$T$u5d$$GT$$GT$5index17h1803157cb2b374e1E	00000050 _ZN103_$LT$core..ops..range..RangeFrom$LT$usize$GT$$u20$as$u20$core..slice..SliceIndex$LT$$u5b$T$u5d$$GT$$GT$5index17h1803157cb2b374e1E
00000000         *UND*	00000000 _ZN4core3ptr33_$LT$impl$u20$$BP$const$u20$T$GT$3add17h070926fb062338c0E
00000000         *UND*	00000000 _ZN4core5slice14from_raw_parts17h43814f7b9fdef66aE
00000000         *UND*	00000000 _ZN4core5slice20slice_index_len_fail17hedb5bb240677a6b7E
00000000         *UND*	00000000 _ZN4core5slice22slice_index_order_fail17h604ca25004a88762E
00000000         *UND*	00000000 _ZN4core5slice29_$LT$impl$u20$$u5b$T$u5d$$GT$3len17h63f985867d9f263fE
00000000         *UND*	00000000 _ZN4core5slice29_$LT$impl$u20$$u5b$T$u5d$$GT$6as_ptr17hd0263209417be61aE
00000000 g     F .text._ZN99_$LT$core..ops..range..Range$LT$usize$GT$$u20$as$u20$core..slice..SliceIndex$LT$$u5b$T$u5d$$GT$$GT$13get_unchecked17hb331c1c803e977d3E	00000052 _ZN99_$LT$core..ops..range..Range$LT$usize$GT$$u20$as$u20$core..slice..SliceIndex$LT$$u5b$T$u5d$$GT$$GT$13get_unchecked17hb331c1c803e977d3E
00000000 g     F .text._ZN99_$LT$core..ops..range..Range$LT$usize$GT$$u20$as$u20$core..slice..SliceIndex$LT$$u5b$T$u5d$$GT$$GT$5index17hebce8ce8ee9eefe0E	0000008a _ZN99_$LT$core..ops..range..Range$LT$usize$GT$$u20$as$u20$core..slice..SliceIndex$LT$$u5b$T$u5d$$GT$$GT$5index17hebce8ce8ee9eefe0E



Disassembly of section .text._ZN103_$LT$core..ops..range..RangeFrom$LT$usize$GT$$u20$as$u20$core..slice..SliceIndex$LT$$u5b$T$u5d$$GT$$GT$5index17h1803157cb2b374e1E:

00000000 <_ZN103_$LT$core..ops..range..RangeFrom$LT$usize$GT$$u20$as$u20$core..slice..SliceIndex$LT$$u5b$T$u5d$$GT$$GT$5index17h1803157cb2b374e1E>:
_ZN103_$LT$core..ops..range..RangeFrom$LT$usize$GT$$u20$as$u20$core..slice..SliceIndex$LT$$u5b$T$u5d$$GT$$GT$5index17h1803157cb2b374e1E():
/rustc/50a0defd5a93523067ef239936cc2e0755220904/src/libcore/slice/mod.rs:2826
   0:	b580      	push	{r7, lr}
   2:	b08c      	sub	sp, #48	; 0x30
   4:	4613      	mov	r3, r2
   6:	468c      	mov	ip, r1
   8:	4686      	mov	lr, r0
   a:	9007      	str	r0, [sp, #28]
   c:	9108      	str	r1, [sp, #32]
   e:	9209      	str	r2, [sp, #36]	; 0x24
/rustc/50a0defd5a93523067ef239936cc2e0755220904/src/libcore/slice/mod.rs:2827
  10:	9807      	ldr	r0, [sp, #28]
  12:	9908      	ldr	r1, [sp, #32]
  14:	9a09      	ldr	r2, [sp, #36]	; 0x24
  16:	9006      	str	r0, [sp, #24]
  18:	4608      	mov	r0, r1
  1a:	4611      	mov	r1, r2
  1c:	9305      	str	r3, [sp, #20]
  1e:	f8cd c010 	str.w	ip, [sp, #16]
  22:	f8cd e00c 	str.w	lr, [sp, #12]
  26:	f7ff fffe 	bl	0 <_ZN4core5slice29_$LT$impl$u20$$u5b$T$u5d$$GT$3len17h63f985867d9f263fE>
  2a:	9002      	str	r0, [sp, #8]
  2c:	e7ff      	b.n	2e <_ZN103_$LT$core..ops..range..RangeFrom$LT$usize$GT$$u20$as$u20$core..slice..SliceIndex$LT$$u5b$T$u5d$$GT$$GT$5index17h1803157cb2b374e1E+0x2e>
  2e:	9806      	ldr	r0, [sp, #24]
  30:	900a      	str	r0, [sp, #40]	; 0x28
  32:	9902      	ldr	r1, [sp, #8]
  34:	910b      	str	r1, [sp, #44]	; 0x2c
  36:	9a08      	ldr	r2, [sp, #32]
  38:	9b09      	ldr	r3, [sp, #36]	; 0x24
  3a:	980a      	ldr	r0, [sp, #40]	; 0x28
  3c:	990b      	ldr	r1, [sp, #44]	; 0x2c
  3e:	f7ff fffe 	bl	0 <_ZN103_$LT$core..ops..range..RangeFrom$LT$usize$GT$$u20$as$u20$core..slice..SliceIndex$LT$$u5b$T$u5d$$GT$$GT$5index17h1803157cb2b374e1E>
  42:	9001      	str	r0, [sp, #4]
  44:	9100      	str	r1, [sp, #0]
  46:	e7ff      	b.n	48 <_ZN103_$LT$core..ops..range..RangeFrom$LT$usize$GT$$u20$as$u20$core..slice..SliceIndex$LT$$u5b$T$u5d$$GT$$GT$5index17h1803157cb2b374e1E+0x48>
/rustc/50a0defd5a93523067ef239936cc2e0755220904/src/libcore/slice/mod.rs:2828
  48:	9801      	ldr	r0, [sp, #4]
  4a:	9900      	ldr	r1, [sp, #0]
  4c:	b00c      	add	sp, #48	; 0x30
  4e:	bd80      	pop	{r7, pc}

Disassembly of section .text._ZN99_$LT$core..ops..range..Range$LT$usize$GT$$u20$as$u20$core..slice..SliceIndex$LT$$u5b$T$u5d$$GT$$GT$13get_unchecked17hb331c1c803e977d3E:

00000000 <_ZN99_$LT$core..ops..range..Range$LT$usize$GT$$u20$as$u20$core..slice..SliceIndex$LT$$u5b$T$u5d$$GT$$GT$13get_unchecked17hb331c1c803e977d3E>:
_ZN99_$LT$core..ops..range..Range$LT$usize$GT$$u20$as$u20$core..slice..SliceIndex$LT$$u5b$T$u5d$$GT$$GT$13get_unchecked17hb331c1c803e977d3E():
/rustc/50a0defd5a93523067ef239936cc2e0755220904/src/libcore/slice/mod.rs:2732
   0:	b5b0      	push	{r4, r5, r7, lr}
   2:	b08c      	sub	sp, #48	; 0x30
   4:	469c      	mov	ip, r3
   6:	4696      	mov	lr, r2
   8:	460c      	mov	r4, r1
   a:	4605      	mov	r5, r0
   c:	9008      	str	r0, [sp, #32]
   e:	9109      	str	r1, [sp, #36]	; 0x24
  10:	920a      	str	r2, [sp, #40]	; 0x28
  12:	930b      	str	r3, [sp, #44]	; 0x2c
/rustc/50a0defd5a93523067ef239936cc2e0755220904/src/libcore/slice/mod.rs:2733
  14:	980a      	ldr	r0, [sp, #40]	; 0x28
  16:	990b      	ldr	r1, [sp, #44]	; 0x2c
  18:	f8cd c01c 	str.w	ip, [sp, #28]
  1c:	f8cd e018 	str.w	lr, [sp, #24]
  20:	9405      	str	r4, [sp, #20]
  22:	9504      	str	r5, [sp, #16]
  24:	f7ff fffe 	bl	0 <_ZN4core5slice29_$LT$impl$u20$$u5b$T$u5d$$GT$6as_ptr17hd0263209417be61aE>
  28:	9003      	str	r0, [sp, #12]
  2a:	e7ff      	b.n	2c <_ZN99_$LT$core..ops..range..Range$LT$usize$GT$$u20$as$u20$core..slice..SliceIndex$LT$$u5b$T$u5d$$GT$$GT$13get_unchecked17hb331c1c803e977d3E+0x2c>
  2c:	9908      	ldr	r1, [sp, #32]
  2e:	9803      	ldr	r0, [sp, #12]
  30:	f7ff fffe 	bl	0 <_ZN4core3ptr33_$LT$impl$u20$$BP$const$u20$T$GT$3add17h070926fb062338c0E>
  34:	9002      	str	r0, [sp, #8]
  36:	e7ff      	b.n	38 <_ZN99_$LT$core..ops..range..Range$LT$usize$GT$$u20$as$u20$core..slice..SliceIndex$LT$$u5b$T$u5d$$GT$$GT$13get_unchecked17hb331c1c803e977d3E+0x38>
  38:	9808      	ldr	r0, [sp, #32]
  3a:	9909      	ldr	r1, [sp, #36]	; 0x24
  3c:	1a09      	subs	r1, r1, r0
  3e:	9802      	ldr	r0, [sp, #8]
  40:	f7ff fffe 	bl	0 <_ZN4core5slice14from_raw_parts17h43814f7b9fdef66aE>
  44:	9001      	str	r0, [sp, #4]
  46:	9100      	str	r1, [sp, #0]
  48:	e7ff      	b.n	4a <_ZN99_$LT$core..ops..range..Range$LT$usize$GT$$u20$as$u20$core..slice..SliceIndex$LT$$u5b$T$u5d$$GT$$GT$13get_unchecked17hb331c1c803e977d3E+0x4a>
/rustc/50a0defd5a93523067ef239936cc2e0755220904/src/libcore/slice/mod.rs:2734
  4a:	9801      	ldr	r0, [sp, #4]
  4c:	9900      	ldr	r1, [sp, #0]
  4e:	b00c      	add	sp, #48	; 0x30
  50:	bdb0      	pop	{r4, r5, r7, pc}

Disassembly of section .text._ZN99_$LT$core..ops..range..Range$LT$usize$GT$$u20$as$u20$core..slice..SliceIndex$LT$$u5b$T$u5d$$GT$$GT$5index17hebce8ce8ee9eefe0E:

00000000 <_ZN99_$LT$core..ops..range..Range$LT$usize$GT$$u20$as$u20$core..slice..SliceIndex$LT$$u5b$T$u5d$$GT$$GT$5index17hebce8ce8ee9eefe0E>:
_ZN99_$LT$core..ops..range..Range$LT$usize$GT$$u20$as$u20$core..slice..SliceIndex$LT$$u5b$T$u5d$$GT$$GT$5index17hebce8ce8ee9eefe0E():
/rustc/50a0defd5a93523067ef239936cc2e0755220904/src/libcore/slice/mod.rs:2742
   0:	b5b0      	push	{r4, r5, r7, lr}
   2:	b08e      	sub	sp, #56	; 0x38
   4:	469c      	mov	ip, r3
   6:	4696      	mov	lr, r2
   8:	460c      	mov	r4, r1
   a:	4605      	mov	r5, r0
   c:	900a      	str	r0, [sp, #40]	; 0x28
   e:	910b      	str	r1, [sp, #44]	; 0x2c
  10:	920c      	str	r2, [sp, #48]	; 0x30
  12:	930d      	str	r3, [sp, #52]	; 0x34
/rustc/50a0defd5a93523067ef239936cc2e0755220904/src/libcore/slice/mod.rs:2743
  14:	980a      	ldr	r0, [sp, #40]	; 0x28
  16:	990b      	ldr	r1, [sp, #44]	; 0x2c
  18:	4288      	cmp	r0, r1
  1a:	f8cd c024 	str.w	ip, [sp, #36]	; 0x24
  1e:	f8cd e020 	str.w	lr, [sp, #32]
  22:	9407      	str	r4, [sp, #28]
  24:	9506      	str	r5, [sp, #24]
  26:	d905      	bls.n	34 <_ZN99_$LT$core..ops..range..Range$LT$usize$GT$$u20$as$u20$core..slice..SliceIndex$LT$$u5b$T$u5d$$GT$$GT$5index17hebce8ce8ee9eefe0E+0x34>
  28:	e7ff      	b.n	2a <_ZN99_$LT$core..ops..range..Range$LT$usize$GT$$u20$as$u20$core..slice..SliceIndex$LT$$u5b$T$u5d$$GT$$GT$5index17hebce8ce8ee9eefe0E+0x2a>
/rustc/50a0defd5a93523067ef239936cc2e0755220904/src/libcore/slice/mod.rs:2744
  2a:	980a      	ldr	r0, [sp, #40]	; 0x28
  2c:	990b      	ldr	r1, [sp, #44]	; 0x2c
  2e:	f7ff fffe 	bl	0 <_ZN4core5slice22slice_index_order_fail17h604ca25004a88762E>
  32:	defe      	udf	#254	; 0xfe
/rustc/50a0defd5a93523067ef239936cc2e0755220904/src/libcore/slice/mod.rs:2745
  34:	980b      	ldr	r0, [sp, #44]	; 0x2c
  36:	990c      	ldr	r1, [sp, #48]	; 0x30
  38:	9a0d      	ldr	r2, [sp, #52]	; 0x34
  3a:	9005      	str	r0, [sp, #20]
  3c:	4608      	mov	r0, r1
  3e:	4611      	mov	r1, r2
  40:	f7ff fffe 	bl	0 <_ZN4core5slice29_$LT$impl$u20$$u5b$T$u5d$$GT$3len17h63f985867d9f263fE>
  44:	9004      	str	r0, [sp, #16]
  46:	e7ff      	b.n	48 <_ZN99_$LT$core..ops..range..Range$LT$usize$GT$$u20$as$u20$core..slice..SliceIndex$LT$$u5b$T$u5d$$GT$$GT$5index17hebce8ce8ee9eefe0E+0x48>
  48:	9805      	ldr	r0, [sp, #20]
  4a:	9904      	ldr	r1, [sp, #16]
  4c:	4288      	cmp	r0, r1
  4e:	d90f      	bls.n	70 <_ZN99_$LT$core..ops..range..Range$LT$usize$GT$$u20$as$u20$core..slice..SliceIndex$LT$$u5b$T$u5d$$GT$$GT$5index17hebce8ce8ee9eefe0E+0x70>
  50:	e7ff      	b.n	52 <_ZN99_$LT$core..ops..range..Range$LT$usize$GT$$u20$as$u20$core..slice..SliceIndex$LT$$u5b$T$u5d$$GT$$GT$5index17hebce8ce8ee9eefe0E+0x52>
/rustc/50a0defd5a93523067ef239936cc2e0755220904/src/libcore/slice/mod.rs:2746
  52:	980b      	ldr	r0, [sp, #44]	; 0x2c
  54:	990c      	ldr	r1, [sp, #48]	; 0x30
  56:	9a0d      	ldr	r2, [sp, #52]	; 0x34
  58:	9003      	str	r0, [sp, #12]
  5a:	4608      	mov	r0, r1
  5c:	4611      	mov	r1, r2
  5e:	f7ff fffe 	bl	0 <_ZN4core5slice29_$LT$impl$u20$$u5b$T$u5d$$GT$3len17h63f985867d9f263fE>
  62:	9002      	str	r0, [sp, #8]
  64:	e7ff      	b.n	66 <_ZN99_$LT$core..ops..range..Range$LT$usize$GT$$u20$as$u20$core..slice..SliceIndex$LT$$u5b$T$u5d$$GT$$GT$5index17hebce8ce8ee9eefe0E+0x66>
  66:	9803      	ldr	r0, [sp, #12]
  68:	9902      	ldr	r1, [sp, #8]
  6a:	f7ff fffe 	bl	0 <_ZN4core5slice20slice_index_len_fail17hedb5bb240677a6b7E>
  6e:	defe      	udf	#254	; 0xfe
/rustc/50a0defd5a93523067ef239936cc2e0755220904/src/libcore/slice/mod.rs:2749
  70:	980a      	ldr	r0, [sp, #40]	; 0x28
  72:	990b      	ldr	r1, [sp, #44]	; 0x2c
  74:	9a0c      	ldr	r2, [sp, #48]	; 0x30
  76:	9b0d      	ldr	r3, [sp, #52]	; 0x34
  78:	f7ff fffe 	bl	0 <_ZN99_$LT$core..ops..range..Range$LT$usize$GT$$u20$as$u20$core..slice..SliceIndex$LT$$u5b$T$u5d$$GT$$GT$5index17hebce8ce8ee9eefe0E>
  7c:	9001      	str	r0, [sp, #4]
  7e:	9100      	str	r1, [sp, #0]
  80:	e7ff      	b.n	82 <_ZN99_$LT$core..ops..range..Range$LT$usize$GT$$u20$as$u20$core..slice..SliceIndex$LT$$u5b$T$u5d$$GT$$GT$5index17hebce8ce8ee9eefe0E+0x82>
/rustc/50a0defd5a93523067ef239936cc2e0755220904/src/libcore/slice/mod.rs:2751
  82:	9801      	ldr	r0, [sp, #4]
  84:	9900      	ldr	r1, [sp, #0]
  86:	b00e      	add	sp, #56	; 0x38
  88:	bdb0      	pop	{r4, r5, r7, pc}

memchr-e5ca130edfba2c24.memchr.2jnkkboq-cgu.10.rcgu.o:     file format elf32-littlearm

SYMBOL TABLE:
00000000 l    df *ABS*	00000000 memchr.2jnkkboq-cgu.10
00000123 l       .debug_str	00000000 
00000117 l       .debug_str	00000000 
00000129 l       .debug_str	00000000 
00000153 l       .debug_str	00000000 
00000000 l       .debug_str	00000000 
00000041 l       .debug_str	00000000 
00000096 l       .debug_str	00000000 
000000e0 l       .debug_str	00000000 
000000e5 l       .debug_str	00000000 
000000e9 l       .debug_str	00000000 
000000ec l       .debug_str	00000000 
000000ee l       .debug_str	00000000 
00000000 l    d  .text._ZN4core3mem7size_of17h96e196a831b2ee50E	00000000 .text._ZN4core3mem7size_of17h96e196a831b2ee50E
00000000 l    d  .text._ZN4core3mem8align_of17h58768cca995720e6E	00000000 .text._ZN4core3mem8align_of17h58768cca995720e6E
00000000 l    d  .debug_abbrev	00000000 .debug_abbrev
00000000 l    d  .debug_info	00000000 .debug_info
00000000 l    d  .debug_ranges	00000000 .debug_ranges
00000000 l    d  .debug_frame	00000000 .debug_frame
00000000 l    d  .debug_line	00000000 .debug_line
00000000 g     F .text._ZN4core3mem7size_of17h96e196a831b2ee50E	00000012 _ZN4core3mem7size_of17h96e196a831b2ee50E
00000000 g     F .text._ZN4core3mem8align_of17h58768cca995720e6E	00000012 _ZN4core3mem8align_of17h58768cca995720e6E



Disassembly of section .text._ZN4core3mem7size_of17h96e196a831b2ee50E:

00000000 <_ZN4core3mem7size_of17h96e196a831b2ee50E>:
_ZN4core3mem7size_of17h96e196a831b2ee50E():
/rustc/50a0defd5a93523067ef239936cc2e0755220904/src/libcore/mem.rs:235
   0:	b082      	sub	sp, #8
   2:	2001      	movs	r0, #1
/rustc/50a0defd5a93523067ef239936cc2e0755220904/src/libcore/mem.rs:236
   4:	9001      	str	r0, [sp, #4]
   6:	9801      	ldr	r0, [sp, #4]
   8:	9000      	str	r0, [sp, #0]
   a:	e7ff      	b.n	c <_ZN4core3mem7size_of17h96e196a831b2ee50E+0xc>
/rustc/50a0defd5a93523067ef239936cc2e0755220904/src/libcore/mem.rs:237
   c:	9800      	ldr	r0, [sp, #0]
   e:	b002      	add	sp, #8
  10:	4770      	bx	lr

Disassembly of section .text._ZN4core3mem8align_of17h58768cca995720e6E:

00000000 <_ZN4core3mem8align_of17h58768cca995720e6E>:
_ZN4core3mem8align_of17h58768cca995720e6E():
/rustc/50a0defd5a93523067ef239936cc2e0755220904/src/libcore/mem.rs:327
   0:	b082      	sub	sp, #8
   2:	2001      	movs	r0, #1
/rustc/50a0defd5a93523067ef239936cc2e0755220904/src/libcore/mem.rs:328
   4:	9001      	str	r0, [sp, #4]
   6:	9801      	ldr	r0, [sp, #4]
   8:	9000      	str	r0, [sp, #0]
   a:	e7ff      	b.n	c <_ZN4core3mem8align_of17h58768cca995720e6E+0xc>
/rustc/50a0defd5a93523067ef239936cc2e0755220904/src/libcore/mem.rs:329
   c:	9800      	ldr	r0, [sp, #0]
   e:	b002      	add	sp, #8
  10:	4770      	bx	lr

memchr-e5ca130edfba2c24.memchr.2jnkkboq-cgu.11.rcgu.o:     file format elf32-littlearm

SYMBOL TABLE:
00000000 l    df *ABS*	00000000 memchr.2jnkkboq-cgu.11
0000016d l       .debug_str	00000000 
00000000 l       .debug_str	00000000 
00000041 l       .debug_str	00000000 
00000096 l       .debug_str	00000000 
000000e0 l       .debug_str	00000000 
000000e5 l       .debug_str	00000000 
000000ec l       .debug_str	00000000 
000000f0 l       .debug_str	00000000 
000000f5 l       .debug_str	00000000 
00000169 l       .debug_str	00000000 
000000fb l       .debug_str	00000000 
000000fd l       .debug_str	00000000 
00000102 l       .debug_str	00000000 
00000106 l       .debug_str	00000000 
00000114 l       .debug_str	00000000 
00000153 l       .debug_str	00000000 
00000164 l       .debug_str	00000000 
00000000 l    d  .text._ZN4core6option15Option$LT$T$GT$9unwrap_or17h11bcdf00467e6e73E	00000000 .text._ZN4core6option15Option$LT$T$GT$9unwrap_or17h11bcdf00467e6e73E
00000000 l    d  .debug_abbrev	00000000 .debug_abbrev
00000000 l    d  .debug_info	00000000 .debug_info
00000000 l    d  .debug_ranges	00000000 .debug_ranges
00000000 l    d  .debug_frame	00000000 .debug_frame
00000000 l    d  .debug_line	00000000 .debug_line
00000000 g     F .text._ZN4core6option15Option$LT$T$GT$9unwrap_or17h11bcdf00467e6e73E	00000096 _ZN4core6option15Option$LT$T$GT$9unwrap_or17h11bcdf00467e6e73E



Disassembly of section .text._ZN4core6option15Option$LT$T$GT$9unwrap_or17h11bcdf00467e6e73E:

00000000 <_ZN4core6option15Option$LT$T$GT$9unwrap_or17h11bcdf00467e6e73E>:
_ZN4core6option15Option$LT$T$GT$9unwrap_or17h11bcdf00467e6e73E():
/rustc/50a0defd5a93523067ef239936cc2e0755220904/src/libcore/option.rs:367
   0:	b580      	push	{r7, lr}
   2:	b08a      	sub	sp, #40	; 0x28
   4:	4613      	mov	r3, r2
   6:	468c      	mov	ip, r1
   8:	4686      	mov	lr, r0
   a:	9004      	str	r0, [sp, #16]
   c:	9105      	str	r1, [sp, #20]
   e:	9206      	str	r2, [sp, #24]
  10:	2000      	movs	r0, #0
/rustc/50a0defd5a93523067ef239936cc2e0755220904/src/libcore/option.rs:369
  12:	f88d 0026 	strb.w	r0, [sp, #38]	; 0x26
  16:	f88d 0027 	strb.w	r0, [sp, #39]	; 0x27
  1a:	2001      	movs	r0, #1
  1c:	f88d 0027 	strb.w	r0, [sp, #39]	; 0x27
  20:	f88d 0026 	strb.w	r0, [sp, #38]	; 0x26
  24:	9804      	ldr	r0, [sp, #16]
  26:	2800      	cmp	r0, #0
  28:	9303      	str	r3, [sp, #12]
  2a:	f8cd c008 	str.w	ip, [sp, #8]
  2e:	f8cd e004 	str.w	lr, [sp, #4]
  32:	9000      	str	r0, [sp, #0]
  34:	d00d      	beq.n	52 <_ZN4core6option15Option$LT$T$GT$9unwrap_or17h11bcdf00467e6e73E+0x52>
  36:	e7ff      	b.n	38 <_ZN4core6option15Option$LT$T$GT$9unwrap_or17h11bcdf00467e6e73E+0x38>
  38:	9800      	ldr	r0, [sp, #0]
  3a:	2801      	cmp	r0, #1
  3c:	d001      	beq.n	42 <_ZN4core6option15Option$LT$T$GT$9unwrap_or17h11bcdf00467e6e73E+0x42>
  3e:	e7ff      	b.n	40 <_ZN4core6option15Option$LT$T$GT$9unwrap_or17h11bcdf00467e6e73E+0x40>
/rustc/50a0defd5a93523067ef239936cc2e0755220904/src/libcore/option.rs:372
  40:	defe      	udf	#254	; 0xfe
  42:	2000      	movs	r0, #0
/rustc/50a0defd5a93523067ef239936cc2e0755220904/src/libcore/option.rs:369
  44:	f88d 0027 	strb.w	r0, [sp, #39]	; 0x27
  48:	9805      	ldr	r0, [sp, #20]
  4a:	9008      	str	r0, [sp, #32]
  4c:	9808      	ldr	r0, [sp, #32]
  4e:	9007      	str	r0, [sp, #28]
/rustc/50a0defd5a93523067ef239936cc2e0755220904/src/libcore/option.rs:368
  50:	e005      	b.n	5e <_ZN4core6option15Option$LT$T$GT$9unwrap_or17h11bcdf00467e6e73E+0x5e>
  52:	2000      	movs	r0, #0
/rustc/50a0defd5a93523067ef239936cc2e0755220904/src/libcore/option.rs:370
  54:	f88d 0026 	strb.w	r0, [sp, #38]	; 0x26
  58:	9806      	ldr	r0, [sp, #24]
  5a:	9007      	str	r0, [sp, #28]
/rustc/50a0defd5a93523067ef239936cc2e0755220904/src/libcore/option.rs:368
  5c:	e7ff      	b.n	5e <_ZN4core6option15Option$LT$T$GT$9unwrap_or17h11bcdf00467e6e73E+0x5e>
/rustc/50a0defd5a93523067ef239936cc2e0755220904/src/libcore/option.rs:372
  5e:	f89d 0026 	ldrb.w	r0, [sp, #38]	; 0x26
  62:	07c0      	lsls	r0, r0, #31
  64:	2800      	cmp	r0, #0
  66:	d104      	bne.n	72 <_ZN4core6option15Option$LT$T$GT$9unwrap_or17h11bcdf00467e6e73E+0x72>
  68:	e7ff      	b.n	6a <_ZN4core6option15Option$LT$T$GT$9unwrap_or17h11bcdf00467e6e73E+0x6a>
  6a:	9804      	ldr	r0, [sp, #16]
  6c:	2801      	cmp	r0, #1
  6e:	d007      	beq.n	80 <_ZN4core6option15Option$LT$T$GT$9unwrap_or17h11bcdf00467e6e73E+0x80>
  70:	e010      	b.n	94 <_ZN4core6option15Option$LT$T$GT$9unwrap_or17h11bcdf00467e6e73E+0x94>
  72:	2000      	movs	r0, #0
  74:	f88d 0026 	strb.w	r0, [sp, #38]	; 0x26
  78:	e7f7      	b.n	6a <_ZN4core6option15Option$LT$T$GT$9unwrap_or17h11bcdf00467e6e73E+0x6a>
  7a:	9807      	ldr	r0, [sp, #28]
  7c:	b00a      	add	sp, #40	; 0x28
  7e:	bd80      	pop	{r7, pc}
  80:	f89d 0027 	ldrb.w	r0, [sp, #39]	; 0x27
  84:	07c0      	lsls	r0, r0, #31
  86:	2800      	cmp	r0, #0
  88:	d0f7      	beq.n	7a <_ZN4core6option15Option$LT$T$GT$9unwrap_or17h11bcdf00467e6e73E+0x7a>
  8a:	e7ff      	b.n	8c <_ZN4core6option15Option$LT$T$GT$9unwrap_or17h11bcdf00467e6e73E+0x8c>
  8c:	2000      	movs	r0, #0
  8e:	f88d 0027 	strb.w	r0, [sp, #39]	; 0x27
  92:	e7f2      	b.n	7a <_ZN4core6option15Option$LT$T$GT$9unwrap_or17h11bcdf00467e6e73E+0x7a>
  94:	e7f1      	b.n	7a <_ZN4core6option15Option$LT$T$GT$9unwrap_or17h11bcdf00467e6e73E+0x7a>

memchr-e5ca130edfba2c24.memchr.2jnkkboq-cgu.2.rcgu.o:     file format elf32-littlearm

SYMBOL TABLE:
00000000 l    df *ABS*	00000000 memchr.2jnkkboq-cgu.2
000004ae l       .debug_str	00000000 
00000000 l       .debug_str	00000000 
00000041 l       .debug_str	00000000 
00000096 l       .debug_str	00000000 
000000e0 l       .debug_str	00000000 
000000e7 l       .debug_str	00000000 
000000f0 l       .debug_str	00000000 
00000125 l       .debug_str	00000000 
00000131 l       .debug_str	00000000 
00000137 l       .debug_str	00000000 
00000139 l       .debug_str	00000000 
0000013c l       .debug_str	00000000 
00000140 l       .debug_str	00000000 
00000144 l       .debug_str	00000000 
0000014c l       .debug_str	00000000 
0000014e l       .debug_str	00000000 
00000186 l       .debug_str	00000000 
0000019e l       .debug_str	00000000 
000001a3 l       .debug_str	00000000 
000001aa l       .debug_str	00000000 
000001ae l       .debug_str	00000000 
000001b3 l       .debug_str	00000000 
000001b5 l       .debug_str	00000000 
000001ba l       .debug_str	00000000 
000001c8 l       .debug_str	00000000 
000001d2 l       .debug_str	00000000 
000001dc l       .debug_str	00000000 
000001e4 l       .debug_str	00000000 
000001e8 l       .debug_str	00000000 
000001f0 l       .debug_str	00000000 
0000022c l       .debug_str	00000000 
0000023f l       .debug_str	00000000 
00000244 l       .debug_str	00000000 
00000246 l       .debug_str	00000000 
0000024a l       .debug_str	00000000 
00000282 l       .debug_str	00000000 
0000028a l       .debug_str	00000000 
0000028e l       .debug_str	00000000 
000002c6 l       .debug_str	00000000 
000002ce l       .debug_str	00000000 
00000306 l       .debug_str	00000000 
0000031e l       .debug_str	00000000 
00000326 l       .debug_str	00000000 
0000035e l       .debug_str	00000000 
00000367 l       .debug_str	00000000 
0000039f l       .debug_str	00000000 
000003a8 l       .debug_str	00000000 
000003d7 l       .debug_str	00000000 
00000424 l       .debug_str	00000000 
00000430 l       .debug_str	00000000 
00000460 l       .debug_str	00000000 
000004de l       .debug_str	00000000 
0000052c l       .debug_str	00000000 
0000055c l       .debug_str	00000000 
000005aa l       .debug_str	00000000 
000005db l       .debug_str	00000000 
0000062a l       .debug_str	00000000 
0000065b l       .debug_str	00000000 
000006aa l       .debug_str	00000000 
000006da l       .debug_str	00000000 
000006e2 l       .debug_str	00000000 
00000712 l       .debug_str	00000000 
0000071a l       .debug_str	00000000 
00000758 l       .debug_str	00000000 
0000076d l       .debug_str	00000000 
00000799 l       .debug_str	00000000 
0000079d l       .debug_str	00000000 
000007a0 l       .debug_str	00000000 
000007a9 l       .debug_str	00000000 
000007b2 l       .debug_str	00000000 
000007b9 l       .debug_str	00000000 
000007bf l       .debug_str	00000000 
000007c3 l       .debug_str	00000000 
000007cd l       .debug_str	00000000 
000007d3 l       .debug_str	00000000 
000007d9 l       .debug_str	00000000 
000007e2 l       .debug_str	00000000 
000007e9 l       .debug_str	00000000 
000007f3 l       .debug_str	00000000 
000007f8 l       .debug_str	00000000 
00000800 l       .debug_str	00000000 
00000805 l       .debug_str	00000000 
00000807 l       .debug_str	00000000 
0000080b l       .debug_str	00000000 
0000080f l       .debug_str	00000000 
00000814 l       .debug_str	00000000 
00000817 l       .debug_str	00000000 
0000081b l       .debug_str	00000000 
0000081f l       .debug_str	00000000 
00000823 l       .debug_str	00000000 
00000826 l       .debug_str	00000000 
0000082a l       .debug_str	00000000 
0000082e l       .debug_str	00000000 
00000832 l       .debug_str	00000000 
00000000 l     O .rodata..Lanon.e1e9d19be464723cb6327d52bbd32a8b.0	00000018 .Lanon.e1e9d19be464723cb6327d52bbd32a8b.0
00000000 l     O .rodata..Lanon.e1e9d19be464723cb6327d52bbd32a8b.1	00000018 .Lanon.e1e9d19be464723cb6327d52bbd32a8b.1
00000000 l     O .rodata..Lanon.e1e9d19be464723cb6327d52bbd32a8b.12	00000018 .Lanon.e1e9d19be464723cb6327d52bbd32a8b.12
00000000 l     O .rodata..Lanon.e1e9d19be464723cb6327d52bbd32a8b.13	00000010 .Lanon.e1e9d19be464723cb6327d52bbd32a8b.13
00000000 l     O .rodata..Lanon.e1e9d19be464723cb6327d52bbd32a8b.14	00000018 .Lanon.e1e9d19be464723cb6327d52bbd32a8b.14
00000000 l     O .rodata..Lanon.e1e9d19be464723cb6327d52bbd32a8b.15	00000018 .Lanon.e1e9d19be464723cb6327d52bbd32a8b.15
00000000 l     O .rodata..Lanon.e1e9d19be464723cb6327d52bbd32a8b.16	00000018 .Lanon.e1e9d19be464723cb6327d52bbd32a8b.16
00000000 l     O .rodata..Lanon.e1e9d19be464723cb6327d52bbd32a8b.17	00000018 .Lanon.e1e9d19be464723cb6327d52bbd32a8b.17
00000000 l     O .rodata..Lanon.e1e9d19be464723cb6327d52bbd32a8b.18	00000010 .Lanon.e1e9d19be464723cb6327d52bbd32a8b.18
00000000 l     O .rodata..Lanon.e1e9d19be464723cb6327d52bbd32a8b.19	00000018 .Lanon.e1e9d19be464723cb6327d52bbd32a8b.19
00000000 l     O .rodata..Lanon.e1e9d19be464723cb6327d52bbd32a8b.2	00000018 .Lanon.e1e9d19be464723cb6327d52bbd32a8b.2
00000000 l     O .rodata..Lanon.e1e9d19be464723cb6327d52bbd32a8b.20	00000018 .Lanon.e1e9d19be464723cb6327d52bbd32a8b.20
00000000 l     O .rodata..Lanon.e1e9d19be464723cb6327d52bbd32a8b.21	00000018 .Lanon.e1e9d19be464723cb6327d52bbd32a8b.21
00000000 l     O .rodata..Lanon.e1e9d19be464723cb6327d52bbd32a8b.22	00000018 .Lanon.e1e9d19be464723cb6327d52bbd32a8b.22
00000000 l     O .rodata..Lanon.e1e9d19be464723cb6327d52bbd32a8b.23	00000010 .Lanon.e1e9d19be464723cb6327d52bbd32a8b.23
00000000 l     O .rodata..Lanon.e1e9d19be464723cb6327d52bbd32a8b.24	00000018 .Lanon.e1e9d19be464723cb6327d52bbd32a8b.24
00000000 l     O .rodata..Lanon.e1e9d19be464723cb6327d52bbd32a8b.26	00000018 .Lanon.e1e9d19be464723cb6327d52bbd32a8b.26
00000000 l     O .rodata..Lanon.e1e9d19be464723cb6327d52bbd32a8b.27	00000010 .Lanon.e1e9d19be464723cb6327d52bbd32a8b.27
00000000 l     O .rodata..Lanon.e1e9d19be464723cb6327d52bbd32a8b.28	00000018 .Lanon.e1e9d19be464723cb6327d52bbd32a8b.28
00000000 l     O .rodata..Lanon.e1e9d19be464723cb6327d52bbd32a8b.29	00000018 .Lanon.e1e9d19be464723cb6327d52bbd32a8b.29
00000000 l     O .rodata..Lanon.e1e9d19be464723cb6327d52bbd32a8b.30	00000018 .Lanon.e1e9d19be464723cb6327d52bbd32a8b.30
00000000 l     O .rodata..Lanon.e1e9d19be464723cb6327d52bbd32a8b.31	00000018 .Lanon.e1e9d19be464723cb6327d52bbd32a8b.31
00000000 l     O .rodata..Lanon.e1e9d19be464723cb6327d52bbd32a8b.32	00000010 .Lanon.e1e9d19be464723cb6327d52bbd32a8b.32
00000000 l     O .rodata..Lanon.e1e9d19be464723cb6327d52bbd32a8b.33	00000018 .Lanon.e1e9d19be464723cb6327d52bbd32a8b.33
00000000 l     O .rodata..Lanon.e1e9d19be464723cb6327d52bbd32a8b.34	00000018 .Lanon.e1e9d19be464723cb6327d52bbd32a8b.34
00000000 l     O .rodata..Lanon.e1e9d19be464723cb6327d52bbd32a8b.35	00000010 .Lanon.e1e9d19be464723cb6327d52bbd32a8b.35
00000000 l     O .rodata..Lanon.e1e9d19be464723cb6327d52bbd32a8b.37	00000018 .Lanon.e1e9d19be464723cb6327d52bbd32a8b.37
00000000 l     O .rodata.cst32	00000020 .Lanon.e1e9d19be464723cb6327d52bbd32a8b.38
00000000 l     O .rodata..Lanon.e1e9d19be464723cb6327d52bbd32a8b.39	00000018 .Lanon.e1e9d19be464723cb6327d52bbd32a8b.39
00000000 l     O .rodata..Lanon.e1e9d19be464723cb6327d52bbd32a8b.40	00000018 .Lanon.e1e9d19be464723cb6327d52bbd32a8b.40
00000000 l     O .rodata..Lanon.e1e9d19be464723cb6327d52bbd32a8b.41	00000018 .Lanon.e1e9d19be464723cb6327d52bbd32a8b.41
00000000 l     O .rodata..Lanon.e1e9d19be464723cb6327d52bbd32a8b.43	00000018 .Lanon.e1e9d19be464723cb6327d52bbd32a8b.43
00000000 l     O .rodata..Lanon.e1e9d19be464723cb6327d52bbd32a8b.44	00000018 .Lanon.e1e9d19be464723cb6327d52bbd32a8b.44
00000000 l     O .rodata..Lanon.e1e9d19be464723cb6327d52bbd32a8b.46	00000018 .Lanon.e1e9d19be464723cb6327d52bbd32a8b.46
00000000 l     O .rodata..Lanon.e1e9d19be464723cb6327d52bbd32a8b.47	00000018 .Lanon.e1e9d19be464723cb6327d52bbd32a8b.47
00000000 l     O .rodata..Lanon.e1e9d19be464723cb6327d52bbd32a8b.5	00000018 .Lanon.e1e9d19be464723cb6327d52bbd32a8b.5
00000000 l     O .rodata..Lanon.e1e9d19be464723cb6327d52bbd32a8b.7	00000018 .Lanon.e1e9d19be464723cb6327d52bbd32a8b.7
00000000 l     O .rodata.cst4	00000004 .Lanon.e1e9d19be464723cb6327d52bbd32a8b.8
00000000 l     F .text._ZN6memchr8fallback20read_unaligned_usize17h7c797d71009c1807E	00000024 _ZN6memchr8fallback20read_unaligned_usize17h7c797d71009c1807E
00000000 l     F .text._ZN6memchr8fallback3sub17heb16f96665fc0060E	00000052 _ZN6memchr8fallback3sub17heb16f96665fc0060E
00000000 l     F .text._ZN6memchr8fallback6memchr28_$u7b$$u7b$closure$u7d$$u7d$17h81aa9637be2e3c3fE	00000026 _ZN6memchr8fallback6memchr28_$u7b$$u7b$closure$u7d$$u7d$17h81aa9637be2e3c3fE
00000000 l     F .text._ZN6memchr8fallback7memchr228_$u7b$$u7b$closure$u7d$$u7d$17h095464c0bc8febc1E	00000048 _ZN6memchr8fallback7memchr228_$u7b$$u7b$closure$u7d$$u7d$17h095464c0bc8febc1E
00000000 l     F .text._ZN6memchr8fallback7memchr328_$u7b$$u7b$closure$u7d$$u7d$17h8494d1b67f0187c7E	00000074 _ZN6memchr8fallback7memchr328_$u7b$$u7b$closure$u7d$$u7d$17h8494d1b67f0187c7E
00000000 l     F .text._ZN6memchr8fallback7memrchr28_$u7b$$u7b$closure$u7d$$u7d$17h3a0fd143a7c272ecE	00000026 _ZN6memchr8fallback7memrchr28_$u7b$$u7b$closure$u7d$$u7d$17h3a0fd143a7c272ecE
00000000 l     F .text._ZN6memchr8fallback7ptr_add17hf3c83648d18c1bd6E	00000046 _ZN6memchr8fallback7ptr_add17hf3c83648d18c1bd6E
00000000 l     F .text._ZN6memchr8fallback7ptr_sub17hc13a834bde1d8a49E	00000056 _ZN6memchr8fallback7ptr_sub17hc13a834bde1d8a49E
00000000 l     F .text._ZN6memchr8fallback8memrchr228_$u7b$$u7b$closure$u7d$$u7d$17h2dd476c951dec92aE	00000048 _ZN6memchr8fallback8memrchr228_$u7b$$u7b$closure$u7d$$u7d$17h2dd476c951dec92aE
00000000 l     F .text._ZN6memchr8fallback8memrchr328_$u7b$$u7b$closure$u7d$$u7d$17h5a7ccb2df36e9e3eE	00000074 _ZN6memchr8fallback8memrchr328_$u7b$$u7b$closure$u7d$$u7d$17h5a7ccb2df36e9e3eE
00000000 l     O .rodata.str.0	00000059 str.0
00000000 l     O .rodata.str.1	00000021 str.1
00000000 l     O .rodata.str.2	00000021 str.2
00000000 l    d  .text._ZN6memchr8fallback6memchr17hb7c8a5efdf5c9368E	00000000 .text._ZN6memchr8fallback6memchr17hb7c8a5efdf5c9368E
00000000 l    d  .text._ZN6memchr8fallback6memchr28_$u7b$$u7b$closure$u7d$$u7d$17h81aa9637be2e3c3fE	00000000 .text._ZN6memchr8fallback6memchr28_$u7b$$u7b$closure$u7d$$u7d$17h81aa9637be2e3c3fE
00000000 l    d  .text._ZN6memchr8fallback7memchr217hb464b3a3d7bdb29cE	00000000 .text._ZN6memchr8fallback7memchr217hb464b3a3d7bdb29cE
00000000 l    d  .text._ZN6memchr8fallback7memchr228_$u7b$$u7b$closure$u7d$$u7d$17h095464c0bc8febc1E	00000000 .text._ZN6memchr8fallback7memchr228_$u7b$$u7b$closure$u7d$$u7d$17h095464c0bc8febc1E
00000000 l    d  .text._ZN6memchr8fallback7memchr317ha1ea4d89eedcd839E	00000000 .text._ZN6memchr8fallback7memchr317ha1ea4d89eedcd839E
00000000 l    d  .text._ZN6memchr8fallback7memchr328_$u7b$$u7b$closure$u7d$$u7d$17h8494d1b67f0187c7E	00000000 .text._ZN6memchr8fallback7memchr328_$u7b$$u7b$closure$u7d$$u7d$17h8494d1b67f0187c7E
00000000 l    d  .text._ZN6memchr8fallback7memrchr17hc9eb9e2e20e7630bE	00000000 .text._ZN6memchr8fallback7memrchr17hc9eb9e2e20e7630bE
00000000 l    d  .text._ZN6memchr8fallback7memrchr28_$u7b$$u7b$closure$u7d$$u7d$17h3a0fd143a7c272ecE	00000000 .text._ZN6memchr8fallback7memrchr28_$u7b$$u7b$closure$u7d$$u7d$17h3a0fd143a7c272ecE
00000000 l    d  .text._ZN6memchr8fallback8memrchr217hb3b78525947b7432E	00000000 .text._ZN6memchr8fallback8memrchr217hb3b78525947b7432E
00000000 l    d  .text._ZN6memchr8fallback8memrchr228_$u7b$$u7b$closure$u7d$$u7d$17h2dd476c951dec92aE	00000000 .text._ZN6memchr8fallback8memrchr228_$u7b$$u7b$closure$u7d$$u7d$17h2dd476c951dec92aE
00000000 l    d  .text._ZN6memchr8fallback8memrchr317he5f44dbc7e59aa13E	00000000 .text._ZN6memchr8fallback8memrchr317he5f44dbc7e59aa13E
00000000 l    d  .text._ZN6memchr8fallback8memrchr328_$u7b$$u7b$closure$u7d$$u7d$17h5a7ccb2df36e9e3eE	00000000 .text._ZN6memchr8fallback8memrchr328_$u7b$$u7b$closure$u7d$$u7d$17h5a7ccb2df36e9e3eE
00000000 l    d  .text._ZN6memchr8fallback7ptr_add17hf3c83648d18c1bd6E	00000000 .text._ZN6memchr8fallback7ptr_add17hf3c83648d18c1bd6E
00000000 l    d  .text._ZN6memchr8fallback7ptr_sub17hc13a834bde1d8a49E	00000000 .text._ZN6memchr8fallback7ptr_sub17hc13a834bde1d8a49E
00000000 l    d  .text._ZN6memchr8fallback20read_unaligned_usize17h7c797d71009c1807E	00000000 .text._ZN6memchr8fallback20read_unaligned_usize17h7c797d71009c1807E
00000000 l    d  .text._ZN6memchr8fallback3sub17heb16f96665fc0060E	00000000 .text._ZN6memchr8fallback3sub17heb16f96665fc0060E
00000000 l    d  .rodata.str.0	00000000 .rodata.str.0
00000000 l    d  .rodata.str.1	00000000 .rodata.str.1
00000000 l    d  .rodata.str.2	00000000 .rodata.str.2
00000000 l    d  .rodata..Lanon.e1e9d19be464723cb6327d52bbd32a8b.3	00000000 .rodata..Lanon.e1e9d19be464723cb6327d52bbd32a8b.3
00000000 l    d  .rodata..Lanon.e1e9d19be464723cb6327d52bbd32a8b.4	00000000 .rodata..Lanon.e1e9d19be464723cb6327d52bbd32a8b.4
00000000 l    d  .rodata..Lanon.e1e9d19be464723cb6327d52bbd32a8b.6	00000000 .rodata..Lanon.e1e9d19be464723cb6327d52bbd32a8b.6
00000000 l    d  .rodata..Lanon.e1e9d19be464723cb6327d52bbd32a8b.9	00000000 .rodata..Lanon.e1e9d19be464723cb6327d52bbd32a8b.9
00000000 l    d  .rodata..Lanon.e1e9d19be464723cb6327d52bbd32a8b.10	00000000 .rodata..Lanon.e1e9d19be464723cb6327d52bbd32a8b.10
00000000 l    d  .rodata..Lanon.e1e9d19be464723cb6327d52bbd32a8b.11	00000000 .rodata..Lanon.e1e9d19be464723cb6327d52bbd32a8b.11
00000000 l    d  .rodata..Lanon.e1e9d19be464723cb6327d52bbd32a8b.25	00000000 .rodata..Lanon.e1e9d19be464723cb6327d52bbd32a8b.25
00000000 l    d  .rodata..Lanon.e1e9d19be464723cb6327d52bbd32a8b.36	00000000 .rodata..Lanon.e1e9d19be464723cb6327d52bbd32a8b.36
00000000 l    d  .rodata..Lanon.e1e9d19be464723cb6327d52bbd32a8b.42	00000000 .rodata..Lanon.e1e9d19be464723cb6327d52bbd32a8b.42
00000000 l    d  .rodata..Lanon.e1e9d19be464723cb6327d52bbd32a8b.45	00000000 .rodata..Lanon.e1e9d19be464723cb6327d52bbd32a8b.45
00000000 l    d  .debug_abbrev	00000000 .debug_abbrev
00000000 l    d  .debug_info	00000000 .debug_info
00000000 l    d  .debug_ranges	00000000 .debug_ranges
00000000 l    d  .debug_frame	00000000 .debug_frame
00000000 l    d  .debug_line	00000000 .debug_line
00000000         *UND*	00000000 _ZN42_$LT$$RF$T$u20$as$u20$core..fmt..Debug$GT$3fmt17he0662d6d576dbc21E
00000000         *UND*	00000000 _ZN4core10intrinsics19copy_nonoverlapping17h0bdf6ae081c159c2E
00000000         *UND*	00000000 _ZN4core3cmp3min17h092024cef1827f27E
00000000         *UND*	00000000 _ZN4core3fmt10ArgumentV13new17he7aeb924cd1c8272E
00000000         *UND*	00000000 .hidden _ZN4core3fmt9Arguments6new_v117h97fab7064a36d1a4E
00000000         *UND*	00000000 .hidden _ZN4core3num23_$LT$impl$u20$isize$GT$12wrapping_neg17hf93fc63f2adf90ccE
00000000         *UND*	00000000 .hidden _ZN4core3num23_$LT$impl$u20$usize$GT$12wrapping_sub17h049a26b7a4ff5318E
00000000         *UND*	00000000 _ZN4core3ptr33_$LT$impl$u20$$BP$const$u20$T$GT$6offset17h1b1bd4fc0c06f6a7E
00000000         *UND*	00000000 _ZN4core5slice29_$LT$impl$u20$$u5b$T$u5d$$GT$3len17h63f985867d9f263fE
00000000         *UND*	00000000 _ZN4core5slice29_$LT$impl$u20$$u5b$T$u5d$$GT$6as_ptr17hd0263209417be61aE
00000000         *UND*	00000000 _ZN4core5slice74_$LT$impl$u20$core..ops..index..Index$LT$I$GT$$u20$for$u20$$u5b$T$u5d$$GT$5index17hf116fad1d92ca796E
00000000         *UND*	00000000 _ZN4core9panicking5panic17h53ca63c6ac6312f8E
00000000         *UND*	00000000 _ZN4core9panicking9panic_fmt17h6b4d8e87b0965449E
00000000 g     F .text._ZN6memchr8fallback6memchr17hb7c8a5efdf5c9368E	000004fe _ZN6memchr8fallback6memchr17hb7c8a5efdf5c9368E
00000000 g     F .text._ZN6memchr8fallback7memchr217hb464b3a3d7bdb29cE	0000054e _ZN6memchr8fallback7memchr217hb464b3a3d7bdb29cE
00000000 g     F .text._ZN6memchr8fallback7memchr317ha1ea4d89eedcd839E	0000062c _ZN6memchr8fallback7memchr317ha1ea4d89eedcd839E
00000000 g     F .text._ZN6memchr8fallback7memrchr17hc9eb9e2e20e7630bE	00000528 _ZN6memchr8fallback7memrchr17hc9eb9e2e20e7630bE
00000000 g     F .text._ZN6memchr8fallback8memrchr217hb3b78525947b7432E	00000534 _ZN6memchr8fallback8memrchr217hb3b78525947b7432E
00000000 g     F .text._ZN6memchr8fallback8memrchr317he5f44dbc7e59aa13E	00000612 _ZN6memchr8fallback8memrchr317he5f44dbc7e59aa13E



Disassembly of section .text._ZN6memchr8fallback6memchr17hb7c8a5efdf5c9368E:

00000000 <_ZN6memchr8fallback6memchr17hb7c8a5efdf5c9368E>:
_ZN6memchr8fallback6memchr17hb7c8a5efdf5c9368E():
/Users/Luppy/.cargo/registry/src/github.com-1ecc6299db9ec823/memchr-2.2.0/src/fallback.rs:45
#[inline(always)]
fn repeat_byte(b: u8) -> usize {
    (b as usize) * (usize::MAX / 255)
}

pub fn memchr(n1: u8, haystack: &[u8]) -> Option<usize> {
   0:	b580      	push	{r7, lr}
   2:	b0da      	sub	sp, #360	; 0x168
   4:	4613      	mov	r3, r2
   6:	468c      	mov	ip, r1
   8:	4686      	mov	lr, r0
   a:	f88d 006f 	strb.w	r0, [sp, #111]	; 0x6f
   e:	911c      	str	r1, [sp, #112]	; 0x70
  10:	921d      	str	r2, [sp, #116]	; 0x74
/Users/Luppy/.cargo/registry/src/github.com-1ecc6299db9ec823/memchr-2.2.0/src/fallback.rs:46
    let vn1 = repeat_byte(n1);
  12:	f89d 006f 	ldrb.w	r0, [sp, #111]	; 0x6f
  16:	f88d 0107 	strb.w	r0, [sp, #263]	; 0x107
_ZN6memchr8fallback11repeat_byte17h6374a9c8a738a5e1E():
/Users/Luppy/.cargo/registry/src/github.com-1ecc6299db9ec823/memchr-2.2.0/src/fallback.rs:42
    (b as usize) * (usize::MAX / 255)
  1a:	f89d 0107 	ldrb.w	r0, [sp, #263]	; 0x107
  1e:	f04f 3101 	mov.w	r1, #16843009	; 0x1010101
  22:	fba0 0101 	umull	r0, r1, r0, r1
  26:	2900      	cmp	r1, #0
  28:	931a      	str	r3, [sp, #104]	; 0x68
  2a:	f8cd c064 	str.w	ip, [sp, #100]	; 0x64
  2e:	f8cd e060 	str.w	lr, [sp, #96]	; 0x60
  32:	9017      	str	r0, [sp, #92]	; 0x5c
  34:	d007      	beq.n	46 <_ZN6memchr8fallback6memchr17hb7c8a5efdf5c9368E+0x46>
  36:	e7ff      	b.n	38 <_ZN6memchr8fallback6memchr17hb7c8a5efdf5c9368E+0x38>
  38:	f240 0000 	movw	r0, #0
  3c:	f2c0 0000 	movt	r0, #0
  40:	f7ff fffe 	bl	0 <_ZN4core9panicking5panic17h53ca63c6ac6312f8E>
  44:	defe      	udf	#254	; 0xfe
_ZN6memchr8fallback6memchr17hb7c8a5efdf5c9368E():
/Users/Luppy/.cargo/registry/src/github.com-1ecc6299db9ec823/memchr-2.2.0/src/fallback.rs:46
    let vn1 = repeat_byte(n1);
  46:	9817      	ldr	r0, [sp, #92]	; 0x5c
  48:	9020      	str	r0, [sp, #128]	; 0x80
  4a:	e7ff      	b.n	4c <_ZN6memchr8fallback6memchr17hb7c8a5efdf5c9368E+0x4c>
  4c:	f10d 006f 	add.w	r0, sp, #111	; 0x6f
/Users/Luppy/.cargo/registry/src/github.com-1ecc6299db9ec823/memchr-2.2.0/src/fallback.rs:47
    let confirm = |byte| byte == n1;
  50:	9021      	str	r0, [sp, #132]	; 0x84
/Users/Luppy/.cargo/registry/src/github.com-1ecc6299db9ec823/memchr-2.2.0/src/fallback.rs:48
    let loop_size = cmp::min(LOOP_SIZE, haystack.len());
  52:	981c      	ldr	r0, [sp, #112]	; 0x70
  54:	991d      	ldr	r1, [sp, #116]	; 0x74
  56:	f7ff fffe 	bl	0 <_ZN4core5slice29_$LT$impl$u20$$u5b$T$u5d$$GT$3len17h63f985867d9f263fE>
  5a:	9016      	str	r0, [sp, #88]	; 0x58
  5c:	e7ff      	b.n	5e <_ZN6memchr8fallback6memchr17hb7c8a5efdf5c9368E+0x5e>
  5e:	2008      	movs	r0, #8
  60:	9916      	ldr	r1, [sp, #88]	; 0x58
  62:	f7ff fffe 	bl	0 <_ZN4core3cmp3min17h092024cef1827f27E>
  66:	9022      	str	r0, [sp, #136]	; 0x88
  68:	e7ff      	b.n	6a <_ZN6memchr8fallback6memchr17hb7c8a5efdf5c9368E+0x6a>
  6a:	2004      	movs	r0, #4
/Users/Luppy/.cargo/registry/src/github.com-1ecc6299db9ec823/memchr-2.2.0/src/fallback.rs:49
    let align = USIZE_BYTES - 1;
  6c:	1e41      	subs	r1, r0, #1
  6e:	2801      	cmp	r0, #1
  70:	9115      	str	r1, [sp, #84]	; 0x54
  72:	f0c0 8236 	bcc.w	4e2 <_ZN6memchr8fallback6memchr17hb7c8a5efdf5c9368E+0x4e2>
  76:	e7ff      	b.n	78 <_ZN6memchr8fallback6memchr17hb7c8a5efdf5c9368E+0x78>
  78:	9815      	ldr	r0, [sp, #84]	; 0x54
  7a:	9023      	str	r0, [sp, #140]	; 0x8c
/Users/Luppy/.cargo/registry/src/github.com-1ecc6299db9ec823/memchr-2.2.0/src/fallback.rs:50
    let start_ptr = haystack.as_ptr();
  7c:	981c      	ldr	r0, [sp, #112]	; 0x70
  7e:	991d      	ldr	r1, [sp, #116]	; 0x74
  80:	f7ff fffe 	bl	0 <_ZN4core5slice29_$LT$impl$u20$$u5b$T$u5d$$GT$6as_ptr17hd0263209417be61aE>
  84:	9024      	str	r0, [sp, #144]	; 0x90
  86:	e7ff      	b.n	88 <_ZN6memchr8fallback6memchr17hb7c8a5efdf5c9368E+0x88>
/Users/Luppy/.cargo/registry/src/github.com-1ecc6299db9ec823/memchr-2.2.0/src/fallback.rs:51
    let end_ptr = haystack[haystack.len()..].as_ptr();
  88:	981c      	ldr	r0, [sp, #112]	; 0x70
  8a:	991d      	ldr	r1, [sp, #116]	; 0x74
  8c:	9014      	str	r0, [sp, #80]	; 0x50
  8e:	9113      	str	r1, [sp, #76]	; 0x4c
  90:	f7ff fffe 	bl	0 <_ZN4core5slice29_$LT$impl$u20$$u5b$T$u5d$$GT$3len17h63f985867d9f263fE>
  94:	9012      	str	r0, [sp, #72]	; 0x48
  96:	e7ff      	b.n	98 <_ZN6memchr8fallback6memchr17hb7c8a5efdf5c9368E+0x98>
  98:	9812      	ldr	r0, [sp, #72]	; 0x48
  9a:	9026      	str	r0, [sp, #152]	; 0x98
  9c:	9a26      	ldr	r2, [sp, #152]	; 0x98
  9e:	9814      	ldr	r0, [sp, #80]	; 0x50
  a0:	9913      	ldr	r1, [sp, #76]	; 0x4c
  a2:	f7ff fffe 	bl	0 <_ZN4core5slice74_$LT$impl$u20$core..ops..index..Index$LT$I$GT$$u20$for$u20$$u5b$T$u5d$$GT$5index17hf116fad1d92ca796E>
  a6:	9011      	str	r0, [sp, #68]	; 0x44
  a8:	9110      	str	r1, [sp, #64]	; 0x40
  aa:	e7ff      	b.n	ac <_ZN6memchr8fallback6memchr17hb7c8a5efdf5c9368E+0xac>
  ac:	9811      	ldr	r0, [sp, #68]	; 0x44
  ae:	9910      	ldr	r1, [sp, #64]	; 0x40
  b0:	f7ff fffe 	bl	0 <_ZN4core5slice29_$LT$impl$u20$$u5b$T$u5d$$GT$6as_ptr17hd0263209417be61aE>
  b4:	9025      	str	r0, [sp, #148]	; 0x94
  b6:	e7ff      	b.n	b8 <_ZN6memchr8fallback6memchr17hb7c8a5efdf5c9368E+0xb8>
/Users/Luppy/.cargo/registry/src/github.com-1ecc6299db9ec823/memchr-2.2.0/src/fallback.rs:52
    let mut ptr = start_ptr;
  b8:	9824      	ldr	r0, [sp, #144]	; 0x90
  ba:	9027      	str	r0, [sp, #156]	; 0x9c
/Users/Luppy/.cargo/registry/src/github.com-1ecc6299db9ec823/memchr-2.2.0/src/fallback.rs:55

    unsafe {
        if haystack.len() < USIZE_BYTES {
  bc:	981c      	ldr	r0, [sp, #112]	; 0x70
  be:	991d      	ldr	r1, [sp, #116]	; 0x74
  c0:	f7ff fffe 	bl	0 <_ZN4core5slice29_$LT$impl$u20$$u5b$T$u5d$$GT$3len17h63f985867d9f263fE>
  c4:	900f      	str	r0, [sp, #60]	; 0x3c
  c6:	e7ff      	b.n	c8 <_ZN6memchr8fallback6memchr17hb7c8a5efdf5c9368E+0xc8>
  c8:	980f      	ldr	r0, [sp, #60]	; 0x3c
  ca:	2803      	cmp	r0, #3
  cc:	d84e      	bhi.n	16c <_ZN6memchr8fallback6memchr17hb7c8a5efdf5c9368E+0x16c>
  ce:	e7ff      	b.n	d0 <_ZN6memchr8fallback6memchr17hb7c8a5efdf5c9368E+0xd0>
/Users/Luppy/.cargo/registry/src/github.com-1ecc6299db9ec823/memchr-2.2.0/src/fallback.rs:56
            return forward_search(start_ptr, end_ptr, ptr, confirm);
  d0:	9824      	ldr	r0, [sp, #144]	; 0x90
  d2:	9925      	ldr	r1, [sp, #148]	; 0x94
  d4:	9a27      	ldr	r2, [sp, #156]	; 0x9c
  d6:	9b21      	ldr	r3, [sp, #132]	; 0x84
  d8:	9042      	str	r0, [sp, #264]	; 0x108
  da:	9143      	str	r1, [sp, #268]	; 0x10c
  dc:	9244      	str	r2, [sp, #272]	; 0x110
  de:	9345      	str	r3, [sp, #276]	; 0x114
_ZN6memchr8fallback14forward_search17h670ad8ac33dd3ba3E():
/Users/Luppy/.cargo/registry/src/github.com-1ecc6299db9ec823/memchr-2.2.0/src/fallback.rs:292
    start_ptr: *const u8,
    end_ptr: *const u8,
    mut ptr: *const u8,
    confirm: F,
) -> Option<usize> {
    debug_assert!(start_ptr <= ptr);
  e0:	9842      	ldr	r0, [sp, #264]	; 0x108
  e2:	9944      	ldr	r1, [sp, #272]	; 0x110
  e4:	4288      	cmp	r0, r1
  e6:	d907      	bls.n	f8 <_ZN6memchr8fallback6memchr17hb7c8a5efdf5c9368E+0xf8>
  e8:	e7ff      	b.n	ea <_ZN6memchr8fallback6memchr17hb7c8a5efdf5c9368E+0xea>
  ea:	f240 0000 	movw	r0, #0
  ee:	f2c0 0000 	movt	r0, #0
  f2:	f7ff fffe 	bl	0 <_ZN4core9panicking5panic17h53ca63c6ac6312f8E>
  f6:	defe      	udf	#254	; 0xfe
/Users/Luppy/.cargo/registry/src/github.com-1ecc6299db9ec823/memchr-2.2.0/src/fallback.rs:293
    debug_assert!(ptr <= end_ptr);
  f8:	9844      	ldr	r0, [sp, #272]	; 0x110
  fa:	9943      	ldr	r1, [sp, #268]	; 0x10c
  fc:	4288      	cmp	r0, r1
  fe:	d907      	bls.n	110 <_ZN6memchr8fallback6memchr17hb7c8a5efdf5c9368E+0x110>
 100:	e7ff      	b.n	102 <_ZN6memchr8fallback6memchr17hb7c8a5efdf5c9368E+0x102>
 102:	f240 0000 	movw	r0, #0
 106:	f2c0 0000 	movt	r0, #0
 10a:	f7ff fffe 	bl	0 <_ZN4core9panicking5panic17h53ca63c6ac6312f8E>
 10e:	defe      	udf	#254	; 0xfe
/Users/Luppy/.cargo/registry/src/github.com-1ecc6299db9ec823/memchr-2.2.0/src/fallback.rs:295

    while ptr < end_ptr {
 110:	e7ff      	b.n	112 <_ZN6memchr8fallback6memchr17hb7c8a5efdf5c9368E+0x112>
 112:	9844      	ldr	r0, [sp, #272]	; 0x110
 114:	9943      	ldr	r1, [sp, #268]	; 0x10c
 116:	4288      	cmp	r0, r1
 118:	d303      	bcc.n	122 <_ZN6memchr8fallback6memchr17hb7c8a5efdf5c9368E+0x122>
 11a:	e7ff      	b.n	11c <_ZN6memchr8fallback6memchr17hb7c8a5efdf5c9368E+0x11c>
 11c:	2000      	movs	r0, #0
/Users/Luppy/.cargo/registry/src/github.com-1ecc6299db9ec823/memchr-2.2.0/src/fallback.rs:301
        if confirm(*ptr) {
            return Some(sub(ptr, start_ptr));
        }
        ptr = ptr.offset(1);
    }
    None
 11e:	9046      	str	r0, [sp, #280]	; 0x118
/Users/Luppy/.cargo/registry/src/github.com-1ecc6299db9ec823/memchr-2.2.0/src/fallback.rs:302
}
 120:	e019      	b.n	156 <_ZN6memchr8fallback6memchr17hb7c8a5efdf5c9368E+0x156>
/Users/Luppy/.cargo/registry/src/github.com-1ecc6299db9ec823/memchr-2.2.0/src/fallback.rs:296
        if confirm(*ptr) {
 122:	9844      	ldr	r0, [sp, #272]	; 0x110
 124:	7800      	ldrb	r0, [r0, #0]
 126:	f88d 0123 	strb.w	r0, [sp, #291]	; 0x123
 12a:	f89d 1123 	ldrb.w	r1, [sp, #291]	; 0x123
 12e:	a845      	add	r0, sp, #276	; 0x114
 130:	f7ff fffe 	bl	0 <_ZN6memchr8fallback6memchr17hb7c8a5efdf5c9368E>
 134:	2800      	cmp	r0, #0
 136:	d008      	beq.n	14a <_ZN6memchr8fallback6memchr17hb7c8a5efdf5c9368E+0x14a>
 138:	e7ff      	b.n	13a <_ZN6memchr8fallback6memchr17hb7c8a5efdf5c9368E+0x13a>
/Users/Luppy/.cargo/registry/src/github.com-1ecc6299db9ec823/memchr-2.2.0/src/fallback.rs:297
            return Some(sub(ptr, start_ptr));
 13a:	9844      	ldr	r0, [sp, #272]	; 0x110
 13c:	9942      	ldr	r1, [sp, #264]	; 0x108
 13e:	f7ff fffe 	bl	0 <_ZN6memchr8fallback6memchr17hb7c8a5efdf5c9368E>
 142:	9047      	str	r0, [sp, #284]	; 0x11c
 144:	2001      	movs	r0, #1
 146:	9046      	str	r0, [sp, #280]	; 0x118
/Users/Luppy/.cargo/registry/src/github.com-1ecc6299db9ec823/memchr-2.2.0/src/fallback.rs:302
}
 148:	e005      	b.n	156 <_ZN6memchr8fallback6memchr17hb7c8a5efdf5c9368E+0x156>
/Users/Luppy/.cargo/registry/src/github.com-1ecc6299db9ec823/memchr-2.2.0/src/fallback.rs:299
        ptr = ptr.offset(1);
 14a:	9844      	ldr	r0, [sp, #272]	; 0x110
 14c:	2101      	movs	r1, #1
 14e:	f7ff fffe 	bl	0 <_ZN4core3ptr33_$LT$impl$u20$$BP$const$u20$T$GT$6offset17h1b1bd4fc0c06f6a7E>
 152:	9044      	str	r0, [sp, #272]	; 0x110
/Users/Luppy/.cargo/registry/src/github.com-1ecc6299db9ec823/memchr-2.2.0/src/fallback.rs:295
    while ptr < end_ptr {
 154:	e7dd      	b.n	112 <_ZN6memchr8fallback6memchr17hb7c8a5efdf5c9368E+0x112>
/Users/Luppy/.cargo/registry/src/github.com-1ecc6299db9ec823/memchr-2.2.0/src/fallback.rs:302
}
 156:	9846      	ldr	r0, [sp, #280]	; 0x118
 158:	9947      	ldr	r1, [sp, #284]	; 0x11c
_ZN6memchr8fallback6memchr17hb7c8a5efdf5c9368E():
/Users/Luppy/.cargo/registry/src/github.com-1ecc6299db9ec823/memchr-2.2.0/src/fallback.rs:56
            return forward_search(start_ptr, end_ptr, ptr, confirm);
 15a:	911f      	str	r1, [sp, #124]	; 0x7c
 15c:	901e      	str	r0, [sp, #120]	; 0x78
 15e:	e7ff      	b.n	160 <_ZN6memchr8fallback6memchr17hb7c8a5efdf5c9368E+0x160>
 160:	e003      	b.n	16a <_ZN6memchr8fallback6memchr17hb7c8a5efdf5c9368E+0x16a>
/Users/Luppy/.cargo/registry/src/github.com-1ecc6299db9ec823/memchr-2.2.0/src/fallback.rs:81
}
 162:	981e      	ldr	r0, [sp, #120]	; 0x78
 164:	991f      	ldr	r1, [sp, #124]	; 0x7c
 166:	b05a      	add	sp, #360	; 0x168
 168:	bd80      	pop	{r7, pc}
/Users/Luppy/.cargo/registry/src/github.com-1ecc6299db9ec823/memchr-2.2.0/src/fallback.rs:56
            return forward_search(start_ptr, end_ptr, ptr, confirm);
 16a:	e7fa      	b.n	162 <_ZN6memchr8fallback6memchr17hb7c8a5efdf5c9368E+0x162>
/Users/Luppy/.cargo/registry/src/github.com-1ecc6299db9ec823/memchr-2.2.0/src/fallback.rs:59
        let chunk = read_unaligned_usize(ptr);
 16c:	9827      	ldr	r0, [sp, #156]	; 0x9c
 16e:	f7ff fffe 	bl	0 <_ZN6memchr8fallback6memchr17hb7c8a5efdf5c9368E>
 172:	9028      	str	r0, [sp, #160]	; 0xa0
 174:	e7ff      	b.n	176 <_ZN6memchr8fallback6memchr17hb7c8a5efdf5c9368E+0x176>
/Users/Luppy/.cargo/registry/src/github.com-1ecc6299db9ec823/memchr-2.2.0/src/fallback.rs:60
        if contains_zero_byte(chunk ^ vn1) {
 176:	9828      	ldr	r0, [sp, #160]	; 0xa0
 178:	9920      	ldr	r1, [sp, #128]	; 0x80
 17a:	4048      	eors	r0, r1
 17c:	9049      	str	r0, [sp, #292]	; 0x124
_ZN6memchr8fallback18contains_zero_byte17hcf05c92d2c728c95E():
/Users/Luppy/.cargo/registry/src/github.com-1ecc6299db9ec823/memchr-2.2.0/src/fallback.rs:33
    x.wrapping_sub(LO_USIZE) & !x & HI_USIZE != 0
 17e:	9849      	ldr	r0, [sp, #292]	; 0x124
 180:	f04f 3101 	mov.w	r1, #16843009	; 0x1010101
 184:	f7ff fffe 	bl	0 <_ZN4core3num23_$LT$impl$u20$usize$GT$12wrapping_sub17h049a26b7a4ff5318E>
 188:	9949      	ldr	r1, [sp, #292]	; 0x124
 18a:	4388      	bics	r0, r1
 18c:	f020 307f 	bic.w	r0, r0, #2139062143	; 0x7f7f7f7f
 190:	2800      	cmp	r0, #0
 192:	bf18      	it	ne
 194:	2001      	movne	r0, #1
_ZN6memchr8fallback6memchr17hb7c8a5efdf5c9368E():
/Users/Luppy/.cargo/registry/src/github.com-1ecc6299db9ec823/memchr-2.2.0/src/fallback.rs:60
        if contains_zero_byte(chunk ^ vn1) {
 196:	900e      	str	r0, [sp, #56]	; 0x38
 198:	e7ff      	b.n	19a <_ZN6memchr8fallback6memchr17hb7c8a5efdf5c9368E+0x19a>
 19a:	980e      	ldr	r0, [sp, #56]	; 0x38
 19c:	07c1      	lsls	r1, r0, #31
 19e:	2900      	cmp	r1, #0
 1a0:	d049      	beq.n	236 <_ZN6memchr8fallback6memchr17hb7c8a5efdf5c9368E+0x236>
 1a2:	e7ff      	b.n	1a4 <_ZN6memchr8fallback6memchr17hb7c8a5efdf5c9368E+0x1a4>
/Users/Luppy/.cargo/registry/src/github.com-1ecc6299db9ec823/memchr-2.2.0/src/fallback.rs:61
            return forward_search(start_ptr, end_ptr, ptr, confirm);
 1a4:	9824      	ldr	r0, [sp, #144]	; 0x90
 1a6:	9925      	ldr	r1, [sp, #148]	; 0x94
 1a8:	9a27      	ldr	r2, [sp, #156]	; 0x9c
 1aa:	9b21      	ldr	r3, [sp, #132]	; 0x84
 1ac:	904a      	str	r0, [sp, #296]	; 0x128
 1ae:	914b      	str	r1, [sp, #300]	; 0x12c
 1b0:	924c      	str	r2, [sp, #304]	; 0x130
 1b2:	934d      	str	r3, [sp, #308]	; 0x134
_ZN6memchr8fallback14forward_search17h670ad8ac33dd3ba3E():
/Users/Luppy/.cargo/registry/src/github.com-1ecc6299db9ec823/memchr-2.2.0/src/fallback.rs:292
    debug_assert!(start_ptr <= ptr);
 1b4:	984a      	ldr	r0, [sp, #296]	; 0x128
 1b6:	994c      	ldr	r1, [sp, #304]	; 0x130
 1b8:	4288      	cmp	r0, r1
 1ba:	d907      	bls.n	1cc <_ZN6memchr8fallback6memchr17hb7c8a5efdf5c9368E+0x1cc>
 1bc:	e7ff      	b.n	1be <_ZN6memchr8fallback6memchr17hb7c8a5efdf5c9368E+0x1be>
 1be:	f240 0000 	movw	r0, #0
 1c2:	f2c0 0000 	movt	r0, #0
 1c6:	f7ff fffe 	bl	0 <_ZN4core9panicking5panic17h53ca63c6ac6312f8E>
 1ca:	defe      	udf	#254	; 0xfe
/Users/Luppy/.cargo/registry/src/github.com-1ecc6299db9ec823/memchr-2.2.0/src/fallback.rs:293
    debug_assert!(ptr <= end_ptr);
 1cc:	984c      	ldr	r0, [sp, #304]	; 0x130
 1ce:	994b      	ldr	r1, [sp, #300]	; 0x12c
 1d0:	4288      	cmp	r0, r1
 1d2:	d907      	bls.n	1e4 <_ZN6memchr8fallback6memchr17hb7c8a5efdf5c9368E+0x1e4>
 1d4:	e7ff      	b.n	1d6 <_ZN6memchr8fallback6memchr17hb7c8a5efdf5c9368E+0x1d6>
 1d6:	f240 0000 	movw	r0, #0
 1da:	f2c0 0000 	movt	r0, #0
 1de:	f7ff fffe 	bl	0 <_ZN4core9panicking5panic17h53ca63c6ac6312f8E>
 1e2:	defe      	udf	#254	; 0xfe
/Users/Luppy/.cargo/registry/src/github.com-1ecc6299db9ec823/memchr-2.2.0/src/fallback.rs:295
    while ptr < end_ptr {
 1e4:	e7ff      	b.n	1e6 <_ZN6memchr8fallback6memchr17hb7c8a5efdf5c9368E+0x1e6>
 1e6:	984c      	ldr	r0, [sp, #304]	; 0x130
 1e8:	994b      	ldr	r1, [sp, #300]	; 0x12c
 1ea:	4288      	cmp	r0, r1
 1ec:	d303      	bcc.n	1f6 <_ZN6memchr8fallback6memchr17hb7c8a5efdf5c9368E+0x1f6>
 1ee:	e7ff      	b.n	1f0 <_ZN6memchr8fallback6memchr17hb7c8a5efdf5c9368E+0x1f0>
 1f0:	2000      	movs	r0, #0
/Users/Luppy/.cargo/registry/src/github.com-1ecc6299db9ec823/memchr-2.2.0/src/fallback.rs:301
    None
 1f2:	904e      	str	r0, [sp, #312]	; 0x138
/Users/Luppy/.cargo/registry/src/github.com-1ecc6299db9ec823/memchr-2.2.0/src/fallback.rs:302
}
 1f4:	e019      	b.n	22a <_ZN6memchr8fallback6memchr17hb7c8a5efdf5c9368E+0x22a>
/Users/Luppy/.cargo/registry/src/github.com-1ecc6299db9ec823/memchr-2.2.0/src/fallback.rs:296
        if confirm(*ptr) {
 1f6:	984c      	ldr	r0, [sp, #304]	; 0x130
 1f8:	7800      	ldrb	r0, [r0, #0]
 1fa:	f88d 0143 	strb.w	r0, [sp, #323]	; 0x143
 1fe:	f89d 1143 	ldrb.w	r1, [sp, #323]	; 0x143
 202:	a84d      	add	r0, sp, #308	; 0x134
 204:	f7ff fffe 	bl	0 <_ZN6memchr8fallback6memchr17hb7c8a5efdf5c9368E>
 208:	2800      	cmp	r0, #0
 20a:	d008      	beq.n	21e <_ZN6memchr8fallback6memchr17hb7c8a5efdf5c9368E+0x21e>
 20c:	e7ff      	b.n	20e <_ZN6memchr8fallback6memchr17hb7c8a5efdf5c9368E+0x20e>
/Users/Luppy/.cargo/registry/src/github.com-1ecc6299db9ec823/memchr-2.2.0/src/fallback.rs:297
            return Some(sub(ptr, start_ptr));
 20e:	984c      	ldr	r0, [sp, #304]	; 0x130
 210:	994a      	ldr	r1, [sp, #296]	; 0x128
 212:	f7ff fffe 	bl	0 <_ZN6memchr8fallback6memchr17hb7c8a5efdf5c9368E>
 216:	904f      	str	r0, [sp, #316]	; 0x13c
 218:	2001      	movs	r0, #1
 21a:	904e      	str	r0, [sp, #312]	; 0x138
/Users/Luppy/.cargo/registry/src/github.com-1ecc6299db9ec823/memchr-2.2.0/src/fallback.rs:302
}
 21c:	e005      	b.n	22a <_ZN6memchr8fallback6memchr17hb7c8a5efdf5c9368E+0x22a>
/Users/Luppy/.cargo/registry/src/github.com-1ecc6299db9ec823/memchr-2.2.0/src/fallback.rs:299
        ptr = ptr.offset(1);
 21e:	984c      	ldr	r0, [sp, #304]	; 0x130
 220:	2101      	movs	r1, #1
 222:	f7ff fffe 	bl	0 <_ZN4core3ptr33_$LT$impl$u20$$BP$const$u20$T$GT$6offset17h1b1bd4fc0c06f6a7E>
 226:	904c      	str	r0, [sp, #304]	; 0x130
/Users/Luppy/.cargo/registry/src/github.com-1ecc6299db9ec823/memchr-2.2.0/src/fallback.rs:295
    while ptr < end_ptr {
 228:	e7dd      	b.n	1e6 <_ZN6memchr8fallback6memchr17hb7c8a5efdf5c9368E+0x1e6>
/Users/Luppy/.cargo/registry/src/github.com-1ecc6299db9ec823/memchr-2.2.0/src/fallback.rs:302
}
 22a:	984e      	ldr	r0, [sp, #312]	; 0x138
 22c:	994f      	ldr	r1, [sp, #316]	; 0x13c
_ZN6memchr8fallback6memchr17hb7c8a5efdf5c9368E():
/Users/Luppy/.cargo/registry/src/github.com-1ecc6299db9ec823/memchr-2.2.0/src/fallback.rs:61
            return forward_search(start_ptr, end_ptr, ptr, confirm);
 22e:	911f      	str	r1, [sp, #124]	; 0x7c
 230:	901e      	str	r0, [sp, #120]	; 0x78
 232:	e7ff      	b.n	234 <_ZN6memchr8fallback6memchr17hb7c8a5efdf5c9368E+0x234>
 234:	e799      	b.n	16a <_ZN6memchr8fallback6memchr17hb7c8a5efdf5c9368E+0x16a>
/Users/Luppy/.cargo/registry/src/github.com-1ecc6299db9ec823/memchr-2.2.0/src/fallback.rs:64
        ptr = ptr_add(ptr, USIZE_BYTES - (start_ptr as usize & align));
 236:	9827      	ldr	r0, [sp, #156]	; 0x9c
 238:	9924      	ldr	r1, [sp, #144]	; 0x90
 23a:	9a23      	ldr	r2, [sp, #140]	; 0x8c
 23c:	4011      	ands	r1, r2
 23e:	f1c1 0204 	rsb	r2, r1, #4
 242:	2304      	movs	r3, #4
 244:	428b      	cmp	r3, r1
 246:	900d      	str	r0, [sp, #52]	; 0x34
 248:	920c      	str	r2, [sp, #48]	; 0x30
 24a:	f0c0 8151 	bcc.w	4f0 <_ZN6memchr8fallback6memchr17hb7c8a5efdf5c9368E+0x4f0>
 24e:	e7ff      	b.n	250 <_ZN6memchr8fallback6memchr17hb7c8a5efdf5c9368E+0x250>
 250:	980d      	ldr	r0, [sp, #52]	; 0x34
 252:	990c      	ldr	r1, [sp, #48]	; 0x30
 254:	f7ff fffe 	bl	0 <_ZN6memchr8fallback6memchr17hb7c8a5efdf5c9368E>
 258:	900b      	str	r0, [sp, #44]	; 0x2c
 25a:	e7ff      	b.n	25c <_ZN6memchr8fallback6memchr17hb7c8a5efdf5c9368E+0x25c>
 25c:	980b      	ldr	r0, [sp, #44]	; 0x2c
 25e:	9027      	str	r0, [sp, #156]	; 0x9c
 260:	2100      	movs	r1, #0
/Users/Luppy/.cargo/registry/src/github.com-1ecc6299db9ec823/memchr-2.2.0/src/fallback.rs:65
        debug_assert!(ptr > start_ptr);
 262:	2900      	cmp	r1, #0
 264:	d10d      	bne.n	282 <_ZN6memchr8fallback6memchr17hb7c8a5efdf5c9368E+0x282>
 266:	e7ff      	b.n	268 <_ZN6memchr8fallback6memchr17hb7c8a5efdf5c9368E+0x268>
 268:	9827      	ldr	r0, [sp, #156]	; 0x9c
 26a:	9924      	ldr	r1, [sp, #144]	; 0x90
 26c:	4288      	cmp	r0, r1
 26e:	d807      	bhi.n	280 <_ZN6memchr8fallback6memchr17hb7c8a5efdf5c9368E+0x280>
 270:	e7ff      	b.n	272 <_ZN6memchr8fallback6memchr17hb7c8a5efdf5c9368E+0x272>
 272:	f240 0000 	movw	r0, #0
 276:	f2c0 0000 	movt	r0, #0
 27a:	f7ff fffe 	bl	0 <_ZN4core9panicking5panic17h53ca63c6ac6312f8E>
 27e:	defe      	udf	#254	; 0xfe
 280:	e7ff      	b.n	282 <_ZN6memchr8fallback6memchr17hb7c8a5efdf5c9368E+0x282>
 282:	2000      	movs	r0, #0
/Users/Luppy/.cargo/registry/src/github.com-1ecc6299db9ec823/memchr-2.2.0/src/fallback.rs:66
        debug_assert!(ptr_sub(end_ptr, USIZE_BYTES) >= start_ptr);
 284:	2800      	cmp	r0, #0
 286:	d113      	bne.n	2b0 <_ZN6memchr8fallback6memchr17hb7c8a5efdf5c9368E+0x2b0>
 288:	e7ff      	b.n	28a <_ZN6memchr8fallback6memchr17hb7c8a5efdf5c9368E+0x28a>
 28a:	9825      	ldr	r0, [sp, #148]	; 0x94
 28c:	2104      	movs	r1, #4
 28e:	f7ff fffe 	bl	0 <_ZN6memchr8fallback6memchr17hb7c8a5efdf5c9368E>
 292:	900a      	str	r0, [sp, #40]	; 0x28
 294:	e7ff      	b.n	296 <_ZN6memchr8fallback6memchr17hb7c8a5efdf5c9368E+0x296>
 296:	9824      	ldr	r0, [sp, #144]	; 0x90
 298:	990a      	ldr	r1, [sp, #40]	; 0x28
 29a:	4281      	cmp	r1, r0
 29c:	d207      	bcs.n	2ae <_ZN6memchr8fallback6memchr17hb7c8a5efdf5c9368E+0x2ae>
 29e:	e7ff      	b.n	2a0 <_ZN6memchr8fallback6memchr17hb7c8a5efdf5c9368E+0x2a0>
 2a0:	f240 0000 	movw	r0, #0
 2a4:	f2c0 0000 	movt	r0, #0
 2a8:	f7ff fffe 	bl	0 <_ZN4core9panicking5panic17h53ca63c6ac6312f8E>
 2ac:	defe      	udf	#254	; 0xfe
 2ae:	e7ff      	b.n	2b0 <_ZN6memchr8fallback6memchr17hb7c8a5efdf5c9368E+0x2b0>
/Users/Luppy/.cargo/registry/src/github.com-1ecc6299db9ec823/memchr-2.2.0/src/fallback.rs:67
        while loop_size == LOOP_SIZE && ptr <= ptr_sub(end_ptr, loop_size) {
 2b0:	e7ff      	b.n	2b2 <_ZN6memchr8fallback6memchr17hb7c8a5efdf5c9368E+0x2b2>
 2b2:	9822      	ldr	r0, [sp, #136]	; 0x88
 2b4:	2808      	cmp	r0, #8
 2b6:	d04c      	beq.n	352 <_ZN6memchr8fallback6memchr17hb7c8a5efdf5c9368E+0x352>
 2b8:	e047      	b.n	34a <_ZN6memchr8fallback6memchr17hb7c8a5efdf5c9368E+0x34a>
/Users/Luppy/.cargo/registry/src/github.com-1ecc6299db9ec823/memchr-2.2.0/src/fallback.rs:79
        forward_search(start_ptr, end_ptr, ptr, confirm)
 2ba:	9824      	ldr	r0, [sp, #144]	; 0x90
 2bc:	9925      	ldr	r1, [sp, #148]	; 0x94
 2be:	9a27      	ldr	r2, [sp, #156]	; 0x9c
 2c0:	9b21      	ldr	r3, [sp, #132]	; 0x84
 2c2:	9051      	str	r0, [sp, #324]	; 0x144
 2c4:	9152      	str	r1, [sp, #328]	; 0x148
 2c6:	9253      	str	r2, [sp, #332]	; 0x14c
 2c8:	9354      	str	r3, [sp, #336]	; 0x150
_ZN6memchr8fallback14forward_search17h670ad8ac33dd3ba3E():
/Users/Luppy/.cargo/registry/src/github.com-1ecc6299db9ec823/memchr-2.2.0/src/fallback.rs:292
    debug_assert!(start_ptr <= ptr);
 2ca:	9851      	ldr	r0, [sp, #324]	; 0x144
 2cc:	9953      	ldr	r1, [sp, #332]	; 0x14c
 2ce:	4288      	cmp	r0, r1
 2d0:	d907      	bls.n	2e2 <_ZN6memchr8fallback6memchr17hb7c8a5efdf5c9368E+0x2e2>
 2d2:	e7ff      	b.n	2d4 <_ZN6memchr8fallback6memchr17hb7c8a5efdf5c9368E+0x2d4>
 2d4:	f240 0000 	movw	r0, #0
 2d8:	f2c0 0000 	movt	r0, #0
 2dc:	f7ff fffe 	bl	0 <_ZN4core9panicking5panic17h53ca63c6ac6312f8E>
 2e0:	defe      	udf	#254	; 0xfe
/Users/Luppy/.cargo/registry/src/github.com-1ecc6299db9ec823/memchr-2.2.0/src/fallback.rs:293
    debug_assert!(ptr <= end_ptr);
 2e2:	9853      	ldr	r0, [sp, #332]	; 0x14c
 2e4:	9952      	ldr	r1, [sp, #328]	; 0x148
 2e6:	4288      	cmp	r0, r1
 2e8:	d907      	bls.n	2fa <_ZN6memchr8fallback6memchr17hb7c8a5efdf5c9368E+0x2fa>
 2ea:	e7ff      	b.n	2ec <_ZN6memchr8fallback6memchr17hb7c8a5efdf5c9368E+0x2ec>
 2ec:	f240 0000 	movw	r0, #0
 2f0:	f2c0 0000 	movt	r0, #0
 2f4:	f7ff fffe 	bl	0 <_ZN4core9panicking5panic17h53ca63c6ac6312f8E>
 2f8:	defe      	udf	#254	; 0xfe
/Users/Luppy/.cargo/registry/src/github.com-1ecc6299db9ec823/memchr-2.2.0/src/fallback.rs:295
    while ptr < end_ptr {
 2fa:	e7ff      	b.n	2fc <_ZN6memchr8fallback6memchr17hb7c8a5efdf5c9368E+0x2fc>
 2fc:	9853      	ldr	r0, [sp, #332]	; 0x14c
 2fe:	9952      	ldr	r1, [sp, #328]	; 0x148
 300:	4288      	cmp	r0, r1
 302:	d303      	bcc.n	30c <_ZN6memchr8fallback6memchr17hb7c8a5efdf5c9368E+0x30c>
 304:	e7ff      	b.n	306 <_ZN6memchr8fallback6memchr17hb7c8a5efdf5c9368E+0x306>
 306:	2000      	movs	r0, #0
/Users/Luppy/.cargo/registry/src/github.com-1ecc6299db9ec823/memchr-2.2.0/src/fallback.rs:301
    None
 308:	9055      	str	r0, [sp, #340]	; 0x154
/Users/Luppy/.cargo/registry/src/github.com-1ecc6299db9ec823/memchr-2.2.0/src/fallback.rs:302
}
 30a:	e019      	b.n	340 <_ZN6memchr8fallback6memchr17hb7c8a5efdf5c9368E+0x340>
/Users/Luppy/.cargo/registry/src/github.com-1ecc6299db9ec823/memchr-2.2.0/src/fallback.rs:296
        if confirm(*ptr) {
 30c:	9853      	ldr	r0, [sp, #332]	; 0x14c
 30e:	7800      	ldrb	r0, [r0, #0]
 310:	f88d 015f 	strb.w	r0, [sp, #351]	; 0x15f
 314:	f89d 115f 	ldrb.w	r1, [sp, #351]	; 0x15f
 318:	a854      	add	r0, sp, #336	; 0x150
 31a:	f7ff fffe 	bl	0 <_ZN6memchr8fallback6memchr17hb7c8a5efdf5c9368E>
 31e:	2800      	cmp	r0, #0
 320:	d008      	beq.n	334 <_ZN6memchr8fallback6memchr17hb7c8a5efdf5c9368E+0x334>
 322:	e7ff      	b.n	324 <_ZN6memchr8fallback6memchr17hb7c8a5efdf5c9368E+0x324>
/Users/Luppy/.cargo/registry/src/github.com-1ecc6299db9ec823/memchr-2.2.0/src/fallback.rs:297
            return Some(sub(ptr, start_ptr));
 324:	9853      	ldr	r0, [sp, #332]	; 0x14c
 326:	9951      	ldr	r1, [sp, #324]	; 0x144
 328:	f7ff fffe 	bl	0 <_ZN6memchr8fallback6memchr17hb7c8a5efdf5c9368E>
 32c:	9056      	str	r0, [sp, #344]	; 0x158
 32e:	2001      	movs	r0, #1
 330:	9055      	str	r0, [sp, #340]	; 0x154
/Users/Luppy/.cargo/registry/src/github.com-1ecc6299db9ec823/memchr-2.2.0/src/fallback.rs:302
}
 332:	e005      	b.n	340 <_ZN6memchr8fallback6memchr17hb7c8a5efdf5c9368E+0x340>
/Users/Luppy/.cargo/registry/src/github.com-1ecc6299db9ec823/memchr-2.2.0/src/fallback.rs:299
        ptr = ptr.offset(1);
 334:	9853      	ldr	r0, [sp, #332]	; 0x14c
 336:	2101      	movs	r1, #1
 338:	f7ff fffe 	bl	0 <_ZN4core3ptr33_$LT$impl$u20$$BP$const$u20$T$GT$6offset17h1b1bd4fc0c06f6a7E>
 33c:	9053      	str	r0, [sp, #332]	; 0x14c
/Users/Luppy/.cargo/registry/src/github.com-1ecc6299db9ec823/memchr-2.2.0/src/fallback.rs:295
    while ptr < end_ptr {
 33e:	e7dd      	b.n	2fc <_ZN6memchr8fallback6memchr17hb7c8a5efdf5c9368E+0x2fc>
/Users/Luppy/.cargo/registry/src/github.com-1ecc6299db9ec823/memchr-2.2.0/src/fallback.rs:302
}
 340:	9855      	ldr	r0, [sp, #340]	; 0x154
 342:	9956      	ldr	r1, [sp, #344]	; 0x158
_ZN6memchr8fallback6memchr17hb7c8a5efdf5c9368E():
/Users/Luppy/.cargo/registry/src/github.com-1ecc6299db9ec823/memchr-2.2.0/src/fallback.rs:79
        forward_search(start_ptr, end_ptr, ptr, confirm)
 344:	911f      	str	r1, [sp, #124]	; 0x7c
 346:	901e      	str	r0, [sp, #120]	; 0x78
 348:	e0ca      	b.n	4e0 <_ZN6memchr8fallback6memchr17hb7c8a5efdf5c9368E+0x4e0>
 34a:	2000      	movs	r0, #0
/Users/Luppy/.cargo/registry/src/github.com-1ecc6299db9ec823/memchr-2.2.0/src/fallback.rs:67
        while loop_size == LOOP_SIZE && ptr <= ptr_sub(end_ptr, loop_size) {
 34c:	f88d 00a7 	strb.w	r0, [sp, #167]	; 0xa7
 350:	e009      	b.n	366 <_ZN6memchr8fallback6memchr17hb7c8a5efdf5c9368E+0x366>
 352:	9827      	ldr	r0, [sp, #156]	; 0x9c
 354:	9925      	ldr	r1, [sp, #148]	; 0x94
 356:	9a22      	ldr	r2, [sp, #136]	; 0x88
 358:	9009      	str	r0, [sp, #36]	; 0x24
 35a:	4608      	mov	r0, r1
 35c:	4611      	mov	r1, r2
 35e:	f7ff fffe 	bl	0 <_ZN6memchr8fallback6memchr17hb7c8a5efdf5c9368E>
 362:	9008      	str	r0, [sp, #32]
 364:	e005      	b.n	372 <_ZN6memchr8fallback6memchr17hb7c8a5efdf5c9368E+0x372>
 366:	f89d 00a7 	ldrb.w	r0, [sp, #167]	; 0xa7
 36a:	07c0      	lsls	r0, r0, #31
 36c:	2800      	cmp	r0, #0
 36e:	d109      	bne.n	384 <_ZN6memchr8fallback6memchr17hb7c8a5efdf5c9368E+0x384>
 370:	e7a3      	b.n	2ba <_ZN6memchr8fallback6memchr17hb7c8a5efdf5c9368E+0x2ba>
 372:	2000      	movs	r0, #0
 374:	9909      	ldr	r1, [sp, #36]	; 0x24
 376:	9a08      	ldr	r2, [sp, #32]
 378:	4291      	cmp	r1, r2
 37a:	bf98      	it	ls
 37c:	2001      	movls	r0, #1
 37e:	f88d 00a7 	strb.w	r0, [sp, #167]	; 0xa7
 382:	e7f0      	b.n	366 <_ZN6memchr8fallback6memchr17hb7c8a5efdf5c9368E+0x366>
 384:	2000      	movs	r0, #0
/Users/Luppy/.cargo/registry/src/github.com-1ecc6299db9ec823/memchr-2.2.0/src/fallback.rs:68
            debug_assert_eq!(0, (ptr as usize) % USIZE_BYTES);
 386:	2800      	cmp	r0, #0
 388:	d159      	bne.n	43e <_ZN6memchr8fallback6memchr17hb7c8a5efdf5c9368E+0x43e>
 38a:	e7ff      	b.n	38c <_ZN6memchr8fallback6memchr17hb7c8a5efdf5c9368E+0x38c>
 38c:	9827      	ldr	r0, [sp, #156]	; 0x9c
 38e:	9007      	str	r0, [sp, #28]
 390:	e7ff      	b.n	392 <_ZN6memchr8fallback6memchr17hb7c8a5efdf5c9368E+0x392>
 392:	9807      	ldr	r0, [sp, #28]
 394:	f000 0103 	and.w	r1, r0, #3
 398:	912c      	str	r1, [sp, #176]	; 0xb0
 39a:	f240 0100 	movw	r1, #0
 39e:	f2c0 0100 	movt	r1, #0
 3a2:	912a      	str	r1, [sp, #168]	; 0xa8
 3a4:	a92c      	add	r1, sp, #176	; 0xb0
 3a6:	912b      	str	r1, [sp, #172]	; 0xac
 3a8:	992a      	ldr	r1, [sp, #168]	; 0xa8
 3aa:	912d      	str	r1, [sp, #180]	; 0xb4
 3ac:	992b      	ldr	r1, [sp, #172]	; 0xac
 3ae:	912e      	str	r1, [sp, #184]	; 0xb8
 3b0:	992d      	ldr	r1, [sp, #180]	; 0xb4
 3b2:	6809      	ldr	r1, [r1, #0]
 3b4:	9a2e      	ldr	r2, [sp, #184]	; 0xb8
 3b6:	6812      	ldr	r2, [r2, #0]
 3b8:	4291      	cmp	r1, r2
 3ba:	d016      	beq.n	3ea <_ZN6memchr8fallback6memchr17hb7c8a5efdf5c9368E+0x3ea>
 3bc:	e7ff      	b.n	3be <_ZN6memchr8fallback6memchr17hb7c8a5efdf5c9368E+0x3be>
 3be:	982d      	ldr	r0, [sp, #180]	; 0xb4
 3c0:	903b      	str	r0, [sp, #236]	; 0xec
 3c2:	982e      	ldr	r0, [sp, #184]	; 0xb8
 3c4:	903c      	str	r0, [sp, #240]	; 0xf0
 3c6:	a83b      	add	r0, sp, #236	; 0xec
 3c8:	9039      	str	r0, [sp, #228]	; 0xe4
 3ca:	a83c      	add	r0, sp, #240	; 0xf0
 3cc:	903a      	str	r0, [sp, #232]	; 0xe8
 3ce:	9839      	ldr	r0, [sp, #228]	; 0xe4
 3d0:	903d      	str	r0, [sp, #244]	; 0xf4
 3d2:	983a      	ldr	r0, [sp, #232]	; 0xe8
 3d4:	903e      	str	r0, [sp, #248]	; 0xf8
 3d6:	983d      	ldr	r0, [sp, #244]	; 0xf4
 3d8:	f240 0100 	movw	r1, #0
 3dc:	f2c0 0100 	movt	r1, #0
 3e0:	f7ff fffe 	bl	0 <_ZN4core3fmt10ArgumentV13new17he7aeb924cd1c8272E>
 3e4:	9006      	str	r0, [sp, #24]
 3e6:	9105      	str	r1, [sp, #20]
 3e8:	e000      	b.n	3ec <_ZN6memchr8fallback6memchr17hb7c8a5efdf5c9368E+0x3ec>
 3ea:	e028      	b.n	43e <_ZN6memchr8fallback6memchr17hb7c8a5efdf5c9368E+0x43e>
 3ec:	983e      	ldr	r0, [sp, #248]	; 0xf8
 3ee:	f240 0100 	movw	r1, #0
 3f2:	f2c0 0100 	movt	r1, #0
 3f6:	f7ff fffe 	bl	0 <_ZN4core3fmt10ArgumentV13new17he7aeb924cd1c8272E>
 3fa:	9004      	str	r0, [sp, #16]
 3fc:	9103      	str	r1, [sp, #12]
 3fe:	e7ff      	b.n	400 <_ZN6memchr8fallback6memchr17hb7c8a5efdf5c9368E+0x400>
 400:	9806      	ldr	r0, [sp, #24]
 402:	9035      	str	r0, [sp, #212]	; 0xd4
 404:	9905      	ldr	r1, [sp, #20]
 406:	9136      	str	r1, [sp, #216]	; 0xd8
 408:	9a04      	ldr	r2, [sp, #16]
 40a:	9237      	str	r2, [sp, #220]	; 0xdc
 40c:	9b03      	ldr	r3, [sp, #12]
 40e:	9338      	str	r3, [sp, #224]	; 0xe0
 410:	46ec      	mov	ip, sp
 412:	f04f 0e02 	mov.w	lr, #2
 416:	f8cc e000 	str.w	lr, [ip]
 41a:	f240 0100 	movw	r1, #0
 41e:	f2c0 0100 	movt	r1, #0
 422:	a82f      	add	r0, sp, #188	; 0xbc
 424:	2203      	movs	r2, #3
 426:	ab35      	add	r3, sp, #212	; 0xd4
 428:	f7ff fffe 	bl	0 <_ZN4core3fmt9Arguments6new_v117h97fab7064a36d1a4E>
 42c:	e7ff      	b.n	2 <_ZN6memchr8fallback6memchr17hb7c8a5efdf5c9368E+0x2>
 42e:	f240 0100 	movw	r1, #0
 432:	f2c0 0100 	movt	r1, #0
 436:	a82f      	add	r0, sp, #188	; 0xbc
 438:	f7ff fffe 	bl	0 <_ZN4core9panicking9panic_fmt17h6b4d8e87b0965449E>
 43c:	defe      	udf	#254	; 0xfe
/Users/Luppy/.cargo/registry/src/github.com-1ecc6299db9ec823/memchr-2.2.0/src/fallback.rs:70
            let a = *(ptr as *const usize);
 43e:	9827      	ldr	r0, [sp, #156]	; 0x9c
 440:	6800      	ldr	r0, [r0, #0]
 442:	903f      	str	r0, [sp, #252]	; 0xfc
/Users/Luppy/.cargo/registry/src/github.com-1ecc6299db9ec823/memchr-2.2.0/src/fallback.rs:71
            let b = *(ptr_add(ptr, USIZE_BYTES) as *const usize);
 444:	9827      	ldr	r0, [sp, #156]	; 0x9c
 446:	2104      	movs	r1, #4
 448:	f7ff fffe 	bl	0 <_ZN6memchr8fallback6memchr17hb7c8a5efdf5c9368E>
 44c:	9002      	str	r0, [sp, #8]
 44e:	e7ff      	b.n	450 <_ZN6memchr8fallback6memchr17hb7c8a5efdf5c9368E+0x450>
 450:	9802      	ldr	r0, [sp, #8]
 452:	6801      	ldr	r1, [r0, #0]
 454:	9140      	str	r1, [sp, #256]	; 0x100
/Users/Luppy/.cargo/registry/src/github.com-1ecc6299db9ec823/memchr-2.2.0/src/fallback.rs:72
            let eqa = contains_zero_byte(a ^ vn1);
 456:	993f      	ldr	r1, [sp, #252]	; 0xfc
 458:	9a20      	ldr	r2, [sp, #128]	; 0x80
 45a:	4051      	eors	r1, r2
 45c:	9158      	str	r1, [sp, #352]	; 0x160
_ZN6memchr8fallback18contains_zero_byte17hcf05c92d2c728c95E():
/Users/Luppy/.cargo/registry/src/github.com-1ecc6299db9ec823/memchr-2.2.0/src/fallback.rs:33
    x.wrapping_sub(LO_USIZE) & !x & HI_USIZE != 0
 45e:	9858      	ldr	r0, [sp, #352]	; 0x160
 460:	f04f 3101 	mov.w	r1, #16843009	; 0x1010101
 464:	f7ff fffe 	bl	0 <_ZN4core3num23_$LT$impl$u20$usize$GT$12wrapping_sub17h049a26b7a4ff5318E>
 468:	9958      	ldr	r1, [sp, #352]	; 0x160
 46a:	4388      	bics	r0, r1
 46c:	f020 307f 	bic.w	r0, r0, #2139062143	; 0x7f7f7f7f
 470:	2800      	cmp	r0, #0
 472:	bf18      	it	ne
 474:	2001      	movne	r0, #1
_ZN6memchr8fallback6memchr17hb7c8a5efdf5c9368E():
/Users/Luppy/.cargo/registry/src/github.com-1ecc6299db9ec823/memchr-2.2.0/src/fallback.rs:72
            let eqa = contains_zero_byte(a ^ vn1);
 476:	f88d 0104 	strb.w	r0, [sp, #260]	; 0x104
 47a:	e7ff      	b.n	47c <_ZN6memchr8fallback6memchr17hb7c8a5efdf5c9368E+0x47c>
/Users/Luppy/.cargo/registry/src/github.com-1ecc6299db9ec823/memchr-2.2.0/src/fallback.rs:73
            let eqb = contains_zero_byte(b ^ vn1);
 47c:	9840      	ldr	r0, [sp, #256]	; 0x100
 47e:	9920      	ldr	r1, [sp, #128]	; 0x80
 480:	4048      	eors	r0, r1
 482:	9059      	str	r0, [sp, #356]	; 0x164
_ZN6memchr8fallback18contains_zero_byte17hcf05c92d2c728c95E():
/Users/Luppy/.cargo/registry/src/github.com-1ecc6299db9ec823/memchr-2.2.0/src/fallback.rs:33
    x.wrapping_sub(LO_USIZE) & !x & HI_USIZE != 0
 484:	9859      	ldr	r0, [sp, #356]	; 0x164
 486:	f04f 3101 	mov.w	r1, #16843009	; 0x1010101
 48a:	f7ff fffe 	bl	0 <_ZN4core3num23_$LT$impl$u20$usize$GT$12wrapping_sub17h049a26b7a4ff5318E>
 48e:	9959      	ldr	r1, [sp, #356]	; 0x164
 490:	4388      	bics	r0, r1
 492:	f020 307f 	bic.w	r0, r0, #2139062143	; 0x7f7f7f7f
 496:	2800      	cmp	r0, #0
 498:	bf18      	it	ne
 49a:	2001      	movne	r0, #1
_ZN6memchr8fallback6memchr17hb7c8a5efdf5c9368E():
/Users/Luppy/.cargo/registry/src/github.com-1ecc6299db9ec823/memchr-2.2.0/src/fallback.rs:73
            let eqb = contains_zero_byte(b ^ vn1);
 49c:	f88d 0105 	strb.w	r0, [sp, #261]	; 0x105
 4a0:	e7ff      	b.n	4a2 <_ZN6memchr8fallback6memchr17hb7c8a5efdf5c9368E+0x4a2>
/Users/Luppy/.cargo/registry/src/github.com-1ecc6299db9ec823/memchr-2.2.0/src/fallback.rs:74
            if eqa || eqb {
 4a2:	f89d 0104 	ldrb.w	r0, [sp, #260]	; 0x104
 4a6:	07c0      	lsls	r0, r0, #31
 4a8:	2800      	cmp	r0, #0
 4aa:	d004      	beq.n	4b6 <_ZN6memchr8fallback6memchr17hb7c8a5efdf5c9368E+0x4b6>
 4ac:	e7ff      	b.n	4ae <_ZN6memchr8fallback6memchr17hb7c8a5efdf5c9368E+0x4ae>
 4ae:	2001      	movs	r0, #1
 4b0:	f88d 0106 	strb.w	r0, [sp, #262]	; 0x106
 4b4:	e004      	b.n	4c0 <_ZN6memchr8fallback6memchr17hb7c8a5efdf5c9368E+0x4c0>
 4b6:	f89d 0105 	ldrb.w	r0, [sp, #261]	; 0x105
 4ba:	f88d 0106 	strb.w	r0, [sp, #262]	; 0x106
 4be:	e7ff      	b.n	4c0 <_ZN6memchr8fallback6memchr17hb7c8a5efdf5c9368E+0x4c0>
 4c0:	f89d 0106 	ldrb.w	r0, [sp, #262]	; 0x106
 4c4:	07c0      	lsls	r0, r0, #31
 4c6:	2800      	cmp	r0, #0
 4c8:	d001      	beq.n	4ce <_ZN6memchr8fallback6memchr17hb7c8a5efdf5c9368E+0x4ce>
 4ca:	e7ff      	b.n	4cc <_ZN6memchr8fallback6memchr17hb7c8a5efdf5c9368E+0x4cc>
/Users/Luppy/.cargo/registry/src/github.com-1ecc6299db9ec823/memchr-2.2.0/src/fallback.rs:75
                break;
 4cc:	e6f5      	b.n	2ba <_ZN6memchr8fallback6memchr17hb7c8a5efdf5c9368E+0x2ba>
/Users/Luppy/.cargo/registry/src/github.com-1ecc6299db9ec823/memchr-2.2.0/src/fallback.rs:77
            ptr = ptr_add(ptr, LOOP_SIZE);
 4ce:	9827      	ldr	r0, [sp, #156]	; 0x9c
 4d0:	2108      	movs	r1, #8
 4d2:	f7ff fffe 	bl	0 <_ZN6memchr8fallback6memchr17hb7c8a5efdf5c9368E>
 4d6:	9001      	str	r0, [sp, #4]
 4d8:	e7ff      	b.n	4da <_ZN6memchr8fallback6memchr17hb7c8a5efdf5c9368E+0x4da>
 4da:	9801      	ldr	r0, [sp, #4]
 4dc:	9027      	str	r0, [sp, #156]	; 0x9c
/Users/Luppy/.cargo/registry/src/github.com-1ecc6299db9ec823/memchr-2.2.0/src/fallback.rs:67
        while loop_size == LOOP_SIZE && ptr <= ptr_sub(end_ptr, loop_size) {
 4de:	e6e8      	b.n	2b2 <_ZN6memchr8fallback6memchr17hb7c8a5efdf5c9368E+0x2b2>
/Users/Luppy/.cargo/registry/src/github.com-1ecc6299db9ec823/memchr-2.2.0/src/fallback.rs:81
}
 4e0:	e63f      	b.n	162 <_ZN6memchr8fallback6memchr17hb7c8a5efdf5c9368E+0x162>
/Users/Luppy/.cargo/registry/src/github.com-1ecc6299db9ec823/memchr-2.2.0/src/fallback.rs:49
    let align = USIZE_BYTES - 1;
 4e2:	f240 0000 	movw	r0, #0
 4e6:	f2c0 0000 	movt	r0, #0
 4ea:	f7ff fffe 	bl	0 <_ZN4core9panicking5panic17h53ca63c6ac6312f8E>
 4ee:	defe      	udf	#254	; 0xfe
/Users/Luppy/.cargo/registry/src/github.com-1ecc6299db9ec823/memchr-2.2.0/src/fallback.rs:64
        ptr = ptr_add(ptr, USIZE_BYTES - (start_ptr as usize & align));
 4f0:	f240 0000 	movw	r0, #0
 4f4:	f2c0 0000 	movt	r0, #0
 4f8:	f7ff fffe 	bl	0 <_ZN4core9panicking5panic17h53ca63c6ac6312f8E>
 4fc:	defe      	udf	#254	; 0xfe

Disassembly of section .text._ZN6memchr8fallback6memchr28_$u7b$$u7b$closure$u7d$$u7d$17h81aa9637be2e3c3fE:

00000000 <_ZN6memchr8fallback6memchr28_$u7b$$u7b$closure$u7d$$u7d$17h81aa9637be2e3c3fE>:
_ZN6memchr8fallback6memchr28_$u7b$$u7b$closure$u7d$$u7d$17h81aa9637be2e3c3fE():
/Users/Luppy/.cargo/registry/src/github.com-1ecc6299db9ec823/memchr-2.2.0/src/fallback.rs:47
    let confirm = |byte| byte == n1;
   0:	b084      	sub	sp, #16
   2:	460a      	mov	r2, r1
   4:	4603      	mov	r3, r0
   6:	9002      	str	r0, [sp, #8]
   8:	f88d 100f 	strb.w	r1, [sp, #15]
   c:	f89d 000f 	ldrb.w	r0, [sp, #15]
  10:	9902      	ldr	r1, [sp, #8]
  12:	6809      	ldr	r1, [r1, #0]
  14:	7809      	ldrb	r1, [r1, #0]
  16:	1a40      	subs	r0, r0, r1
  18:	fab0 f080 	clz	r0, r0
  1c:	0940      	lsrs	r0, r0, #5
  1e:	9201      	str	r2, [sp, #4]
  20:	9300      	str	r3, [sp, #0]
  22:	b004      	add	sp, #16
  24:	4770      	bx	lr

Disassembly of section .text._ZN6memchr8fallback7memchr217hb464b3a3d7bdb29cE:

00000000 <_ZN6memchr8fallback7memchr217hb464b3a3d7bdb29cE>:
_ZN6memchr8fallback7memchr217hb464b3a3d7bdb29cE():
/Users/Luppy/.cargo/registry/src/github.com-1ecc6299db9ec823/memchr-2.2.0/src/fallback.rs:84
pub fn memchr2(n1: u8, n2: u8, haystack: &[u8]) -> Option<usize> {
   0:	b5b0      	push	{r4, r5, r7, lr}
   2:	b0de      	sub	sp, #376	; 0x178
   4:	469c      	mov	ip, r3
   6:	4696      	mov	lr, r2
   8:	460c      	mov	r4, r1
   a:	4605      	mov	r5, r0
   c:	f88d 006a 	strb.w	r0, [sp, #106]	; 0x6a
  10:	f88d 106b 	strb.w	r1, [sp, #107]	; 0x6b
  14:	921b      	str	r2, [sp, #108]	; 0x6c
  16:	931c      	str	r3, [sp, #112]	; 0x70
/Users/Luppy/.cargo/registry/src/github.com-1ecc6299db9ec823/memchr-2.2.0/src/fallback.rs:85
    let vn1 = repeat_byte(n1);
  18:	f89d 006a 	ldrb.w	r0, [sp, #106]	; 0x6a
  1c:	f88d 0106 	strb.w	r0, [sp, #262]	; 0x106
_ZN6memchr8fallback11repeat_byte17h6374a9c8a738a5e1E():
/Users/Luppy/.cargo/registry/src/github.com-1ecc6299db9ec823/memchr-2.2.0/src/fallback.rs:42
    (b as usize) * (usize::MAX / 255)
  20:	f89d 0106 	ldrb.w	r0, [sp, #262]	; 0x106
  24:	f04f 3101 	mov.w	r1, #16843009	; 0x1010101
  28:	fba0 0101 	umull	r0, r1, r0, r1
  2c:	2900      	cmp	r1, #0
  2e:	f8cd c064 	str.w	ip, [sp, #100]	; 0x64
  32:	f8cd e060 	str.w	lr, [sp, #96]	; 0x60
  36:	9417      	str	r4, [sp, #92]	; 0x5c
  38:	9516      	str	r5, [sp, #88]	; 0x58
  3a:	9015      	str	r0, [sp, #84]	; 0x54
  3c:	d007      	beq.n	4e <_ZN6memchr8fallback7memchr217hb464b3a3d7bdb29cE+0x4e>
  3e:	e7ff      	b.n	40 <_ZN6memchr8fallback7memchr217hb464b3a3d7bdb29cE+0x40>
  40:	f240 0000 	movw	r0, #0
  44:	f2c0 0000 	movt	r0, #0
  48:	f7ff fffe 	bl	0 <_ZN4core9panicking5panic17h53ca63c6ac6312f8E>
  4c:	defe      	udf	#254	; 0xfe
_ZN6memchr8fallback7memchr217hb464b3a3d7bdb29cE():
/Users/Luppy/.cargo/registry/src/github.com-1ecc6299db9ec823/memchr-2.2.0/src/fallback.rs:85
    let vn1 = repeat_byte(n1);
  4e:	9815      	ldr	r0, [sp, #84]	; 0x54
  50:	901f      	str	r0, [sp, #124]	; 0x7c
  52:	e7ff      	b.n	54 <_ZN6memchr8fallback7memchr217hb464b3a3d7bdb29cE+0x54>
/Users/Luppy/.cargo/registry/src/github.com-1ecc6299db9ec823/memchr-2.2.0/src/fallback.rs:86
    let vn2 = repeat_byte(n2);
  54:	f89d 006b 	ldrb.w	r0, [sp, #107]	; 0x6b
  58:	f88d 0107 	strb.w	r0, [sp, #263]	; 0x107
_ZN6memchr8fallback11repeat_byte17h6374a9c8a738a5e1E():
/Users/Luppy/.cargo/registry/src/github.com-1ecc6299db9ec823/memchr-2.2.0/src/fallback.rs:42
    (b as usize) * (usize::MAX / 255)
  5c:	f89d 0107 	ldrb.w	r0, [sp, #263]	; 0x107
  60:	f04f 3101 	mov.w	r1, #16843009	; 0x1010101
  64:	fba0 0101 	umull	r0, r1, r0, r1
  68:	2900      	cmp	r1, #0
  6a:	9014      	str	r0, [sp, #80]	; 0x50
  6c:	d007      	beq.n	7e <_ZN6memchr8fallback7memchr217hb464b3a3d7bdb29cE+0x7e>
  6e:	e7ff      	b.n	70 <_ZN6memchr8fallback7memchr217hb464b3a3d7bdb29cE+0x70>
  70:	f240 0000 	movw	r0, #0
  74:	f2c0 0000 	movt	r0, #0
  78:	f7ff fffe 	bl	0 <_ZN4core9panicking5panic17h53ca63c6ac6312f8E>
  7c:	defe      	udf	#254	; 0xfe
_ZN6memchr8fallback7memchr217hb464b3a3d7bdb29cE():
/Users/Luppy/.cargo/registry/src/github.com-1ecc6299db9ec823/memchr-2.2.0/src/fallback.rs:86
    let vn2 = repeat_byte(n2);
  7e:	9814      	ldr	r0, [sp, #80]	; 0x50
  80:	9020      	str	r0, [sp, #128]	; 0x80
  82:	e7ff      	b.n	84 <_ZN6memchr8fallback7memchr217hb464b3a3d7bdb29cE+0x84>
  84:	f10d 006a 	add.w	r0, sp, #106	; 0x6a
/Users/Luppy/.cargo/registry/src/github.com-1ecc6299db9ec823/memchr-2.2.0/src/fallback.rs:87
    let confirm = |byte| byte == n1 || byte == n2;
  88:	9021      	str	r0, [sp, #132]	; 0x84
  8a:	f10d 006b 	add.w	r0, sp, #107	; 0x6b
  8e:	9022      	str	r0, [sp, #136]	; 0x88
  90:	2004      	movs	r0, #4
/Users/Luppy/.cargo/registry/src/github.com-1ecc6299db9ec823/memchr-2.2.0/src/fallback.rs:88
    let align = USIZE_BYTES - 1;
  92:	1e41      	subs	r1, r0, #1
  94:	2801      	cmp	r0, #1
  96:	9113      	str	r1, [sp, #76]	; 0x4c
  98:	f0c0 824b 	bcc.w	532 <_ZN6memchr8fallback7memchr217hb464b3a3d7bdb29cE+0x532>
  9c:	e7ff      	b.n	9e <_ZN6memchr8fallback7memchr217hb464b3a3d7bdb29cE+0x9e>
  9e:	9813      	ldr	r0, [sp, #76]	; 0x4c
  a0:	9023      	str	r0, [sp, #140]	; 0x8c
/Users/Luppy/.cargo/registry/src/github.com-1ecc6299db9ec823/memchr-2.2.0/src/fallback.rs:89
    let start_ptr = haystack.as_ptr();
  a2:	981b      	ldr	r0, [sp, #108]	; 0x6c
  a4:	991c      	ldr	r1, [sp, #112]	; 0x70
  a6:	f7ff fffe 	bl	0 <_ZN4core5slice29_$LT$impl$u20$$u5b$T$u5d$$GT$6as_ptr17hd0263209417be61aE>
  aa:	9024      	str	r0, [sp, #144]	; 0x90
  ac:	e7ff      	b.n	ae <_ZN6memchr8fallback7memchr217hb464b3a3d7bdb29cE+0xae>
/Users/Luppy/.cargo/registry/src/github.com-1ecc6299db9ec823/memchr-2.2.0/src/fallback.rs:90
    let end_ptr = haystack[haystack.len()..].as_ptr();
  ae:	981b      	ldr	r0, [sp, #108]	; 0x6c
  b0:	991c      	ldr	r1, [sp, #112]	; 0x70
  b2:	9012      	str	r0, [sp, #72]	; 0x48
  b4:	9111      	str	r1, [sp, #68]	; 0x44
  b6:	f7ff fffe 	bl	0 <_ZN4core5slice29_$LT$impl$u20$$u5b$T$u5d$$GT$3len17h63f985867d9f263fE>
  ba:	9010      	str	r0, [sp, #64]	; 0x40
  bc:	e7ff      	b.n	be <_ZN6memchr8fallback7memchr217hb464b3a3d7bdb29cE+0xbe>
  be:	9810      	ldr	r0, [sp, #64]	; 0x40
  c0:	9026      	str	r0, [sp, #152]	; 0x98
  c2:	9a26      	ldr	r2, [sp, #152]	; 0x98
  c4:	9812      	ldr	r0, [sp, #72]	; 0x48
  c6:	9911      	ldr	r1, [sp, #68]	; 0x44
  c8:	f7ff fffe 	bl	0 <_ZN4core5slice74_$LT$impl$u20$core..ops..index..Index$LT$I$GT$$u20$for$u20$$u5b$T$u5d$$GT$5index17hf116fad1d92ca796E>
  cc:	900f      	str	r0, [sp, #60]	; 0x3c
  ce:	910e      	str	r1, [sp, #56]	; 0x38
  d0:	e7ff      	b.n	d2 <_ZN6memchr8fallback7memchr217hb464b3a3d7bdb29cE+0xd2>
  d2:	980f      	ldr	r0, [sp, #60]	; 0x3c
  d4:	990e      	ldr	r1, [sp, #56]	; 0x38
  d6:	f7ff fffe 	bl	0 <_ZN4core5slice29_$LT$impl$u20$$u5b$T$u5d$$GT$6as_ptr17hd0263209417be61aE>
  da:	9025      	str	r0, [sp, #148]	; 0x94
  dc:	e7ff      	b.n	de <_ZN6memchr8fallback7memchr217hb464b3a3d7bdb29cE+0xde>
/Users/Luppy/.cargo/registry/src/github.com-1ecc6299db9ec823/memchr-2.2.0/src/fallback.rs:91
    let mut ptr = start_ptr;
  de:	9824      	ldr	r0, [sp, #144]	; 0x90
  e0:	9027      	str	r0, [sp, #156]	; 0x9c
/Users/Luppy/.cargo/registry/src/github.com-1ecc6299db9ec823/memchr-2.2.0/src/fallback.rs:94
        if haystack.len() < USIZE_BYTES {
  e2:	981b      	ldr	r0, [sp, #108]	; 0x6c
  e4:	991c      	ldr	r1, [sp, #112]	; 0x70
  e6:	f7ff fffe 	bl	0 <_ZN4core5slice29_$LT$impl$u20$$u5b$T$u5d$$GT$3len17h63f985867d9f263fE>
  ea:	900d      	str	r0, [sp, #52]	; 0x34
  ec:	e7ff      	b.n	ee <_ZN6memchr8fallback7memchr217hb464b3a3d7bdb29cE+0xee>
  ee:	980d      	ldr	r0, [sp, #52]	; 0x34
  f0:	2803      	cmp	r0, #3
  f2:	d852      	bhi.n	19a <_ZN6memchr8fallback7memchr217hb464b3a3d7bdb29cE+0x19a>
  f4:	e7ff      	b.n	f6 <_ZN6memchr8fallback7memchr217hb464b3a3d7bdb29cE+0xf6>
/Users/Luppy/.cargo/registry/src/github.com-1ecc6299db9ec823/memchr-2.2.0/src/fallback.rs:95
            return forward_search(start_ptr, end_ptr, ptr, confirm);
  f6:	9824      	ldr	r0, [sp, #144]	; 0x90
  f8:	9925      	ldr	r1, [sp, #148]	; 0x94
  fa:	9a27      	ldr	r2, [sp, #156]	; 0x9c
  fc:	9b21      	ldr	r3, [sp, #132]	; 0x84
  fe:	f8dd c088 	ldr.w	ip, [sp, #136]	; 0x88
 102:	9042      	str	r0, [sp, #264]	; 0x108
 104:	9143      	str	r1, [sp, #268]	; 0x10c
 106:	9244      	str	r2, [sp, #272]	; 0x110
 108:	9345      	str	r3, [sp, #276]	; 0x114
 10a:	f8cd c118 	str.w	ip, [sp, #280]	; 0x118
_ZN6memchr8fallback14forward_search17he8219d70f1f7fcc6E():
/Users/Luppy/.cargo/registry/src/github.com-1ecc6299db9ec823/memchr-2.2.0/src/fallback.rs:292
    debug_assert!(start_ptr <= ptr);
 10e:	9842      	ldr	r0, [sp, #264]	; 0x108
 110:	9944      	ldr	r1, [sp, #272]	; 0x110
 112:	4288      	cmp	r0, r1
 114:	d907      	bls.n	126 <_ZN6memchr8fallback7memchr217hb464b3a3d7bdb29cE+0x126>
 116:	e7ff      	b.n	118 <_ZN6memchr8fallback7memchr217hb464b3a3d7bdb29cE+0x118>
 118:	f240 0000 	movw	r0, #0
 11c:	f2c0 0000 	movt	r0, #0
 120:	f7ff fffe 	bl	0 <_ZN4core9panicking5panic17h53ca63c6ac6312f8E>
 124:	defe      	udf	#254	; 0xfe
/Users/Luppy/.cargo/registry/src/github.com-1ecc6299db9ec823/memchr-2.2.0/src/fallback.rs:293
    debug_assert!(ptr <= end_ptr);
 126:	9844      	ldr	r0, [sp, #272]	; 0x110
 128:	9943      	ldr	r1, [sp, #268]	; 0x10c
 12a:	4288      	cmp	r0, r1
 12c:	d907      	bls.n	13e <_ZN6memchr8fallback7memchr217hb464b3a3d7bdb29cE+0x13e>
 12e:	e7ff      	b.n	130 <_ZN6memchr8fallback7memchr217hb464b3a3d7bdb29cE+0x130>
 130:	f240 0000 	movw	r0, #0
 134:	f2c0 0000 	movt	r0, #0
 138:	f7ff fffe 	bl	0 <_ZN4core9panicking5panic17h53ca63c6ac6312f8E>
 13c:	defe      	udf	#254	; 0xfe
/Users/Luppy/.cargo/registry/src/github.com-1ecc6299db9ec823/memchr-2.2.0/src/fallback.rs:295
    while ptr < end_ptr {
 13e:	e7ff      	b.n	140 <_ZN6memchr8fallback7memchr217hb464b3a3d7bdb29cE+0x140>
 140:	9844      	ldr	r0, [sp, #272]	; 0x110
 142:	9943      	ldr	r1, [sp, #268]	; 0x10c
 144:	4288      	cmp	r0, r1
 146:	d303      	bcc.n	150 <_ZN6memchr8fallback7memchr217hb464b3a3d7bdb29cE+0x150>
 148:	e7ff      	b.n	14a <_ZN6memchr8fallback7memchr217hb464b3a3d7bdb29cE+0x14a>
 14a:	2000      	movs	r0, #0
/Users/Luppy/.cargo/registry/src/github.com-1ecc6299db9ec823/memchr-2.2.0/src/fallback.rs:301
    None
 14c:	9047      	str	r0, [sp, #284]	; 0x11c
/Users/Luppy/.cargo/registry/src/github.com-1ecc6299db9ec823/memchr-2.2.0/src/fallback.rs:302
}
 14e:	e019      	b.n	184 <_ZN6memchr8fallback7memchr217hb464b3a3d7bdb29cE+0x184>
/Users/Luppy/.cargo/registry/src/github.com-1ecc6299db9ec823/memchr-2.2.0/src/fallback.rs:296
        if confirm(*ptr) {
 150:	9844      	ldr	r0, [sp, #272]	; 0x110
 152:	7800      	ldrb	r0, [r0, #0]
 154:	f88d 0127 	strb.w	r0, [sp, #295]	; 0x127
 158:	f89d 1127 	ldrb.w	r1, [sp, #295]	; 0x127
 15c:	a845      	add	r0, sp, #276	; 0x114
 15e:	f7ff fffe 	bl	0 <_ZN6memchr8fallback7memchr217hb464b3a3d7bdb29cE>
 162:	2800      	cmp	r0, #0
 164:	d008      	beq.n	178 <_ZN6memchr8fallback7memchr217hb464b3a3d7bdb29cE+0x178>
 166:	e7ff      	b.n	168 <_ZN6memchr8fallback7memchr217hb464b3a3d7bdb29cE+0x168>
/Users/Luppy/.cargo/registry/src/github.com-1ecc6299db9ec823/memchr-2.2.0/src/fallback.rs:297
            return Some(sub(ptr, start_ptr));
 168:	9844      	ldr	r0, [sp, #272]	; 0x110
 16a:	9942      	ldr	r1, [sp, #264]	; 0x108
 16c:	f7ff fffe 	bl	0 <_ZN6memchr8fallback7memchr217hb464b3a3d7bdb29cE>
 170:	9048      	str	r0, [sp, #288]	; 0x120
 172:	2001      	movs	r0, #1
 174:	9047      	str	r0, [sp, #284]	; 0x11c
/Users/Luppy/.cargo/registry/src/github.com-1ecc6299db9ec823/memchr-2.2.0/src/fallback.rs:302
}
 176:	e005      	b.n	184 <_ZN6memchr8fallback7memchr217hb464b3a3d7bdb29cE+0x184>
/Users/Luppy/.cargo/registry/src/github.com-1ecc6299db9ec823/memchr-2.2.0/src/fallback.rs:299
        ptr = ptr.offset(1);
 178:	9844      	ldr	r0, [sp, #272]	; 0x110
 17a:	2101      	movs	r1, #1
 17c:	f7ff fffe 	bl	0 <_ZN4core3ptr33_$LT$impl$u20$$BP$const$u20$T$GT$6offset17h1b1bd4fc0c06f6a7E>
 180:	9044      	str	r0, [sp, #272]	; 0x110
/Users/Luppy/.cargo/registry/src/github.com-1ecc6299db9ec823/memchr-2.2.0/src/fallback.rs:295
    while ptr < end_ptr {
 182:	e7dd      	b.n	140 <_ZN6memchr8fallback7memchr217hb464b3a3d7bdb29cE+0x140>
/Users/Luppy/.cargo/registry/src/github.com-1ecc6299db9ec823/memchr-2.2.0/src/fallback.rs:302
}
 184:	9847      	ldr	r0, [sp, #284]	; 0x11c
 186:	9948      	ldr	r1, [sp, #288]	; 0x120
_ZN6memchr8fallback7memchr217hb464b3a3d7bdb29cE():
/Users/Luppy/.cargo/registry/src/github.com-1ecc6299db9ec823/memchr-2.2.0/src/fallback.rs:95
            return forward_search(start_ptr, end_ptr, ptr, confirm);
 188:	911e      	str	r1, [sp, #120]	; 0x78
 18a:	901d      	str	r0, [sp, #116]	; 0x74
 18c:	e7ff      	b.n	18e <_ZN6memchr8fallback7memchr217hb464b3a3d7bdb29cE+0x18e>
 18e:	e003      	b.n	198 <_ZN6memchr8fallback7memchr217hb464b3a3d7bdb29cE+0x198>
/Users/Luppy/.cargo/registry/src/github.com-1ecc6299db9ec823/memchr-2.2.0/src/fallback.rs:121
}
 190:	981d      	ldr	r0, [sp, #116]	; 0x74
 192:	991e      	ldr	r1, [sp, #120]	; 0x78
 194:	b05e      	add	sp, #376	; 0x178
 196:	bdb0      	pop	{r4, r5, r7, pc}
/Users/Luppy/.cargo/registry/src/github.com-1ecc6299db9ec823/memchr-2.2.0/src/fallback.rs:95
            return forward_search(start_ptr, end_ptr, ptr, confirm);
 198:	e7fa      	b.n	190 <_ZN6memchr8fallback7memchr217hb464b3a3d7bdb29cE+0x190>
/Users/Luppy/.cargo/registry/src/github.com-1ecc6299db9ec823/memchr-2.2.0/src/fallback.rs:98
        let chunk = read_unaligned_usize(ptr);
 19a:	9827      	ldr	r0, [sp, #156]	; 0x9c
 19c:	f7ff fffe 	bl	0 <_ZN6memchr8fallback7memchr217hb464b3a3d7bdb29cE>
 1a0:	9028      	str	r0, [sp, #160]	; 0xa0
 1a2:	e7ff      	b.n	1a4 <_ZN6memchr8fallback7memchr217hb464b3a3d7bdb29cE+0x1a4>
/Users/Luppy/.cargo/registry/src/github.com-1ecc6299db9ec823/memchr-2.2.0/src/fallback.rs:99
        let eq1 = contains_zero_byte(chunk ^ vn1);
 1a4:	9828      	ldr	r0, [sp, #160]	; 0xa0
 1a6:	991f      	ldr	r1, [sp, #124]	; 0x7c
 1a8:	4048      	eors	r0, r1
 1aa:	904a      	str	r0, [sp, #296]	; 0x128
_ZN6memchr8fallback18contains_zero_byte17hcf05c92d2c728c95E():
/Users/Luppy/.cargo/registry/src/github.com-1ecc6299db9ec823/memchr-2.2.0/src/fallback.rs:33
    x.wrapping_sub(LO_USIZE) & !x & HI_USIZE != 0
 1ac:	984a      	ldr	r0, [sp, #296]	; 0x128
 1ae:	f04f 3101 	mov.w	r1, #16843009	; 0x1010101
 1b2:	f7ff fffe 	bl	0 <_ZN4core3num23_$LT$impl$u20$usize$GT$12wrapping_sub17h049a26b7a4ff5318E>
 1b6:	994a      	ldr	r1, [sp, #296]	; 0x128
 1b8:	4388      	bics	r0, r1
 1ba:	f020 307f 	bic.w	r0, r0, #2139062143	; 0x7f7f7f7f
 1be:	2800      	cmp	r0, #0
 1c0:	bf18      	it	ne
 1c2:	2001      	movne	r0, #1
_ZN6memchr8fallback7memchr217hb464b3a3d7bdb29cE():
/Users/Luppy/.cargo/registry/src/github.com-1ecc6299db9ec823/memchr-2.2.0/src/fallback.rs:99
        let eq1 = contains_zero_byte(chunk ^ vn1);
 1c4:	f88d 00a5 	strb.w	r0, [sp, #165]	; 0xa5
 1c8:	e7ff      	b.n	1ca <_ZN6memchr8fallback7memchr217hb464b3a3d7bdb29cE+0x1ca>
/Users/Luppy/.cargo/registry/src/github.com-1ecc6299db9ec823/memchr-2.2.0/src/fallback.rs:100
        let eq2 = contains_zero_byte(chunk ^ vn2);
 1ca:	9828      	ldr	r0, [sp, #160]	; 0xa0
 1cc:	9920      	ldr	r1, [sp, #128]	; 0x80
 1ce:	4048      	eors	r0, r1
 1d0:	904b      	str	r0, [sp, #300]	; 0x12c
_ZN6memchr8fallback18contains_zero_byte17hcf05c92d2c728c95E():
/Users/Luppy/.cargo/registry/src/github.com-1ecc6299db9ec823/memchr-2.2.0/src/fallback.rs:33
    x.wrapping_sub(LO_USIZE) & !x & HI_USIZE != 0
 1d2:	984b      	ldr	r0, [sp, #300]	; 0x12c
 1d4:	f04f 3101 	mov.w	r1, #16843009	; 0x1010101
 1d8:	f7ff fffe 	bl	0 <_ZN4core3num23_$LT$impl$u20$usize$GT$12wrapping_sub17h049a26b7a4ff5318E>
 1dc:	994b      	ldr	r1, [sp, #300]	; 0x12c
 1de:	4388      	bics	r0, r1
 1e0:	f020 307f 	bic.w	r0, r0, #2139062143	; 0x7f7f7f7f
 1e4:	2800      	cmp	r0, #0
 1e6:	bf18      	it	ne
 1e8:	2001      	movne	r0, #1
_ZN6memchr8fallback7memchr217hb464b3a3d7bdb29cE():
/Users/Luppy/.cargo/registry/src/github.com-1ecc6299db9ec823/memchr-2.2.0/src/fallback.rs:100
        let eq2 = contains_zero_byte(chunk ^ vn2);
 1ea:	f88d 00a6 	strb.w	r0, [sp, #166]	; 0xa6
 1ee:	e7ff      	b.n	1f0 <_ZN6memchr8fallback7memchr217hb464b3a3d7bdb29cE+0x1f0>
/Users/Luppy/.cargo/registry/src/github.com-1ecc6299db9ec823/memchr-2.2.0/src/fallback.rs:101
        if eq1 || eq2 {
 1f0:	f89d 00a5 	ldrb.w	r0, [sp, #165]	; 0xa5
 1f4:	07c0      	lsls	r0, r0, #31
 1f6:	2800      	cmp	r0, #0
 1f8:	d004      	beq.n	204 <_ZN6memchr8fallback7memchr217hb464b3a3d7bdb29cE+0x204>
 1fa:	e7ff      	b.n	1fc <_ZN6memchr8fallback7memchr217hb464b3a3d7bdb29cE+0x1fc>
 1fc:	2001      	movs	r0, #1
 1fe:	f88d 00a7 	strb.w	r0, [sp, #167]	; 0xa7
 202:	e004      	b.n	20e <_ZN6memchr8fallback7memchr217hb464b3a3d7bdb29cE+0x20e>
 204:	f89d 00a6 	ldrb.w	r0, [sp, #166]	; 0xa6
 208:	f88d 00a7 	strb.w	r0, [sp, #167]	; 0xa7
 20c:	e7ff      	b.n	20e <_ZN6memchr8fallback7memchr217hb464b3a3d7bdb29cE+0x20e>
 20e:	f89d 00a7 	ldrb.w	r0, [sp, #167]	; 0xa7
 212:	07c0      	lsls	r0, r0, #31
 214:	2800      	cmp	r0, #0
 216:	d04d      	beq.n	2b4 <_ZN6memchr8fallback7memchr217hb464b3a3d7bdb29cE+0x2b4>
 218:	e7ff      	b.n	21a <_ZN6memchr8fallback7memchr217hb464b3a3d7bdb29cE+0x21a>
/Users/Luppy/.cargo/registry/src/github.com-1ecc6299db9ec823/memchr-2.2.0/src/fallback.rs:102
            return forward_search(start_ptr, end_ptr, ptr, confirm);
 21a:	9824      	ldr	r0, [sp, #144]	; 0x90
 21c:	9925      	ldr	r1, [sp, #148]	; 0x94
 21e:	9a27      	ldr	r2, [sp, #156]	; 0x9c
 220:	9b21      	ldr	r3, [sp, #132]	; 0x84
 222:	f8dd c088 	ldr.w	ip, [sp, #136]	; 0x88
 226:	904c      	str	r0, [sp, #304]	; 0x130
 228:	914d      	str	r1, [sp, #308]	; 0x134
 22a:	924e      	str	r2, [sp, #312]	; 0x138
 22c:	934f      	str	r3, [sp, #316]	; 0x13c
 22e:	f8cd c140 	str.w	ip, [sp, #320]	; 0x140
_ZN6memchr8fallback14forward_search17he8219d70f1f7fcc6E():
/Users/Luppy/.cargo/registry/src/github.com-1ecc6299db9ec823/memchr-2.2.0/src/fallback.rs:292
    debug_assert!(start_ptr <= ptr);
 232:	984c      	ldr	r0, [sp, #304]	; 0x130
 234:	994e      	ldr	r1, [sp, #312]	; 0x138
 236:	4288      	cmp	r0, r1
 238:	d907      	bls.n	24a <_ZN6memchr8fallback7memchr217hb464b3a3d7bdb29cE+0x24a>
 23a:	e7ff      	b.n	23c <_ZN6memchr8fallback7memchr217hb464b3a3d7bdb29cE+0x23c>
 23c:	f240 0000 	movw	r0, #0
 240:	f2c0 0000 	movt	r0, #0
 244:	f7ff fffe 	bl	0 <_ZN4core9panicking5panic17h53ca63c6ac6312f8E>
 248:	defe      	udf	#254	; 0xfe
/Users/Luppy/.cargo/registry/src/github.com-1ecc6299db9ec823/memchr-2.2.0/src/fallback.rs:293
    debug_assert!(ptr <= end_ptr);
 24a:	984e      	ldr	r0, [sp, #312]	; 0x138
 24c:	994d      	ldr	r1, [sp, #308]	; 0x134
 24e:	4288      	cmp	r0, r1
 250:	d907      	bls.n	262 <_ZN6memchr8fallback7memchr217hb464b3a3d7bdb29cE+0x262>
 252:	e7ff      	b.n	254 <_ZN6memchr8fallback7memchr217hb464b3a3d7bdb29cE+0x254>
 254:	f240 0000 	movw	r0, #0
 258:	f2c0 0000 	movt	r0, #0
 25c:	f7ff fffe 	bl	0 <_ZN4core9panicking5panic17h53ca63c6ac6312f8E>
 260:	defe      	udf	#254	; 0xfe
/Users/Luppy/.cargo/registry/src/github.com-1ecc6299db9ec823/memchr-2.2.0/src/fallback.rs:295
    while ptr < end_ptr {
 262:	e7ff      	b.n	264 <_ZN6memchr8fallback7memchr217hb464b3a3d7bdb29cE+0x264>
 264:	984e      	ldr	r0, [sp, #312]	; 0x138
 266:	994d      	ldr	r1, [sp, #308]	; 0x134
 268:	4288      	cmp	r0, r1
 26a:	d303      	bcc.n	274 <_ZN6memchr8fallback7memchr217hb464b3a3d7bdb29cE+0x274>
 26c:	e7ff      	b.n	26e <_ZN6memchr8fallback7memchr217hb464b3a3d7bdb29cE+0x26e>
 26e:	2000      	movs	r0, #0
/Users/Luppy/.cargo/registry/src/github.com-1ecc6299db9ec823/memchr-2.2.0/src/fallback.rs:301
    None
 270:	9051      	str	r0, [sp, #324]	; 0x144
/Users/Luppy/.cargo/registry/src/github.com-1ecc6299db9ec823/memchr-2.2.0/src/fallback.rs:302
}
 272:	e019      	b.n	2a8 <_ZN6memchr8fallback7memchr217hb464b3a3d7bdb29cE+0x2a8>
/Users/Luppy/.cargo/registry/src/github.com-1ecc6299db9ec823/memchr-2.2.0/src/fallback.rs:296
        if confirm(*ptr) {
 274:	984e      	ldr	r0, [sp, #312]	; 0x138
 276:	7800      	ldrb	r0, [r0, #0]
 278:	f88d 014f 	strb.w	r0, [sp, #335]	; 0x14f
 27c:	f89d 114f 	ldrb.w	r1, [sp, #335]	; 0x14f
 280:	a84f      	add	r0, sp, #316	; 0x13c
 282:	f7ff fffe 	bl	0 <_ZN6memchr8fallback7memchr217hb464b3a3d7bdb29cE>
 286:	2800      	cmp	r0, #0
 288:	d008      	beq.n	29c <_ZN6memchr8fallback7memchr217hb464b3a3d7bdb29cE+0x29c>
 28a:	e7ff      	b.n	28c <_ZN6memchr8fallback7memchr217hb464b3a3d7bdb29cE+0x28c>
/Users/Luppy/.cargo/registry/src/github.com-1ecc6299db9ec823/memchr-2.2.0/src/fallback.rs:297
            return Some(sub(ptr, start_ptr));
 28c:	984e      	ldr	r0, [sp, #312]	; 0x138
 28e:	994c      	ldr	r1, [sp, #304]	; 0x130
 290:	f7ff fffe 	bl	0 <_ZN6memchr8fallback7memchr217hb464b3a3d7bdb29cE>
 294:	9052      	str	r0, [sp, #328]	; 0x148
 296:	2001      	movs	r0, #1
 298:	9051      	str	r0, [sp, #324]	; 0x144
/Users/Luppy/.cargo/registry/src/github.com-1ecc6299db9ec823/memchr-2.2.0/src/fallback.rs:302
}
 29a:	e005      	b.n	2a8 <_ZN6memchr8fallback7memchr217hb464b3a3d7bdb29cE+0x2a8>
/Users/Luppy/.cargo/registry/src/github.com-1ecc6299db9ec823/memchr-2.2.0/src/fallback.rs:299
        ptr = ptr.offset(1);
 29c:	984e      	ldr	r0, [sp, #312]	; 0x138
 29e:	2101      	movs	r1, #1
 2a0:	f7ff fffe 	bl	0 <_ZN4core3ptr33_$LT$impl$u20$$BP$const$u20$T$GT$6offset17h1b1bd4fc0c06f6a7E>
 2a4:	904e      	str	r0, [sp, #312]	; 0x138
/Users/Luppy/.cargo/registry/src/github.com-1ecc6299db9ec823/memchr-2.2.0/src/fallback.rs:295
    while ptr < end_ptr {
 2a6:	e7dd      	b.n	264 <_ZN6memchr8fallback7memchr217hb464b3a3d7bdb29cE+0x264>
/Users/Luppy/.cargo/registry/src/github.com-1ecc6299db9ec823/memchr-2.2.0/src/fallback.rs:302
}
 2a8:	9851      	ldr	r0, [sp, #324]	; 0x144
 2aa:	9952      	ldr	r1, [sp, #328]	; 0x148
_ZN6memchr8fallback7memchr217hb464b3a3d7bdb29cE():
/Users/Luppy/.cargo/registry/src/github.com-1ecc6299db9ec823/memchr-2.2.0/src/fallback.rs:102
            return forward_search(start_ptr, end_ptr, ptr, confirm);
 2ac:	911e      	str	r1, [sp, #120]	; 0x78
 2ae:	901d      	str	r0, [sp, #116]	; 0x74
 2b0:	e7ff      	b.n	2b2 <_ZN6memchr8fallback7memchr217hb464b3a3d7bdb29cE+0x2b2>
 2b2:	e771      	b.n	198 <_ZN6memchr8fallback7memchr217hb464b3a3d7bdb29cE+0x198>
/Users/Luppy/.cargo/registry/src/github.com-1ecc6299db9ec823/memchr-2.2.0/src/fallback.rs:105
        ptr = ptr_add(ptr, USIZE_BYTES - (start_ptr as usize & align));
 2b4:	9827      	ldr	r0, [sp, #156]	; 0x9c
 2b6:	9924      	ldr	r1, [sp, #144]	; 0x90
 2b8:	9a23      	ldr	r2, [sp, #140]	; 0x8c
 2ba:	4011      	ands	r1, r2
 2bc:	f1c1 0204 	rsb	r2, r1, #4
 2c0:	2304      	movs	r3, #4
 2c2:	428b      	cmp	r3, r1
 2c4:	900c      	str	r0, [sp, #48]	; 0x30
 2c6:	920b      	str	r2, [sp, #44]	; 0x2c
 2c8:	f0c0 813a 	bcc.w	540 <_ZN6memchr8fallback7memchr217hb464b3a3d7bdb29cE+0x540>
 2cc:	e7ff      	b.n	2ce <_ZN6memchr8fallback7memchr217hb464b3a3d7bdb29cE+0x2ce>
 2ce:	980c      	ldr	r0, [sp, #48]	; 0x30
 2d0:	990b      	ldr	r1, [sp, #44]	; 0x2c
 2d2:	f7ff fffe 	bl	0 <_ZN6memchr8fallback7memchr217hb464b3a3d7bdb29cE>
 2d6:	900a      	str	r0, [sp, #40]	; 0x28
 2d8:	e7ff      	b.n	2da <_ZN6memchr8fallback7memchr217hb464b3a3d7bdb29cE+0x2da>
 2da:	980a      	ldr	r0, [sp, #40]	; 0x28
 2dc:	9027      	str	r0, [sp, #156]	; 0x9c
 2de:	2100      	movs	r1, #0
/Users/Luppy/.cargo/registry/src/github.com-1ecc6299db9ec823/memchr-2.2.0/src/fallback.rs:106
        debug_assert!(ptr > start_ptr);
 2e0:	2900      	cmp	r1, #0
 2e2:	d10d      	bne.n	300 <_ZN6memchr8fallback7memchr217hb464b3a3d7bdb29cE+0x300>
 2e4:	e7ff      	b.n	2e6 <_ZN6memchr8fallback7memchr217hb464b3a3d7bdb29cE+0x2e6>
 2e6:	9827      	ldr	r0, [sp, #156]	; 0x9c
 2e8:	9924      	ldr	r1, [sp, #144]	; 0x90
 2ea:	4288      	cmp	r0, r1
 2ec:	d807      	bhi.n	2fe <_ZN6memchr8fallback7memchr217hb464b3a3d7bdb29cE+0x2fe>
 2ee:	e7ff      	b.n	2f0 <_ZN6memchr8fallback7memchr217hb464b3a3d7bdb29cE+0x2f0>
 2f0:	f240 0000 	movw	r0, #0
 2f4:	f2c0 0000 	movt	r0, #0
 2f8:	f7ff fffe 	bl	0 <_ZN4core9panicking5panic17h53ca63c6ac6312f8E>
 2fc:	defe      	udf	#254	; 0xfe
 2fe:	e7ff      	b.n	300 <_ZN6memchr8fallback7memchr217hb464b3a3d7bdb29cE+0x300>
 300:	2000      	movs	r0, #0
/Users/Luppy/.cargo/registry/src/github.com-1ecc6299db9ec823/memchr-2.2.0/src/fallback.rs:107
        debug_assert!(ptr_sub(end_ptr, USIZE_BYTES) >= start_ptr);
 302:	2800      	cmp	r0, #0
 304:	d113      	bne.n	32e <_ZN6memchr8fallback7memchr217hb464b3a3d7bdb29cE+0x32e>
 306:	e7ff      	b.n	308 <_ZN6memchr8fallback7memchr217hb464b3a3d7bdb29cE+0x308>
 308:	9825      	ldr	r0, [sp, #148]	; 0x94
 30a:	2104      	movs	r1, #4
 30c:	f7ff fffe 	bl	0 <_ZN6memchr8fallback7memchr217hb464b3a3d7bdb29cE>
 310:	9009      	str	r0, [sp, #36]	; 0x24
 312:	e7ff      	b.n	314 <_ZN6memchr8fallback7memchr217hb464b3a3d7bdb29cE+0x314>
 314:	9824      	ldr	r0, [sp, #144]	; 0x90
 316:	9909      	ldr	r1, [sp, #36]	; 0x24
 318:	4281      	cmp	r1, r0
 31a:	d207      	bcs.n	32c <_ZN6memchr8fallback7memchr217hb464b3a3d7bdb29cE+0x32c>
 31c:	e7ff      	b.n	31e <_ZN6memchr8fallback7memchr217hb464b3a3d7bdb29cE+0x31e>
 31e:	f240 0000 	movw	r0, #0
 322:	f2c0 0000 	movt	r0, #0
 326:	f7ff fffe 	bl	0 <_ZN4core9panicking5panic17h53ca63c6ac6312f8E>
 32a:	defe      	udf	#254	; 0xfe
 32c:	e7ff      	b.n	32e <_ZN6memchr8fallback7memchr217hb464b3a3d7bdb29cE+0x32e>
/Users/Luppy/.cargo/registry/src/github.com-1ecc6299db9ec823/memchr-2.2.0/src/fallback.rs:108
        while ptr <= ptr_sub(end_ptr, USIZE_BYTES) {
 32e:	e7ff      	b.n	330 <_ZN6memchr8fallback7memchr217hb464b3a3d7bdb29cE+0x330>
 330:	9827      	ldr	r0, [sp, #156]	; 0x9c
 332:	9925      	ldr	r1, [sp, #148]	; 0x94
 334:	2204      	movs	r2, #4
 336:	9008      	str	r0, [sp, #32]
 338:	4608      	mov	r0, r1
 33a:	4611      	mov	r1, r2
 33c:	f7ff fffe 	bl	0 <_ZN6memchr8fallback7memchr217hb464b3a3d7bdb29cE>
 340:	9007      	str	r0, [sp, #28]
 342:	e04b      	b.n	3dc <_ZN6memchr8fallback7memchr217hb464b3a3d7bdb29cE+0x3dc>
/Users/Luppy/.cargo/registry/src/github.com-1ecc6299db9ec823/memchr-2.2.0/src/fallback.rs:119
        forward_search(start_ptr, end_ptr, ptr, confirm)
 344:	9824      	ldr	r0, [sp, #144]	; 0x90
 346:	9925      	ldr	r1, [sp, #148]	; 0x94
 348:	9a27      	ldr	r2, [sp, #156]	; 0x9c
 34a:	9b21      	ldr	r3, [sp, #132]	; 0x84
 34c:	f8dd c088 	ldr.w	ip, [sp, #136]	; 0x88
 350:	9054      	str	r0, [sp, #336]	; 0x150
 352:	9155      	str	r1, [sp, #340]	; 0x154
 354:	9256      	str	r2, [sp, #344]	; 0x158
 356:	9357      	str	r3, [sp, #348]	; 0x15c
 358:	f8cd c160 	str.w	ip, [sp, #352]	; 0x160
_ZN6memchr8fallback14forward_search17he8219d70f1f7fcc6E():
/Users/Luppy/.cargo/registry/src/github.com-1ecc6299db9ec823/memchr-2.2.0/src/fallback.rs:292
    debug_assert!(start_ptr <= ptr);
 35c:	9854      	ldr	r0, [sp, #336]	; 0x150
 35e:	9956      	ldr	r1, [sp, #344]	; 0x158
 360:	4288      	cmp	r0, r1
 362:	d907      	bls.n	374 <_ZN6memchr8fallback7memchr217hb464b3a3d7bdb29cE+0x374>
 364:	e7ff      	b.n	366 <_ZN6memchr8fallback7memchr217hb464b3a3d7bdb29cE+0x366>
 366:	f240 0000 	movw	r0, #0
 36a:	f2c0 0000 	movt	r0, #0
 36e:	f7ff fffe 	bl	0 <_ZN4core9panicking5panic17h53ca63c6ac6312f8E>
 372:	defe      	udf	#254	; 0xfe
/Users/Luppy/.cargo/registry/src/github.com-1ecc6299db9ec823/memchr-2.2.0/src/fallback.rs:293
    debug_assert!(ptr <= end_ptr);
 374:	9856      	ldr	r0, [sp, #344]	; 0x158
 376:	9955      	ldr	r1, [sp, #340]	; 0x154
 378:	4288      	cmp	r0, r1
 37a:	d907      	bls.n	38c <_ZN6memchr8fallback7memchr217hb464b3a3d7bdb29cE+0x38c>
 37c:	e7ff      	b.n	37e <_ZN6memchr8fallback7memchr217hb464b3a3d7bdb29cE+0x37e>
 37e:	f240 0000 	movw	r0, #0
 382:	f2c0 0000 	movt	r0, #0
 386:	f7ff fffe 	bl	0 <_ZN4core9panicking5panic17h53ca63c6ac6312f8E>
 38a:	defe      	udf	#254	; 0xfe
/Users/Luppy/.cargo/registry/src/github.com-1ecc6299db9ec823/memchr-2.2.0/src/fallback.rs:295
    while ptr < end_ptr {
 38c:	e7ff      	b.n	38e <_ZN6memchr8fallback7memchr217hb464b3a3d7bdb29cE+0x38e>
 38e:	9856      	ldr	r0, [sp, #344]	; 0x158
 390:	9955      	ldr	r1, [sp, #340]	; 0x154
 392:	4288      	cmp	r0, r1
 394:	d303      	bcc.n	39e <_ZN6memchr8fallback7memchr217hb464b3a3d7bdb29cE+0x39e>
 396:	e7ff      	b.n	398 <_ZN6memchr8fallback7memchr217hb464b3a3d7bdb29cE+0x398>
 398:	2000      	movs	r0, #0
/Users/Luppy/.cargo/registry/src/github.com-1ecc6299db9ec823/memchr-2.2.0/src/fallback.rs:301
    None
 39a:	9059      	str	r0, [sp, #356]	; 0x164
/Users/Luppy/.cargo/registry/src/github.com-1ecc6299db9ec823/memchr-2.2.0/src/fallback.rs:302
}
 39c:	e019      	b.n	3d2 <_ZN6memchr8fallback7memchr217hb464b3a3d7bdb29cE+0x3d2>
/Users/Luppy/.cargo/registry/src/github.com-1ecc6299db9ec823/memchr-2.2.0/src/fallback.rs:296
        if confirm(*ptr) {
 39e:	9856      	ldr	r0, [sp, #344]	; 0x158
 3a0:	7800      	ldrb	r0, [r0, #0]
 3a2:	f88d 016f 	strb.w	r0, [sp, #367]	; 0x16f
 3a6:	f89d 116f 	ldrb.w	r1, [sp, #367]	; 0x16f
 3aa:	a857      	add	r0, sp, #348	; 0x15c
 3ac:	f7ff fffe 	bl	0 <_ZN6memchr8fallback7memchr217hb464b3a3d7bdb29cE>
 3b0:	2800      	cmp	r0, #0
 3b2:	d008      	beq.n	3c6 <_ZN6memchr8fallback7memchr217hb464b3a3d7bdb29cE+0x3c6>
 3b4:	e7ff      	b.n	3b6 <_ZN6memchr8fallback7memchr217hb464b3a3d7bdb29cE+0x3b6>
/Users/Luppy/.cargo/registry/src/github.com-1ecc6299db9ec823/memchr-2.2.0/src/fallback.rs:297
            return Some(sub(ptr, start_ptr));
 3b6:	9856      	ldr	r0, [sp, #344]	; 0x158
 3b8:	9954      	ldr	r1, [sp, #336]	; 0x150
 3ba:	f7ff fffe 	bl	0 <_ZN6memchr8fallback7memchr217hb464b3a3d7bdb29cE>
 3be:	905a      	str	r0, [sp, #360]	; 0x168
 3c0:	2001      	movs	r0, #1
 3c2:	9059      	str	r0, [sp, #356]	; 0x164
/Users/Luppy/.cargo/registry/src/github.com-1ecc6299db9ec823/memchr-2.2.0/src/fallback.rs:302
}
 3c4:	e005      	b.n	3d2 <_ZN6memchr8fallback7memchr217hb464b3a3d7bdb29cE+0x3d2>
/Users/Luppy/.cargo/registry/src/github.com-1ecc6299db9ec823/memchr-2.2.0/src/fallback.rs:299
        ptr = ptr.offset(1);
 3c6:	9856      	ldr	r0, [sp, #344]	; 0x158
 3c8:	2101      	movs	r1, #1
 3ca:	f7ff fffe 	bl	0 <_ZN4core3ptr33_$LT$impl$u20$$BP$const$u20$T$GT$6offset17h1b1bd4fc0c06f6a7E>
 3ce:	9056      	str	r0, [sp, #344]	; 0x158
/Users/Luppy/.cargo/registry/src/github.com-1ecc6299db9ec823/memchr-2.2.0/src/fallback.rs:295
    while ptr < end_ptr {
 3d0:	e7dd      	b.n	38e <_ZN6memchr8fallback7memchr217hb464b3a3d7bdb29cE+0x38e>
/Users/Luppy/.cargo/registry/src/github.com-1ecc6299db9ec823/memchr-2.2.0/src/fallback.rs:302
}
 3d2:	9859      	ldr	r0, [sp, #356]	; 0x164
 3d4:	995a      	ldr	r1, [sp, #360]	; 0x168
_ZN6memchr8fallback7memchr217hb464b3a3d7bdb29cE():
/Users/Luppy/.cargo/registry/src/github.com-1ecc6299db9ec823/memchr-2.2.0/src/fallback.rs:119
        forward_search(start_ptr, end_ptr, ptr, confirm)
 3d6:	911e      	str	r1, [sp, #120]	; 0x78
 3d8:	901d      	str	r0, [sp, #116]	; 0x74
 3da:	e0a9      	b.n	530 <_ZN6memchr8fallback7memchr217hb464b3a3d7bdb29cE+0x530>
/Users/Luppy/.cargo/registry/src/github.com-1ecc6299db9ec823/memchr-2.2.0/src/fallback.rs:108
        while ptr <= ptr_sub(end_ptr, USIZE_BYTES) {
 3dc:	9808      	ldr	r0, [sp, #32]
 3de:	9907      	ldr	r1, [sp, #28]
 3e0:	4288      	cmp	r0, r1
 3e2:	d8af      	bhi.n	344 <_ZN6memchr8fallback7memchr217hb464b3a3d7bdb29cE+0x344>
 3e4:	e7ff      	b.n	3e6 <_ZN6memchr8fallback7memchr217hb464b3a3d7bdb29cE+0x3e6>
 3e6:	2000      	movs	r0, #0
/Users/Luppy/.cargo/registry/src/github.com-1ecc6299db9ec823/memchr-2.2.0/src/fallback.rs:109
            debug_assert_eq!(0, (ptr as usize) % USIZE_BYTES);
 3e8:	2800      	cmp	r0, #0
 3ea:	d159      	bne.n	4a0 <_ZN6memchr8fallback7memchr217hb464b3a3d7bdb29cE+0x4a0>
 3ec:	e7ff      	b.n	3ee <_ZN6memchr8fallback7memchr217hb464b3a3d7bdb29cE+0x3ee>
 3ee:	9827      	ldr	r0, [sp, #156]	; 0x9c
 3f0:	9006      	str	r0, [sp, #24]
 3f2:	e7ff      	b.n	3f4 <_ZN6memchr8fallback7memchr217hb464b3a3d7bdb29cE+0x3f4>
 3f4:	9806      	ldr	r0, [sp, #24]
 3f6:	f000 0103 	and.w	r1, r0, #3
 3fa:	912c      	str	r1, [sp, #176]	; 0xb0
 3fc:	f240 0100 	movw	r1, #0
 400:	f2c0 0100 	movt	r1, #0
 404:	912a      	str	r1, [sp, #168]	; 0xa8
 406:	a92c      	add	r1, sp, #176	; 0xb0
 408:	912b      	str	r1, [sp, #172]	; 0xac
 40a:	992a      	ldr	r1, [sp, #168]	; 0xa8
 40c:	912d      	str	r1, [sp, #180]	; 0xb4
 40e:	992b      	ldr	r1, [sp, #172]	; 0xac
 410:	912e      	str	r1, [sp, #184]	; 0xb8
 412:	992d      	ldr	r1, [sp, #180]	; 0xb4
 414:	6809      	ldr	r1, [r1, #0]
 416:	9a2e      	ldr	r2, [sp, #184]	; 0xb8
 418:	6812      	ldr	r2, [r2, #0]
 41a:	4291      	cmp	r1, r2
 41c:	d016      	beq.n	44c <_ZN6memchr8fallback7memchr217hb464b3a3d7bdb29cE+0x44c>
 41e:	e7ff      	b.n	420 <_ZN6memchr8fallback7memchr217hb464b3a3d7bdb29cE+0x420>
 420:	982d      	ldr	r0, [sp, #180]	; 0xb4
 422:	903b      	str	r0, [sp, #236]	; 0xec
 424:	982e      	ldr	r0, [sp, #184]	; 0xb8
 426:	903c      	str	r0, [sp, #240]	; 0xf0
 428:	a83b      	add	r0, sp, #236	; 0xec
 42a:	9039      	str	r0, [sp, #228]	; 0xe4
 42c:	a83c      	add	r0, sp, #240	; 0xf0
 42e:	903a      	str	r0, [sp, #232]	; 0xe8
 430:	9839      	ldr	r0, [sp, #228]	; 0xe4
 432:	903d      	str	r0, [sp, #244]	; 0xf4
 434:	983a      	ldr	r0, [sp, #232]	; 0xe8
 436:	903e      	str	r0, [sp, #248]	; 0xf8
 438:	983d      	ldr	r0, [sp, #244]	; 0xf4
 43a:	f240 0100 	movw	r1, #0
 43e:	f2c0 0100 	movt	r1, #0
 442:	f7ff fffe 	bl	0 <_ZN4core3fmt10ArgumentV13new17he7aeb924cd1c8272E>
 446:	9005      	str	r0, [sp, #20]
 448:	9104      	str	r1, [sp, #16]
 44a:	e000      	b.n	44e <_ZN6memchr8fallback7memchr217hb464b3a3d7bdb29cE+0x44e>
 44c:	e028      	b.n	4a0 <_ZN6memchr8fallback7memchr217hb464b3a3d7bdb29cE+0x4a0>
 44e:	983e      	ldr	r0, [sp, #248]	; 0xf8
 450:	f240 0100 	movw	r1, #0
 454:	f2c0 0100 	movt	r1, #0
 458:	f7ff fffe 	bl	0 <_ZN4core3fmt10ArgumentV13new17he7aeb924cd1c8272E>
 45c:	9003      	str	r0, [sp, #12]
 45e:	9102      	str	r1, [sp, #8]
 460:	e7ff      	b.n	462 <_ZN6memchr8fallback7memchr217hb464b3a3d7bdb29cE+0x462>
 462:	9805      	ldr	r0, [sp, #20]
 464:	9035      	str	r0, [sp, #212]	; 0xd4
 466:	9904      	ldr	r1, [sp, #16]
 468:	9136      	str	r1, [sp, #216]	; 0xd8
 46a:	9a03      	ldr	r2, [sp, #12]
 46c:	9237      	str	r2, [sp, #220]	; 0xdc
 46e:	9b02      	ldr	r3, [sp, #8]
 470:	9338      	str	r3, [sp, #224]	; 0xe0
 472:	46ec      	mov	ip, sp
 474:	f04f 0e02 	mov.w	lr, #2
 478:	f8cc e000 	str.w	lr, [ip]
 47c:	f240 0100 	movw	r1, #0
 480:	f2c0 0100 	movt	r1, #0
 484:	a82f      	add	r0, sp, #188	; 0xbc
 486:	2203      	movs	r2, #3
 488:	ab35      	add	r3, sp, #212	; 0xd4
 48a:	f7ff fffe 	bl	0 <_ZN4core3fmt9Arguments6new_v117h97fab7064a36d1a4E>
 48e:	e7ff      	b.n	2 <_ZN6memchr8fallback7memchr217hb464b3a3d7bdb29cE+0x2>
 490:	f240 0100 	movw	r1, #0
 494:	f2c0 0100 	movt	r1, #0
 498:	a82f      	add	r0, sp, #188	; 0xbc
 49a:	f7ff fffe 	bl	0 <_ZN4core9panicking9panic_fmt17h6b4d8e87b0965449E>
 49e:	defe      	udf	#254	; 0xfe
/Users/Luppy/.cargo/registry/src/github.com-1ecc6299db9ec823/memchr-2.2.0/src/fallback.rs:111
            let chunk = *(ptr as *const usize);
 4a0:	9827      	ldr	r0, [sp, #156]	; 0x9c
 4a2:	6800      	ldr	r0, [r0, #0]
 4a4:	903f      	str	r0, [sp, #252]	; 0xfc
/Users/Luppy/.cargo/registry/src/github.com-1ecc6299db9ec823/memchr-2.2.0/src/fallback.rs:112
            let eq1 = contains_zero_byte(chunk ^ vn1);
 4a6:	983f      	ldr	r0, [sp, #252]	; 0xfc
 4a8:	991f      	ldr	r1, [sp, #124]	; 0x7c
 4aa:	4048      	eors	r0, r1
 4ac:	905c      	str	r0, [sp, #368]	; 0x170
_ZN6memchr8fallback18contains_zero_byte17hcf05c92d2c728c95E():
/Users/Luppy/.cargo/registry/src/github.com-1ecc6299db9ec823/memchr-2.2.0/src/fallback.rs:33
    x.wrapping_sub(LO_USIZE) & !x & HI_USIZE != 0
 4ae:	985c      	ldr	r0, [sp, #368]	; 0x170
 4b0:	f04f 3101 	mov.w	r1, #16843009	; 0x1010101
 4b4:	f7ff fffe 	bl	0 <_ZN4core3num23_$LT$impl$u20$usize$GT$12wrapping_sub17h049a26b7a4ff5318E>
 4b8:	995c      	ldr	r1, [sp, #368]	; 0x170
 4ba:	4388      	bics	r0, r1
 4bc:	f020 307f 	bic.w	r0, r0, #2139062143	; 0x7f7f7f7f
 4c0:	2800      	cmp	r0, #0
 4c2:	bf18      	it	ne
 4c4:	2001      	movne	r0, #1
_ZN6memchr8fallback7memchr217hb464b3a3d7bdb29cE():
/Users/Luppy/.cargo/registry/src/github.com-1ecc6299db9ec823/memchr-2.2.0/src/fallback.rs:112
            let eq1 = contains_zero_byte(chunk ^ vn1);
 4c6:	f88d 0103 	strb.w	r0, [sp, #259]	; 0x103
 4ca:	e7ff      	b.n	4cc <_ZN6memchr8fallback7memchr217hb464b3a3d7bdb29cE+0x4cc>
/Users/Luppy/.cargo/registry/src/github.com-1ecc6299db9ec823/memchr-2.2.0/src/fallback.rs:113
            let eq2 = contains_zero_byte(chunk ^ vn2);
 4cc:	983f      	ldr	r0, [sp, #252]	; 0xfc
 4ce:	9920      	ldr	r1, [sp, #128]	; 0x80
 4d0:	4048      	eors	r0, r1
 4d2:	905d      	str	r0, [sp, #372]	; 0x174
_ZN6memchr8fallback18contains_zero_byte17hcf05c92d2c728c95E():
/Users/Luppy/.cargo/registry/src/github.com-1ecc6299db9ec823/memchr-2.2.0/src/fallback.rs:33
    x.wrapping_sub(LO_USIZE) & !x & HI_USIZE != 0
 4d4:	985d      	ldr	r0, [sp, #372]	; 0x174
 4d6:	f04f 3101 	mov.w	r1, #16843009	; 0x1010101
 4da:	f7ff fffe 	bl	0 <_ZN4core3num23_$LT$impl$u20$usize$GT$12wrapping_sub17h049a26b7a4ff5318E>
 4de:	995d      	ldr	r1, [sp, #372]	; 0x174
 4e0:	4388      	bics	r0, r1
 4e2:	f020 307f 	bic.w	r0, r0, #2139062143	; 0x7f7f7f7f
 4e6:	2800      	cmp	r0, #0
 4e8:	bf18      	it	ne
 4ea:	2001      	movne	r0, #1
_ZN6memchr8fallback7memchr217hb464b3a3d7bdb29cE():
/Users/Luppy/.cargo/registry/src/github.com-1ecc6299db9ec823/memchr-2.2.0/src/fallback.rs:113
            let eq2 = contains_zero_byte(chunk ^ vn2);
 4ec:	f88d 0104 	strb.w	r0, [sp, #260]	; 0x104
 4f0:	e7ff      	b.n	4f2 <_ZN6memchr8fallback7memchr217hb464b3a3d7bdb29cE+0x4f2>
/Users/Luppy/.cargo/registry/src/github.com-1ecc6299db9ec823/memchr-2.2.0/src/fallback.rs:114
            if eq1 || eq2 {
 4f2:	f89d 0103 	ldrb.w	r0, [sp, #259]	; 0x103
 4f6:	07c0      	lsls	r0, r0, #31
 4f8:	2800      	cmp	r0, #0
 4fa:	d004      	beq.n	506 <_ZN6memchr8fallback7memchr217hb464b3a3d7bdb29cE+0x506>
 4fc:	e7ff      	b.n	4fe <_ZN6memchr8fallback7memchr217hb464b3a3d7bdb29cE+0x4fe>
 4fe:	2001      	movs	r0, #1
 500:	f88d 0105 	strb.w	r0, [sp, #261]	; 0x105
 504:	e004      	b.n	510 <_ZN6memchr8fallback7memchr217hb464b3a3d7bdb29cE+0x510>
 506:	f89d 0104 	ldrb.w	r0, [sp, #260]	; 0x104
 50a:	f88d 0105 	strb.w	r0, [sp, #261]	; 0x105
 50e:	e7ff      	b.n	510 <_ZN6memchr8fallback7memchr217hb464b3a3d7bdb29cE+0x510>
 510:	f89d 0105 	ldrb.w	r0, [sp, #261]	; 0x105
 514:	07c0      	lsls	r0, r0, #31
 516:	2800      	cmp	r0, #0
 518:	d001      	beq.n	51e <_ZN6memchr8fallback7memchr217hb464b3a3d7bdb29cE+0x51e>
 51a:	e7ff      	b.n	51c <_ZN6memchr8fallback7memchr217hb464b3a3d7bdb29cE+0x51c>
/Users/Luppy/.cargo/registry/src/github.com-1ecc6299db9ec823/memchr-2.2.0/src/fallback.rs:115
                break;
 51c:	e712      	b.n	344 <_ZN6memchr8fallback7memchr217hb464b3a3d7bdb29cE+0x344>
/Users/Luppy/.cargo/registry/src/github.com-1ecc6299db9ec823/memchr-2.2.0/src/fallback.rs:117
            ptr = ptr_add(ptr, USIZE_BYTES);
 51e:	9827      	ldr	r0, [sp, #156]	; 0x9c
 520:	2104      	movs	r1, #4
 522:	f7ff fffe 	bl	0 <_ZN6memchr8fallback7memchr217hb464b3a3d7bdb29cE>
 526:	9001      	str	r0, [sp, #4]
 528:	e7ff      	b.n	52a <_ZN6memchr8fallback7memchr217hb464b3a3d7bdb29cE+0x52a>
 52a:	9801      	ldr	r0, [sp, #4]
 52c:	9027      	str	r0, [sp, #156]	; 0x9c
/Users/Luppy/.cargo/registry/src/github.com-1ecc6299db9ec823/memchr-2.2.0/src/fallback.rs:108
        while ptr <= ptr_sub(end_ptr, USIZE_BYTES) {
 52e:	e6ff      	b.n	330 <_ZN6memchr8fallback7memchr217hb464b3a3d7bdb29cE+0x330>
/Users/Luppy/.cargo/registry/src/github.com-1ecc6299db9ec823/memchr-2.2.0/src/fallback.rs:121
}
 530:	e62e      	b.n	190 <_ZN6memchr8fallback7memchr217hb464b3a3d7bdb29cE+0x190>
/Users/Luppy/.cargo/registry/src/github.com-1ecc6299db9ec823/memchr-2.2.0/src/fallback.rs:88
    let align = USIZE_BYTES - 1;
 532:	f240 0000 	movw	r0, #0
 536:	f2c0 0000 	movt	r0, #0
 53a:	f7ff fffe 	bl	0 <_ZN4core9panicking5panic17h53ca63c6ac6312f8E>
 53e:	defe      	udf	#254	; 0xfe
/Users/Luppy/.cargo/registry/src/github.com-1ecc6299db9ec823/memchr-2.2.0/src/fallback.rs:105
        ptr = ptr_add(ptr, USIZE_BYTES - (start_ptr as usize & align));
 540:	f240 0000 	movw	r0, #0
 544:	f2c0 0000 	movt	r0, #0
 548:	f7ff fffe 	bl	0 <_ZN4core9panicking5panic17h53ca63c6ac6312f8E>
 54c:	defe      	udf	#254	; 0xfe

Disassembly of section .text._ZN6memchr8fallback7memchr228_$u7b$$u7b$closure$u7d$$u7d$17h095464c0bc8febc1E:

00000000 <_ZN6memchr8fallback7memchr228_$u7b$$u7b$closure$u7d$$u7d$17h095464c0bc8febc1E>:
_ZN6memchr8fallback7memchr228_$u7b$$u7b$closure$u7d$$u7d$17h095464c0bc8febc1E():
/Users/Luppy/.cargo/registry/src/github.com-1ecc6299db9ec823/memchr-2.2.0/src/fallback.rs:87
    let confirm = |byte| byte == n1 || byte == n2;
   0:	b084      	sub	sp, #16
   2:	460a      	mov	r2, r1
   4:	4603      	mov	r3, r0
   6:	9002      	str	r0, [sp, #8]
   8:	f88d 100e 	strb.w	r1, [sp, #14]
   c:	f89d 000e 	ldrb.w	r0, [sp, #14]
  10:	9902      	ldr	r1, [sp, #8]
  12:	6809      	ldr	r1, [r1, #0]
  14:	7809      	ldrb	r1, [r1, #0]
  16:	4288      	cmp	r0, r1
  18:	9201      	str	r2, [sp, #4]
  1a:	9300      	str	r3, [sp, #0]
  1c:	d104      	bne.n	28 <_ZN6memchr8fallback7memchr228_$u7b$$u7b$closure$u7d$$u7d$17h095464c0bc8febc1E+0x28>
  1e:	e7ff      	b.n	20 <_ZN6memchr8fallback7memchr228_$u7b$$u7b$closure$u7d$$u7d$17h095464c0bc8febc1E+0x20>
  20:	2001      	movs	r0, #1
  22:	f88d 000f 	strb.w	r0, [sp, #15]
  26:	e00b      	b.n	40 <_ZN6memchr8fallback7memchr228_$u7b$$u7b$closure$u7d$$u7d$17h095464c0bc8febc1E+0x40>
  28:	f89d 000e 	ldrb.w	r0, [sp, #14]
  2c:	9902      	ldr	r1, [sp, #8]
  2e:	6849      	ldr	r1, [r1, #4]
  30:	7809      	ldrb	r1, [r1, #0]
  32:	1a40      	subs	r0, r0, r1
  34:	fab0 f080 	clz	r0, r0
  38:	0940      	lsrs	r0, r0, #5
  3a:	f88d 000f 	strb.w	r0, [sp, #15]
  3e:	e7ff      	b.n	40 <_ZN6memchr8fallback7memchr228_$u7b$$u7b$closure$u7d$$u7d$17h095464c0bc8febc1E+0x40>
  40:	f89d 000f 	ldrb.w	r0, [sp, #15]
  44:	b004      	add	sp, #16
  46:	4770      	bx	lr

Disassembly of section .text._ZN6memchr8fallback7memchr317ha1ea4d89eedcd839E:

00000000 <_ZN6memchr8fallback7memchr317ha1ea4d89eedcd839E>:
_ZN6memchr8fallback7memchr317ha1ea4d89eedcd839E():
/Users/Luppy/.cargo/registry/src/github.com-1ecc6299db9ec823/memchr-2.2.0/src/fallback.rs:124
pub fn memchr3(n1: u8, n2: u8, n3: u8, haystack: &[u8]) -> Option<usize> {
   0:	b570      	push	{r4, r5, r6, lr}
   2:	b0e8      	sub	sp, #416	; 0x1a0
   4:	f8dd c1b0 	ldr.w	ip, [sp, #432]	; 0x1b0
   8:	469e      	mov	lr, r3
   a:	4614      	mov	r4, r2
   c:	460d      	mov	r5, r1
   e:	4606      	mov	r6, r0
  10:	f88d 006d 	strb.w	r0, [sp, #109]	; 0x6d
  14:	f88d 106e 	strb.w	r1, [sp, #110]	; 0x6e
  18:	f88d 206f 	strb.w	r2, [sp, #111]	; 0x6f
  1c:	931c      	str	r3, [sp, #112]	; 0x70
  1e:	f8cd c074 	str.w	ip, [sp, #116]	; 0x74
/Users/Luppy/.cargo/registry/src/github.com-1ecc6299db9ec823/memchr-2.2.0/src/fallback.rs:125
    let vn1 = repeat_byte(n1);
  22:	f89d 006d 	ldrb.w	r0, [sp, #109]	; 0x6d
  26:	f88d 013d 	strb.w	r0, [sp, #317]	; 0x13d
_ZN6memchr8fallback11repeat_byte17h6374a9c8a738a5e1E():
/Users/Luppy/.cargo/registry/src/github.com-1ecc6299db9ec823/memchr-2.2.0/src/fallback.rs:42
    (b as usize) * (usize::MAX / 255)
  2a:	f89d 013d 	ldrb.w	r0, [sp, #317]	; 0x13d
  2e:	f04f 3101 	mov.w	r1, #16843009	; 0x1010101
  32:	fba0 0101 	umull	r0, r1, r0, r1
  36:	2900      	cmp	r1, #0
  38:	f8cd e068 	str.w	lr, [sp, #104]	; 0x68
  3c:	9419      	str	r4, [sp, #100]	; 0x64
  3e:	9518      	str	r5, [sp, #96]	; 0x60
  40:	9617      	str	r6, [sp, #92]	; 0x5c
  42:	9016      	str	r0, [sp, #88]	; 0x58
  44:	d007      	beq.n	56 <_ZN6memchr8fallback7memchr317ha1ea4d89eedcd839E+0x56>
  46:	e7ff      	b.n	48 <_ZN6memchr8fallback7memchr317ha1ea4d89eedcd839E+0x48>
  48:	f240 0000 	movw	r0, #0
  4c:	f2c0 0000 	movt	r0, #0
  50:	f7ff fffe 	bl	0 <_ZN4core9panicking5panic17h53ca63c6ac6312f8E>
  54:	defe      	udf	#254	; 0xfe
_ZN6memchr8fallback7memchr317ha1ea4d89eedcd839E():
/Users/Luppy/.cargo/registry/src/github.com-1ecc6299db9ec823/memchr-2.2.0/src/fallback.rs:125
    let vn1 = repeat_byte(n1);
  56:	9816      	ldr	r0, [sp, #88]	; 0x58
  58:	9020      	str	r0, [sp, #128]	; 0x80
  5a:	e7ff      	b.n	5c <_ZN6memchr8fallback7memchr317ha1ea4d89eedcd839E+0x5c>
/Users/Luppy/.cargo/registry/src/github.com-1ecc6299db9ec823/memchr-2.2.0/src/fallback.rs:126
    let vn2 = repeat_byte(n2);
  5c:	f89d 006e 	ldrb.w	r0, [sp, #110]	; 0x6e
  60:	f88d 013e 	strb.w	r0, [sp, #318]	; 0x13e
_ZN6memchr8fallback11repeat_byte17h6374a9c8a738a5e1E():
/Users/Luppy/.cargo/registry/src/github.com-1ecc6299db9ec823/memchr-2.2.0/src/fallback.rs:42
    (b as usize) * (usize::MAX / 255)
  64:	f89d 013e 	ldrb.w	r0, [sp, #318]	; 0x13e
  68:	f04f 3101 	mov.w	r1, #16843009	; 0x1010101
  6c:	fba0 0101 	umull	r0, r1, r0, r1
  70:	2900      	cmp	r1, #0
  72:	9015      	str	r0, [sp, #84]	; 0x54
  74:	d007      	beq.n	86 <_ZN6memchr8fallback7memchr317ha1ea4d89eedcd839E+0x86>
  76:	e7ff      	b.n	78 <_ZN6memchr8fallback7memchr317ha1ea4d89eedcd839E+0x78>
  78:	f240 0000 	movw	r0, #0
  7c:	f2c0 0000 	movt	r0, #0
  80:	f7ff fffe 	bl	0 <_ZN4core9panicking5panic17h53ca63c6ac6312f8E>
  84:	defe      	udf	#254	; 0xfe
_ZN6memchr8fallback7memchr317ha1ea4d89eedcd839E():
/Users/Luppy/.cargo/registry/src/github.com-1ecc6299db9ec823/memchr-2.2.0/src/fallback.rs:126
    let vn2 = repeat_byte(n2);
  86:	9815      	ldr	r0, [sp, #84]	; 0x54
  88:	9021      	str	r0, [sp, #132]	; 0x84
  8a:	e7ff      	b.n	8c <_ZN6memchr8fallback7memchr317ha1ea4d89eedcd839E+0x8c>
/Users/Luppy/.cargo/registry/src/github.com-1ecc6299db9ec823/memchr-2.2.0/src/fallback.rs:127
    let vn3 = repeat_byte(n3);
  8c:	f89d 006f 	ldrb.w	r0, [sp, #111]	; 0x6f
  90:	f88d 013f 	strb.w	r0, [sp, #319]	; 0x13f
_ZN6memchr8fallback11repeat_byte17h6374a9c8a738a5e1E():
/Users/Luppy/.cargo/registry/src/github.com-1ecc6299db9ec823/memchr-2.2.0/src/fallback.rs:42
    (b as usize) * (usize::MAX / 255)
  94:	f89d 013f 	ldrb.w	r0, [sp, #319]	; 0x13f
  98:	f04f 3101 	mov.w	r1, #16843009	; 0x1010101
  9c:	fba0 0101 	umull	r0, r1, r0, r1
  a0:	2900      	cmp	r1, #0
  a2:	9014      	str	r0, [sp, #80]	; 0x50
  a4:	d007      	beq.n	b6 <_ZN6memchr8fallback7memchr317ha1ea4d89eedcd839E+0xb6>
  a6:	e7ff      	b.n	a8 <_ZN6memchr8fallback7memchr317ha1ea4d89eedcd839E+0xa8>
  a8:	f240 0000 	movw	r0, #0
  ac:	f2c0 0000 	movt	r0, #0
  b0:	f7ff fffe 	bl	0 <_ZN4core9panicking5panic17h53ca63c6ac6312f8E>
  b4:	defe      	udf	#254	; 0xfe
_ZN6memchr8fallback7memchr317ha1ea4d89eedcd839E():
/Users/Luppy/.cargo/registry/src/github.com-1ecc6299db9ec823/memchr-2.2.0/src/fallback.rs:127
    let vn3 = repeat_byte(n3);
  b6:	9814      	ldr	r0, [sp, #80]	; 0x50
  b8:	9022      	str	r0, [sp, #136]	; 0x88
  ba:	e7ff      	b.n	bc <_ZN6memchr8fallback7memchr317ha1ea4d89eedcd839E+0xbc>
  bc:	f10d 006d 	add.w	r0, sp, #109	; 0x6d
/Users/Luppy/.cargo/registry/src/github.com-1ecc6299db9ec823/memchr-2.2.0/src/fallback.rs:128
    let confirm = |byte| byte == n1 || byte == n2 || byte == n3;
  c0:	9023      	str	r0, [sp, #140]	; 0x8c
  c2:	f10d 006e 	add.w	r0, sp, #110	; 0x6e
  c6:	9024      	str	r0, [sp, #144]	; 0x90
  c8:	f10d 006f 	add.w	r0, sp, #111	; 0x6f
  cc:	9025      	str	r0, [sp, #148]	; 0x94
  ce:	2004      	movs	r0, #4
/Users/Luppy/.cargo/registry/src/github.com-1ecc6299db9ec823/memchr-2.2.0/src/fallback.rs:129
    let align = USIZE_BYTES - 1;
  d0:	1e41      	subs	r1, r0, #1
  d2:	2801      	cmp	r0, #1
  d4:	9113      	str	r1, [sp, #76]	; 0x4c
  d6:	f0c0 829b 	bcc.w	610 <_ZN6memchr8fallback7memchr317ha1ea4d89eedcd839E+0x610>
  da:	e7ff      	b.n	dc <_ZN6memchr8fallback7memchr317ha1ea4d89eedcd839E+0xdc>
  dc:	9813      	ldr	r0, [sp, #76]	; 0x4c
  de:	9026      	str	r0, [sp, #152]	; 0x98
/Users/Luppy/.cargo/registry/src/github.com-1ecc6299db9ec823/memchr-2.2.0/src/fallback.rs:130
    let start_ptr = haystack.as_ptr();
  e0:	981c      	ldr	r0, [sp, #112]	; 0x70
  e2:	991d      	ldr	r1, [sp, #116]	; 0x74
  e4:	f7ff fffe 	bl	0 <_ZN4core5slice29_$LT$impl$u20$$u5b$T$u5d$$GT$6as_ptr17hd0263209417be61aE>
  e8:	9027      	str	r0, [sp, #156]	; 0x9c
  ea:	e7ff      	b.n	ec <_ZN6memchr8fallback7memchr317ha1ea4d89eedcd839E+0xec>
/Users/Luppy/.cargo/registry/src/github.com-1ecc6299db9ec823/memchr-2.2.0/src/fallback.rs:131
    let end_ptr = haystack[haystack.len()..].as_ptr();
  ec:	981c      	ldr	r0, [sp, #112]	; 0x70
  ee:	991d      	ldr	r1, [sp, #116]	; 0x74
  f0:	9012      	str	r0, [sp, #72]	; 0x48
  f2:	9111      	str	r1, [sp, #68]	; 0x44
  f4:	f7ff fffe 	bl	0 <_ZN4core5slice29_$LT$impl$u20$$u5b$T$u5d$$GT$3len17h63f985867d9f263fE>
  f8:	9010      	str	r0, [sp, #64]	; 0x40
  fa:	e7ff      	b.n	fc <_ZN6memchr8fallback7memchr317ha1ea4d89eedcd839E+0xfc>
  fc:	9810      	ldr	r0, [sp, #64]	; 0x40
  fe:	9029      	str	r0, [sp, #164]	; 0xa4
 100:	9a29      	ldr	r2, [sp, #164]	; 0xa4
 102:	9812      	ldr	r0, [sp, #72]	; 0x48
 104:	9911      	ldr	r1, [sp, #68]	; 0x44
 106:	f7ff fffe 	bl	0 <_ZN4core5slice74_$LT$impl$u20$core..ops..index..Index$LT$I$GT$$u20$for$u20$$u5b$T$u5d$$GT$5index17hf116fad1d92ca796E>
 10a:	900f      	str	r0, [sp, #60]	; 0x3c
 10c:	910e      	str	r1, [sp, #56]	; 0x38
 10e:	e7ff      	b.n	110 <_ZN6memchr8fallback7memchr317ha1ea4d89eedcd839E+0x110>
 110:	980f      	ldr	r0, [sp, #60]	; 0x3c
 112:	990e      	ldr	r1, [sp, #56]	; 0x38
 114:	f7ff fffe 	bl	0 <_ZN4core5slice29_$LT$impl$u20$$u5b$T$u5d$$GT$6as_ptr17hd0263209417be61aE>
 118:	9028      	str	r0, [sp, #160]	; 0xa0
 11a:	e7ff      	b.n	11c <_ZN6memchr8fallback7memchr317ha1ea4d89eedcd839E+0x11c>
/Users/Luppy/.cargo/registry/src/github.com-1ecc6299db9ec823/memchr-2.2.0/src/fallback.rs:132
    let mut ptr = start_ptr;
 11c:	9827      	ldr	r0, [sp, #156]	; 0x9c
 11e:	902a      	str	r0, [sp, #168]	; 0xa8
/Users/Luppy/.cargo/registry/src/github.com-1ecc6299db9ec823/memchr-2.2.0/src/fallback.rs:135
        if haystack.len() < USIZE_BYTES {
 120:	981c      	ldr	r0, [sp, #112]	; 0x70
 122:	991d      	ldr	r1, [sp, #116]	; 0x74
 124:	f7ff fffe 	bl	0 <_ZN4core5slice29_$LT$impl$u20$$u5b$T$u5d$$GT$3len17h63f985867d9f263fE>
 128:	900d      	str	r0, [sp, #52]	; 0x34
 12a:	e7ff      	b.n	12c <_ZN6memchr8fallback7memchr317ha1ea4d89eedcd839E+0x12c>
 12c:	980d      	ldr	r0, [sp, #52]	; 0x34
 12e:	2803      	cmp	r0, #3
 130:	d856      	bhi.n	1e0 <_ZN6memchr8fallback7memchr317ha1ea4d89eedcd839E+0x1e0>
 132:	e7ff      	b.n	134 <_ZN6memchr8fallback7memchr317ha1ea4d89eedcd839E+0x134>
/Users/Luppy/.cargo/registry/src/github.com-1ecc6299db9ec823/memchr-2.2.0/src/fallback.rs:136
            return forward_search(start_ptr, end_ptr, ptr, confirm);
 134:	9827      	ldr	r0, [sp, #156]	; 0x9c
 136:	9928      	ldr	r1, [sp, #160]	; 0xa0
 138:	9a2a      	ldr	r2, [sp, #168]	; 0xa8
 13a:	9b23      	ldr	r3, [sp, #140]	; 0x8c
 13c:	f8dd c090 	ldr.w	ip, [sp, #144]	; 0x90
 140:	f8dd e094 	ldr.w	lr, [sp, #148]	; 0x94
 144:	f8cd e0b4 	str.w	lr, [sp, #180]	; 0xb4
 148:	f8cd c0b0 	str.w	ip, [sp, #176]	; 0xb0
 14c:	932b      	str	r3, [sp, #172]	; 0xac
 14e:	9050      	str	r0, [sp, #320]	; 0x140
 150:	9151      	str	r1, [sp, #324]	; 0x144
 152:	9252      	str	r2, [sp, #328]	; 0x148
_ZN6memchr8fallback14forward_search17h17e09f09911fae1dE():
/Users/Luppy/.cargo/registry/src/github.com-1ecc6299db9ec823/memchr-2.2.0/src/fallback.rs:292
    debug_assert!(start_ptr <= ptr);
 154:	9850      	ldr	r0, [sp, #320]	; 0x140
 156:	9952      	ldr	r1, [sp, #328]	; 0x148
 158:	4288      	cmp	r0, r1
 15a:	d907      	bls.n	16c <_ZN6memchr8fallback7memchr317ha1ea4d89eedcd839E+0x16c>
 15c:	e7ff      	b.n	15e <_ZN6memchr8fallback7memchr317ha1ea4d89eedcd839E+0x15e>
 15e:	f240 0000 	movw	r0, #0
 162:	f2c0 0000 	movt	r0, #0
 166:	f7ff fffe 	bl	0 <_ZN4core9panicking5panic17h53ca63c6ac6312f8E>
 16a:	defe      	udf	#254	; 0xfe
/Users/Luppy/.cargo/registry/src/github.com-1ecc6299db9ec823/memchr-2.2.0/src/fallback.rs:293
    debug_assert!(ptr <= end_ptr);
 16c:	9852      	ldr	r0, [sp, #328]	; 0x148
 16e:	9951      	ldr	r1, [sp, #324]	; 0x144
 170:	4288      	cmp	r0, r1
 172:	d907      	bls.n	184 <_ZN6memchr8fallback7memchr317ha1ea4d89eedcd839E+0x184>
 174:	e7ff      	b.n	176 <_ZN6memchr8fallback7memchr317ha1ea4d89eedcd839E+0x176>
 176:	f240 0000 	movw	r0, #0
 17a:	f2c0 0000 	movt	r0, #0
 17e:	f7ff fffe 	bl	0 <_ZN4core9panicking5panic17h53ca63c6ac6312f8E>
 182:	defe      	udf	#254	; 0xfe
/Users/Luppy/.cargo/registry/src/github.com-1ecc6299db9ec823/memchr-2.2.0/src/fallback.rs:295
    while ptr < end_ptr {
 184:	e7ff      	b.n	186 <_ZN6memchr8fallback7memchr317ha1ea4d89eedcd839E+0x186>
 186:	9852      	ldr	r0, [sp, #328]	; 0x148
 188:	9951      	ldr	r1, [sp, #324]	; 0x144
 18a:	4288      	cmp	r0, r1
 18c:	d303      	bcc.n	196 <_ZN6memchr8fallback7memchr317ha1ea4d89eedcd839E+0x196>
 18e:	e7ff      	b.n	190 <_ZN6memchr8fallback7memchr317ha1ea4d89eedcd839E+0x190>
 190:	2000      	movs	r0, #0
/Users/Luppy/.cargo/registry/src/github.com-1ecc6299db9ec823/memchr-2.2.0/src/fallback.rs:301
    None
 192:	9053      	str	r0, [sp, #332]	; 0x14c
/Users/Luppy/.cargo/registry/src/github.com-1ecc6299db9ec823/memchr-2.2.0/src/fallback.rs:302
}
 194:	e019      	b.n	1ca <_ZN6memchr8fallback7memchr317ha1ea4d89eedcd839E+0x1ca>
/Users/Luppy/.cargo/registry/src/github.com-1ecc6299db9ec823/memchr-2.2.0/src/fallback.rs:296
        if confirm(*ptr) {
 196:	9852      	ldr	r0, [sp, #328]	; 0x148
 198:	7800      	ldrb	r0, [r0, #0]
 19a:	f88d 0157 	strb.w	r0, [sp, #343]	; 0x157
 19e:	f89d 1157 	ldrb.w	r1, [sp, #343]	; 0x157
 1a2:	a82b      	add	r0, sp, #172	; 0xac
 1a4:	f7ff fffe 	bl	0 <_ZN6memchr8fallback7memchr317ha1ea4d89eedcd839E>
 1a8:	2800      	cmp	r0, #0
 1aa:	d008      	beq.n	1be <_ZN6memchr8fallback7memchr317ha1ea4d89eedcd839E+0x1be>
 1ac:	e7ff      	b.n	1ae <_ZN6memchr8fallback7memchr317ha1ea4d89eedcd839E+0x1ae>
/Users/Luppy/.cargo/registry/src/github.com-1ecc6299db9ec823/memchr-2.2.0/src/fallback.rs:297
            return Some(sub(ptr, start_ptr));
 1ae:	9852      	ldr	r0, [sp, #328]	; 0x148
 1b0:	9950      	ldr	r1, [sp, #320]	; 0x140
 1b2:	f7ff fffe 	bl	0 <_ZN6memchr8fallback7memchr317ha1ea4d89eedcd839E>
 1b6:	9054      	str	r0, [sp, #336]	; 0x150
 1b8:	2001      	movs	r0, #1
 1ba:	9053      	str	r0, [sp, #332]	; 0x14c
/Users/Luppy/.cargo/registry/src/github.com-1ecc6299db9ec823/memchr-2.2.0/src/fallback.rs:302
}
 1bc:	e005      	b.n	1ca <_ZN6memchr8fallback7memchr317ha1ea4d89eedcd839E+0x1ca>
/Users/Luppy/.cargo/registry/src/github.com-1ecc6299db9ec823/memchr-2.2.0/src/fallback.rs:299
        ptr = ptr.offset(1);
 1be:	9852      	ldr	r0, [sp, #328]	; 0x148
 1c0:	2101      	movs	r1, #1
 1c2:	f7ff fffe 	bl	0 <_ZN4core3ptr33_$LT$impl$u20$$BP$const$u20$T$GT$6offset17h1b1bd4fc0c06f6a7E>
 1c6:	9052      	str	r0, [sp, #328]	; 0x148
/Users/Luppy/.cargo/registry/src/github.com-1ecc6299db9ec823/memchr-2.2.0/src/fallback.rs:295
    while ptr < end_ptr {
 1c8:	e7dd      	b.n	186 <_ZN6memchr8fallback7memchr317ha1ea4d89eedcd839E+0x186>
/Users/Luppy/.cargo/registry/src/github.com-1ecc6299db9ec823/memchr-2.2.0/src/fallback.rs:302
}
 1ca:	9853      	ldr	r0, [sp, #332]	; 0x14c
 1cc:	9954      	ldr	r1, [sp, #336]	; 0x150
_ZN6memchr8fallback7memchr317ha1ea4d89eedcd839E():
/Users/Luppy/.cargo/registry/src/github.com-1ecc6299db9ec823/memchr-2.2.0/src/fallback.rs:136
            return forward_search(start_ptr, end_ptr, ptr, confirm);
 1ce:	911f      	str	r1, [sp, #124]	; 0x7c
 1d0:	901e      	str	r0, [sp, #120]	; 0x78
 1d2:	e7ff      	b.n	1d4 <_ZN6memchr8fallback7memchr317ha1ea4d89eedcd839E+0x1d4>
 1d4:	e003      	b.n	1de <_ZN6memchr8fallback7memchr317ha1ea4d89eedcd839E+0x1de>
/Users/Luppy/.cargo/registry/src/github.com-1ecc6299db9ec823/memchr-2.2.0/src/fallback.rs:164
}
 1d6:	981e      	ldr	r0, [sp, #120]	; 0x78
 1d8:	991f      	ldr	r1, [sp, #124]	; 0x7c
 1da:	b068      	add	sp, #416	; 0x1a0
 1dc:	bd70      	pop	{r4, r5, r6, pc}
/Users/Luppy/.cargo/registry/src/github.com-1ecc6299db9ec823/memchr-2.2.0/src/fallback.rs:136
            return forward_search(start_ptr, end_ptr, ptr, confirm);
 1de:	e7fa      	b.n	1d6 <_ZN6memchr8fallback7memchr317ha1ea4d89eedcd839E+0x1d6>
/Users/Luppy/.cargo/registry/src/github.com-1ecc6299db9ec823/memchr-2.2.0/src/fallback.rs:139
        let chunk = read_unaligned_usize(ptr);
 1e0:	982a      	ldr	r0, [sp, #168]	; 0xa8
 1e2:	f7ff fffe 	bl	0 <_ZN6memchr8fallback7memchr317ha1ea4d89eedcd839E>
 1e6:	902e      	str	r0, [sp, #184]	; 0xb8
 1e8:	e7ff      	b.n	1ea <_ZN6memchr8fallback7memchr317ha1ea4d89eedcd839E+0x1ea>
/Users/Luppy/.cargo/registry/src/github.com-1ecc6299db9ec823/memchr-2.2.0/src/fallback.rs:140
        let eq1 = contains_zero_byte(chunk ^ vn1);
 1ea:	982e      	ldr	r0, [sp, #184]	; 0xb8
 1ec:	9920      	ldr	r1, [sp, #128]	; 0x80
 1ee:	4048      	eors	r0, r1
 1f0:	9056      	str	r0, [sp, #344]	; 0x158
_ZN6memchr8fallback18contains_zero_byte17hcf05c92d2c728c95E():
/Users/Luppy/.cargo/registry/src/github.com-1ecc6299db9ec823/memchr-2.2.0/src/fallback.rs:33
    x.wrapping_sub(LO_USIZE) & !x & HI_USIZE != 0
 1f2:	9856      	ldr	r0, [sp, #344]	; 0x158
 1f4:	f04f 3101 	mov.w	r1, #16843009	; 0x1010101
 1f8:	f7ff fffe 	bl	0 <_ZN4core3num23_$LT$impl$u20$usize$GT$12wrapping_sub17h049a26b7a4ff5318E>
 1fc:	9956      	ldr	r1, [sp, #344]	; 0x158
 1fe:	4388      	bics	r0, r1
 200:	f020 307f 	bic.w	r0, r0, #2139062143	; 0x7f7f7f7f
 204:	2800      	cmp	r0, #0
 206:	bf18      	it	ne
 208:	2001      	movne	r0, #1
_ZN6memchr8fallback7memchr317ha1ea4d89eedcd839E():
/Users/Luppy/.cargo/registry/src/github.com-1ecc6299db9ec823/memchr-2.2.0/src/fallback.rs:140
        let eq1 = contains_zero_byte(chunk ^ vn1);
 20a:	f88d 00bf 	strb.w	r0, [sp, #191]	; 0xbf
 20e:	e7ff      	b.n	210 <_ZN6memchr8fallback7memchr317ha1ea4d89eedcd839E+0x210>
/Users/Luppy/.cargo/registry/src/github.com-1ecc6299db9ec823/memchr-2.2.0/src/fallback.rs:141
        let eq2 = contains_zero_byte(chunk ^ vn2);
 210:	982e      	ldr	r0, [sp, #184]	; 0xb8
 212:	9921      	ldr	r1, [sp, #132]	; 0x84
 214:	4048      	eors	r0, r1
 216:	9057      	str	r0, [sp, #348]	; 0x15c
_ZN6memchr8fallback18contains_zero_byte17hcf05c92d2c728c95E():
/Users/Luppy/.cargo/registry/src/github.com-1ecc6299db9ec823/memchr-2.2.0/src/fallback.rs:33
    x.wrapping_sub(LO_USIZE) & !x & HI_USIZE != 0
 218:	9857      	ldr	r0, [sp, #348]	; 0x15c
 21a:	f04f 3101 	mov.w	r1, #16843009	; 0x1010101
 21e:	f7ff fffe 	bl	0 <_ZN4core3num23_$LT$impl$u20$usize$GT$12wrapping_sub17h049a26b7a4ff5318E>
 222:	9957      	ldr	r1, [sp, #348]	; 0x15c
 224:	4388      	bics	r0, r1
 226:	f020 307f 	bic.w	r0, r0, #2139062143	; 0x7f7f7f7f
 22a:	2800      	cmp	r0, #0
 22c:	bf18      	it	ne
 22e:	2001      	movne	r0, #1
_ZN6memchr8fallback7memchr317ha1ea4d89eedcd839E():
/Users/Luppy/.cargo/registry/src/github.com-1ecc6299db9ec823/memchr-2.2.0/src/fallback.rs:141
        let eq2 = contains_zero_byte(chunk ^ vn2);
 230:	f88d 00c0 	strb.w	r0, [sp, #192]	; 0xc0
 234:	e7ff      	b.n	236 <_ZN6memchr8fallback7memchr317ha1ea4d89eedcd839E+0x236>
/Users/Luppy/.cargo/registry/src/github.com-1ecc6299db9ec823/memchr-2.2.0/src/fallback.rs:142
        let eq3 = contains_zero_byte(chunk ^ vn3);
 236:	982e      	ldr	r0, [sp, #184]	; 0xb8
 238:	9922      	ldr	r1, [sp, #136]	; 0x88
 23a:	4048      	eors	r0, r1
 23c:	9058      	str	r0, [sp, #352]	; 0x160
_ZN6memchr8fallback18contains_zero_byte17hcf05c92d2c728c95E():
/Users/Luppy/.cargo/registry/src/github.com-1ecc6299db9ec823/memchr-2.2.0/src/fallback.rs:33
    x.wrapping_sub(LO_USIZE) & !x & HI_USIZE != 0
 23e:	9858      	ldr	r0, [sp, #352]	; 0x160
 240:	f04f 3101 	mov.w	r1, #16843009	; 0x1010101
 244:	f7ff fffe 	bl	0 <_ZN4core3num23_$LT$impl$u20$usize$GT$12wrapping_sub17h049a26b7a4ff5318E>
 248:	9958      	ldr	r1, [sp, #352]	; 0x160
 24a:	4388      	bics	r0, r1
 24c:	f020 307f 	bic.w	r0, r0, #2139062143	; 0x7f7f7f7f
 250:	2800      	cmp	r0, #0
 252:	bf18      	it	ne
 254:	2001      	movne	r0, #1
_ZN6memchr8fallback7memchr317ha1ea4d89eedcd839E():
/Users/Luppy/.cargo/registry/src/github.com-1ecc6299db9ec823/memchr-2.2.0/src/fallback.rs:142
        let eq3 = contains_zero_byte(chunk ^ vn3);
 256:	f88d 00c1 	strb.w	r0, [sp, #193]	; 0xc1
 25a:	e7ff      	b.n	25c <_ZN6memchr8fallback7memchr317ha1ea4d89eedcd839E+0x25c>
/Users/Luppy/.cargo/registry/src/github.com-1ecc6299db9ec823/memchr-2.2.0/src/fallback.rs:143
        if eq1 || eq2 || eq3 {
 25c:	f89d 00bf 	ldrb.w	r0, [sp, #191]	; 0xbf
 260:	07c0      	lsls	r0, r0, #31
 262:	2800      	cmp	r0, #0
 264:	d10f      	bne.n	286 <_ZN6memchr8fallback7memchr317ha1ea4d89eedcd839E+0x286>
 266:	e012      	b.n	28e <_ZN6memchr8fallback7memchr317ha1ea4d89eedcd839E+0x28e>
 268:	2001      	movs	r0, #1
 26a:	f88d 00c2 	strb.w	r0, [sp, #194]	; 0xc2
 26e:	e004      	b.n	27a <_ZN6memchr8fallback7memchr317ha1ea4d89eedcd839E+0x27a>
 270:	f89d 00c1 	ldrb.w	r0, [sp, #193]	; 0xc1
 274:	f88d 00c2 	strb.w	r0, [sp, #194]	; 0xc2
 278:	e7ff      	b.n	27a <_ZN6memchr8fallback7memchr317ha1ea4d89eedcd839E+0x27a>
 27a:	f89d 00c2 	ldrb.w	r0, [sp, #194]	; 0xc2
 27e:	07c0      	lsls	r0, r0, #31
 280:	2800      	cmp	r0, #0
 282:	d10f      	bne.n	2a4 <_ZN6memchr8fallback7memchr317ha1ea4d89eedcd839E+0x2a4>
 284:	e05f      	b.n	346 <_ZN6memchr8fallback7memchr317ha1ea4d89eedcd839E+0x346>
 286:	2001      	movs	r0, #1
 288:	f88d 00c3 	strb.w	r0, [sp, #195]	; 0xc3
 28c:	e004      	b.n	298 <_ZN6memchr8fallback7memchr317ha1ea4d89eedcd839E+0x298>
 28e:	f89d 00c0 	ldrb.w	r0, [sp, #192]	; 0xc0
 292:	f88d 00c3 	strb.w	r0, [sp, #195]	; 0xc3
 296:	e7ff      	b.n	298 <_ZN6memchr8fallback7memchr317ha1ea4d89eedcd839E+0x298>
 298:	f89d 00c3 	ldrb.w	r0, [sp, #195]	; 0xc3
 29c:	07c0      	lsls	r0, r0, #31
 29e:	2800      	cmp	r0, #0
 2a0:	d1e2      	bne.n	268 <_ZN6memchr8fallback7memchr317ha1ea4d89eedcd839E+0x268>
 2a2:	e7e5      	b.n	270 <_ZN6memchr8fallback7memchr317ha1ea4d89eedcd839E+0x270>
/Users/Luppy/.cargo/registry/src/github.com-1ecc6299db9ec823/memchr-2.2.0/src/fallback.rs:144
            return forward_search(start_ptr, end_ptr, ptr, confirm);
 2a4:	9827      	ldr	r0, [sp, #156]	; 0x9c
 2a6:	9928      	ldr	r1, [sp, #160]	; 0xa0
 2a8:	9a2a      	ldr	r2, [sp, #168]	; 0xa8
 2aa:	9b23      	ldr	r3, [sp, #140]	; 0x8c
 2ac:	f8dd c090 	ldr.w	ip, [sp, #144]	; 0x90
 2b0:	f8dd e094 	ldr.w	lr, [sp, #148]	; 0x94
 2b4:	f8cd e0cc 	str.w	lr, [sp, #204]	; 0xcc
 2b8:	f8cd c0c8 	str.w	ip, [sp, #200]	; 0xc8
 2bc:	9331      	str	r3, [sp, #196]	; 0xc4
 2be:	9059      	str	r0, [sp, #356]	; 0x164
 2c0:	915a      	str	r1, [sp, #360]	; 0x168
 2c2:	925b      	str	r2, [sp, #364]	; 0x16c
_ZN6memchr8fallback14forward_search17h17e09f09911fae1dE():
/Users/Luppy/.cargo/registry/src/github.com-1ecc6299db9ec823/memchr-2.2.0/src/fallback.rs:292
    debug_assert!(start_ptr <= ptr);
 2c4:	9859      	ldr	r0, [sp, #356]	; 0x164
 2c6:	995b      	ldr	r1, [sp, #364]	; 0x16c
 2c8:	4288      	cmp	r0, r1
 2ca:	d907      	bls.n	2dc <_ZN6memchr8fallback7memchr317ha1ea4d89eedcd839E+0x2dc>
 2cc:	e7ff      	b.n	2ce <_ZN6memchr8fallback7memchr317ha1ea4d89eedcd839E+0x2ce>
 2ce:	f240 0000 	movw	r0, #0
 2d2:	f2c0 0000 	movt	r0, #0
 2d6:	f7ff fffe 	bl	0 <_ZN4core9panicking5panic17h53ca63c6ac6312f8E>
 2da:	defe      	udf	#254	; 0xfe
/Users/Luppy/.cargo/registry/src/github.com-1ecc6299db9ec823/memchr-2.2.0/src/fallback.rs:293
    debug_assert!(ptr <= end_ptr);
 2dc:	985b      	ldr	r0, [sp, #364]	; 0x16c
 2de:	995a      	ldr	r1, [sp, #360]	; 0x168
 2e0:	4288      	cmp	r0, r1
 2e2:	d907      	bls.n	2f4 <_ZN6memchr8fallback7memchr317ha1ea4d89eedcd839E+0x2f4>
 2e4:	e7ff      	b.n	2e6 <_ZN6memchr8fallback7memchr317ha1ea4d89eedcd839E+0x2e6>
 2e6:	f240 0000 	movw	r0, #0
 2ea:	f2c0 0000 	movt	r0, #0
 2ee:	f7ff fffe 	bl	0 <_ZN4core9panicking5panic17h53ca63c6ac6312f8E>
 2f2:	defe      	udf	#254	; 0xfe
/Users/Luppy/.cargo/registry/src/github.com-1ecc6299db9ec823/memchr-2.2.0/src/fallback.rs:295
    while ptr < end_ptr {
 2f4:	e7ff      	b.n	2f6 <_ZN6memchr8fallback7memchr317ha1ea4d89eedcd839E+0x2f6>
 2f6:	985b      	ldr	r0, [sp, #364]	; 0x16c
 2f8:	995a      	ldr	r1, [sp, #360]	; 0x168
 2fa:	4288      	cmp	r0, r1
 2fc:	d303      	bcc.n	306 <_ZN6memchr8fallback7memchr317ha1ea4d89eedcd839E+0x306>
 2fe:	e7ff      	b.n	300 <_ZN6memchr8fallback7memchr317ha1ea4d89eedcd839E+0x300>
 300:	2000      	movs	r0, #0
/Users/Luppy/.cargo/registry/src/github.com-1ecc6299db9ec823/memchr-2.2.0/src/fallback.rs:301
    None
 302:	905c      	str	r0, [sp, #368]	; 0x170
/Users/Luppy/.cargo/registry/src/github.com-1ecc6299db9ec823/memchr-2.2.0/src/fallback.rs:302
}
 304:	e019      	b.n	33a <_ZN6memchr8fallback7memchr317ha1ea4d89eedcd839E+0x33a>
/Users/Luppy/.cargo/registry/src/github.com-1ecc6299db9ec823/memchr-2.2.0/src/fallback.rs:296
        if confirm(*ptr) {
 306:	985b      	ldr	r0, [sp, #364]	; 0x16c
 308:	7800      	ldrb	r0, [r0, #0]
 30a:	f88d 017b 	strb.w	r0, [sp, #379]	; 0x17b
 30e:	f89d 117b 	ldrb.w	r1, [sp, #379]	; 0x17b
 312:	a831      	add	r0, sp, #196	; 0xc4
 314:	f7ff fffe 	bl	0 <_ZN6memchr8fallback7memchr317ha1ea4d89eedcd839E>
 318:	2800      	cmp	r0, #0
 31a:	d008      	beq.n	32e <_ZN6memchr8fallback7memchr317ha1ea4d89eedcd839E+0x32e>
 31c:	e7ff      	b.n	31e <_ZN6memchr8fallback7memchr317ha1ea4d89eedcd839E+0x31e>
/Users/Luppy/.cargo/registry/src/github.com-1ecc6299db9ec823/memchr-2.2.0/src/fallback.rs:297
            return Some(sub(ptr, start_ptr));
 31e:	985b      	ldr	r0, [sp, #364]	; 0x16c
 320:	9959      	ldr	r1, [sp, #356]	; 0x164
 322:	f7ff fffe 	bl	0 <_ZN6memchr8fallback7memchr317ha1ea4d89eedcd839E>
 326:	905d      	str	r0, [sp, #372]	; 0x174
 328:	2001      	movs	r0, #1
 32a:	905c      	str	r0, [sp, #368]	; 0x170
/Users/Luppy/.cargo/registry/src/github.com-1ecc6299db9ec823/memchr-2.2.0/src/fallback.rs:302
}
 32c:	e005      	b.n	33a <_ZN6memchr8fallback7memchr317ha1ea4d89eedcd839E+0x33a>
/Users/Luppy/.cargo/registry/src/github.com-1ecc6299db9ec823/memchr-2.2.0/src/fallback.rs:299
        ptr = ptr.offset(1);
 32e:	985b      	ldr	r0, [sp, #364]	; 0x16c
 330:	2101      	movs	r1, #1
 332:	f7ff fffe 	bl	0 <_ZN4core3ptr33_$LT$impl$u20$$BP$const$u20$T$GT$6offset17h1b1bd4fc0c06f6a7E>
 336:	905b      	str	r0, [sp, #364]	; 0x16c
/Users/Luppy/.cargo/registry/src/github.com-1ecc6299db9ec823/memchr-2.2.0/src/fallback.rs:295
    while ptr < end_ptr {
 338:	e7dd      	b.n	2f6 <_ZN6memchr8fallback7memchr317ha1ea4d89eedcd839E+0x2f6>
/Users/Luppy/.cargo/registry/src/github.com-1ecc6299db9ec823/memchr-2.2.0/src/fallback.rs:302
}
 33a:	985c      	ldr	r0, [sp, #368]	; 0x170
 33c:	995d      	ldr	r1, [sp, #372]	; 0x174
_ZN6memchr8fallback7memchr317ha1ea4d89eedcd839E():
/Users/Luppy/.cargo/registry/src/github.com-1ecc6299db9ec823/memchr-2.2.0/src/fallback.rs:144
            return forward_search(start_ptr, end_ptr, ptr, confirm);
 33e:	911f      	str	r1, [sp, #124]	; 0x7c
 340:	901e      	str	r0, [sp, #120]	; 0x78
 342:	e7ff      	b.n	344 <_ZN6memchr8fallback7memchr317ha1ea4d89eedcd839E+0x344>
 344:	e74b      	b.n	1de <_ZN6memchr8fallback7memchr317ha1ea4d89eedcd839E+0x1de>
/Users/Luppy/.cargo/registry/src/github.com-1ecc6299db9ec823/memchr-2.2.0/src/fallback.rs:147
        ptr = ptr_add(ptr, USIZE_BYTES - (start_ptr as usize & align));
 346:	982a      	ldr	r0, [sp, #168]	; 0xa8
 348:	9927      	ldr	r1, [sp, #156]	; 0x9c
 34a:	9a26      	ldr	r2, [sp, #152]	; 0x98
 34c:	4011      	ands	r1, r2
 34e:	f1c1 0204 	rsb	r2, r1, #4
 352:	2304      	movs	r3, #4
 354:	428b      	cmp	r3, r1
 356:	900c      	str	r0, [sp, #48]	; 0x30
 358:	920b      	str	r2, [sp, #44]	; 0x2c
 35a:	f0c0 8160 	bcc.w	61e <_ZN6memchr8fallback7memchr317ha1ea4d89eedcd839E+0x61e>
 35e:	e7ff      	b.n	360 <_ZN6memchr8fallback7memchr317ha1ea4d89eedcd839E+0x360>
 360:	980c      	ldr	r0, [sp, #48]	; 0x30
 362:	990b      	ldr	r1, [sp, #44]	; 0x2c
 364:	f7ff fffe 	bl	0 <_ZN6memchr8fallback7memchr317ha1ea4d89eedcd839E>
 368:	900a      	str	r0, [sp, #40]	; 0x28
 36a:	e7ff      	b.n	36c <_ZN6memchr8fallback7memchr317ha1ea4d89eedcd839E+0x36c>
 36c:	980a      	ldr	r0, [sp, #40]	; 0x28
 36e:	902a      	str	r0, [sp, #168]	; 0xa8
 370:	2100      	movs	r1, #0
/Users/Luppy/.cargo/registry/src/github.com-1ecc6299db9ec823/memchr-2.2.0/src/fallback.rs:148
        debug_assert!(ptr > start_ptr);
 372:	2900      	cmp	r1, #0
 374:	d10d      	bne.n	392 <_ZN6memchr8fallback7memchr317ha1ea4d89eedcd839E+0x392>
 376:	e7ff      	b.n	378 <_ZN6memchr8fallback7memchr317ha1ea4d89eedcd839E+0x378>
 378:	982a      	ldr	r0, [sp, #168]	; 0xa8
 37a:	9927      	ldr	r1, [sp, #156]	; 0x9c
 37c:	4288      	cmp	r0, r1
 37e:	d807      	bhi.n	390 <_ZN6memchr8fallback7memchr317ha1ea4d89eedcd839E+0x390>
 380:	e7ff      	b.n	382 <_ZN6memchr8fallback7memchr317ha1ea4d89eedcd839E+0x382>
 382:	f240 0000 	movw	r0, #0
 386:	f2c0 0000 	movt	r0, #0
 38a:	f7ff fffe 	bl	0 <_ZN4core9panicking5panic17h53ca63c6ac6312f8E>
 38e:	defe      	udf	#254	; 0xfe
 390:	e7ff      	b.n	392 <_ZN6memchr8fallback7memchr317ha1ea4d89eedcd839E+0x392>
 392:	2000      	movs	r0, #0
/Users/Luppy/.cargo/registry/src/github.com-1ecc6299db9ec823/memchr-2.2.0/src/fallback.rs:149
        debug_assert!(ptr_sub(end_ptr, USIZE_BYTES) >= start_ptr);
 394:	2800      	cmp	r0, #0
 396:	d113      	bne.n	3c0 <_ZN6memchr8fallback7memchr317ha1ea4d89eedcd839E+0x3c0>
 398:	e7ff      	b.n	39a <_ZN6memchr8fallback7memchr317ha1ea4d89eedcd839E+0x39a>
 39a:	9828      	ldr	r0, [sp, #160]	; 0xa0
 39c:	2104      	movs	r1, #4
 39e:	f7ff fffe 	bl	0 <_ZN6memchr8fallback7memchr317ha1ea4d89eedcd839E>
 3a2:	9009      	str	r0, [sp, #36]	; 0x24
 3a4:	e7ff      	b.n	3a6 <_ZN6memchr8fallback7memchr317ha1ea4d89eedcd839E+0x3a6>
 3a6:	9827      	ldr	r0, [sp, #156]	; 0x9c
 3a8:	9909      	ldr	r1, [sp, #36]	; 0x24
 3aa:	4281      	cmp	r1, r0
 3ac:	d207      	bcs.n	3be <_ZN6memchr8fallback7memchr317ha1ea4d89eedcd839E+0x3be>
 3ae:	e7ff      	b.n	3b0 <_ZN6memchr8fallback7memchr317ha1ea4d89eedcd839E+0x3b0>
 3b0:	f240 0000 	movw	r0, #0
 3b4:	f2c0 0000 	movt	r0, #0
 3b8:	f7ff fffe 	bl	0 <_ZN4core9panicking5panic17h53ca63c6ac6312f8E>
 3bc:	defe      	udf	#254	; 0xfe
 3be:	e7ff      	b.n	3c0 <_ZN6memchr8fallback7memchr317ha1ea4d89eedcd839E+0x3c0>
/Users/Luppy/.cargo/registry/src/github.com-1ecc6299db9ec823/memchr-2.2.0/src/fallback.rs:150
        while ptr <= ptr_sub(end_ptr, USIZE_BYTES) {
 3c0:	e7ff      	b.n	3c2 <_ZN6memchr8fallback7memchr317ha1ea4d89eedcd839E+0x3c2>
 3c2:	982a      	ldr	r0, [sp, #168]	; 0xa8
 3c4:	9928      	ldr	r1, [sp, #160]	; 0xa0
 3c6:	2204      	movs	r2, #4
 3c8:	9008      	str	r0, [sp, #32]
 3ca:	4608      	mov	r0, r1
 3cc:	4611      	mov	r1, r2
 3ce:	f7ff fffe 	bl	0 <_ZN6memchr8fallback7memchr317ha1ea4d89eedcd839E>
 3d2:	9007      	str	r0, [sp, #28]
 3d4:	e04f      	b.n	476 <_ZN6memchr8fallback7memchr317ha1ea4d89eedcd839E+0x476>
/Users/Luppy/.cargo/registry/src/github.com-1ecc6299db9ec823/memchr-2.2.0/src/fallback.rs:162
        forward_search(start_ptr, end_ptr, ptr, confirm)
 3d6:	9827      	ldr	r0, [sp, #156]	; 0x9c
 3d8:	9928      	ldr	r1, [sp, #160]	; 0xa0
 3da:	9a2a      	ldr	r2, [sp, #168]	; 0xa8
 3dc:	9b23      	ldr	r3, [sp, #140]	; 0x8c
 3de:	f8dd c090 	ldr.w	ip, [sp, #144]	; 0x90
 3e2:	f8dd e094 	ldr.w	lr, [sp, #148]	; 0x94
 3e6:	f8cd e138 	str.w	lr, [sp, #312]	; 0x138
 3ea:	f8cd c134 	str.w	ip, [sp, #308]	; 0x134
 3ee:	934c      	str	r3, [sp, #304]	; 0x130
 3f0:	905f      	str	r0, [sp, #380]	; 0x17c
 3f2:	9160      	str	r1, [sp, #384]	; 0x180
 3f4:	9261      	str	r2, [sp, #388]	; 0x184
_ZN6memchr8fallback14forward_search17h17e09f09911fae1dE():
/Users/Luppy/.cargo/registry/src/github.com-1ecc6299db9ec823/memchr-2.2.0/src/fallback.rs:292
    debug_assert!(start_ptr <= ptr);
 3f6:	985f      	ldr	r0, [sp, #380]	; 0x17c
 3f8:	9961      	ldr	r1, [sp, #388]	; 0x184
 3fa:	4288      	cmp	r0, r1
 3fc:	d907      	bls.n	40e <_ZN6memchr8fallback7memchr317ha1ea4d89eedcd839E+0x40e>
 3fe:	e7ff      	b.n	400 <_ZN6memchr8fallback7memchr317ha1ea4d89eedcd839E+0x400>
 400:	f240 0000 	movw	r0, #0
 404:	f2c0 0000 	movt	r0, #0
 408:	f7ff fffe 	bl	0 <_ZN4core9panicking5panic17h53ca63c6ac6312f8E>
 40c:	defe      	udf	#254	; 0xfe
/Users/Luppy/.cargo/registry/src/github.com-1ecc6299db9ec823/memchr-2.2.0/src/fallback.rs:293
    debug_assert!(ptr <= end_ptr);
 40e:	9861      	ldr	r0, [sp, #388]	; 0x184
 410:	9960      	ldr	r1, [sp, #384]	; 0x180
 412:	4288      	cmp	r0, r1
 414:	d907      	bls.n	426 <_ZN6memchr8fallback7memchr317ha1ea4d89eedcd839E+0x426>
 416:	e7ff      	b.n	418 <_ZN6memchr8fallback7memchr317ha1ea4d89eedcd839E+0x418>
 418:	f240 0000 	movw	r0, #0
 41c:	f2c0 0000 	movt	r0, #0
 420:	f7ff fffe 	bl	0 <_ZN4core9panicking5panic17h53ca63c6ac6312f8E>
 424:	defe      	udf	#254	; 0xfe
/Users/Luppy/.cargo/registry/src/github.com-1ecc6299db9ec823/memchr-2.2.0/src/fallback.rs:295
    while ptr < end_ptr {
 426:	e7ff      	b.n	428 <_ZN6memchr8fallback7memchr317ha1ea4d89eedcd839E+0x428>
 428:	9861      	ldr	r0, [sp, #388]	; 0x184
 42a:	9960      	ldr	r1, [sp, #384]	; 0x180
 42c:	4288      	cmp	r0, r1
 42e:	d303      	bcc.n	438 <_ZN6memchr8fallback7memchr317ha1ea4d89eedcd839E+0x438>
 430:	e7ff      	b.n	432 <_ZN6memchr8fallback7memchr317ha1ea4d89eedcd839E+0x432>
 432:	2000      	movs	r0, #0
/Users/Luppy/.cargo/registry/src/github.com-1ecc6299db9ec823/memchr-2.2.0/src/fallback.rs:301
    None
 434:	9062      	str	r0, [sp, #392]	; 0x188
/Users/Luppy/.cargo/registry/src/github.com-1ecc6299db9ec823/memchr-2.2.0/src/fallback.rs:302
}
 436:	e019      	b.n	46c <_ZN6memchr8fallback7memchr317ha1ea4d89eedcd839E+0x46c>
/Users/Luppy/.cargo/registry/src/github.com-1ecc6299db9ec823/memchr-2.2.0/src/fallback.rs:296
        if confirm(*ptr) {
 438:	9861      	ldr	r0, [sp, #388]	; 0x184
 43a:	7800      	ldrb	r0, [r0, #0]
 43c:	f88d 0193 	strb.w	r0, [sp, #403]	; 0x193
 440:	f89d 1193 	ldrb.w	r1, [sp, #403]	; 0x193
 444:	a84c      	add	r0, sp, #304	; 0x130
 446:	f7ff fffe 	bl	0 <_ZN6memchr8fallback7memchr317ha1ea4d89eedcd839E>
 44a:	2800      	cmp	r0, #0
 44c:	d008      	beq.n	460 <_ZN6memchr8fallback7memchr317ha1ea4d89eedcd839E+0x460>
 44e:	e7ff      	b.n	450 <_ZN6memchr8fallback7memchr317ha1ea4d89eedcd839E+0x450>
/Users/Luppy/.cargo/registry/src/github.com-1ecc6299db9ec823/memchr-2.2.0/src/fallback.rs:297
            return Some(sub(ptr, start_ptr));
 450:	9861      	ldr	r0, [sp, #388]	; 0x184
 452:	995f      	ldr	r1, [sp, #380]	; 0x17c
 454:	f7ff fffe 	bl	0 <_ZN6memchr8fallback7memchr317ha1ea4d89eedcd839E>
 458:	9063      	str	r0, [sp, #396]	; 0x18c
 45a:	2001      	movs	r0, #1
 45c:	9062      	str	r0, [sp, #392]	; 0x188
/Users/Luppy/.cargo/registry/src/github.com-1ecc6299db9ec823/memchr-2.2.0/src/fallback.rs:302
}
 45e:	e005      	b.n	46c <_ZN6memchr8fallback7memchr317ha1ea4d89eedcd839E+0x46c>
/Users/Luppy/.cargo/registry/src/github.com-1ecc6299db9ec823/memchr-2.2.0/src/fallback.rs:299
        ptr = ptr.offset(1);
 460:	9861      	ldr	r0, [sp, #388]	; 0x184
 462:	2101      	movs	r1, #1
 464:	f7ff fffe 	bl	0 <_ZN4core3ptr33_$LT$impl$u20$$BP$const$u20$T$GT$6offset17h1b1bd4fc0c06f6a7E>
 468:	9061      	str	r0, [sp, #388]	; 0x184
/Users/Luppy/.cargo/registry/src/github.com-1ecc6299db9ec823/memchr-2.2.0/src/fallback.rs:295
    while ptr < end_ptr {
 46a:	e7dd      	b.n	428 <_ZN6memchr8fallback7memchr317ha1ea4d89eedcd839E+0x428>
/Users/Luppy/.cargo/registry/src/github.com-1ecc6299db9ec823/memchr-2.2.0/src/fallback.rs:302
}
 46c:	9862      	ldr	r0, [sp, #392]	; 0x188
 46e:	9963      	ldr	r1, [sp, #396]	; 0x18c
_ZN6memchr8fallback7memchr317ha1ea4d89eedcd839E():
/Users/Luppy/.cargo/registry/src/github.com-1ecc6299db9ec823/memchr-2.2.0/src/fallback.rs:162
        forward_search(start_ptr, end_ptr, ptr, confirm)
 470:	911f      	str	r1, [sp, #124]	; 0x7c
 472:	901e      	str	r0, [sp, #120]	; 0x78
 474:	e0cb      	b.n	60e <_ZN6memchr8fallback7memchr317ha1ea4d89eedcd839E+0x60e>
/Users/Luppy/.cargo/registry/src/github.com-1ecc6299db9ec823/memchr-2.2.0/src/fallback.rs:150
        while ptr <= ptr_sub(end_ptr, USIZE_BYTES) {
 476:	9808      	ldr	r0, [sp, #32]
 478:	9907      	ldr	r1, [sp, #28]
 47a:	4288      	cmp	r0, r1
 47c:	d8ab      	bhi.n	3d6 <_ZN6memchr8fallback7memchr317ha1ea4d89eedcd839E+0x3d6>
 47e:	e7ff      	b.n	480 <_ZN6memchr8fallback7memchr317ha1ea4d89eedcd839E+0x480>
 480:	2000      	movs	r0, #0
/Users/Luppy/.cargo/registry/src/github.com-1ecc6299db9ec823/memchr-2.2.0/src/fallback.rs:151
            debug_assert_eq!(0, (ptr as usize) % USIZE_BYTES);
 482:	2800      	cmp	r0, #0
 484:	d159      	bne.n	53a <_ZN6memchr8fallback7memchr317ha1ea4d89eedcd839E+0x53a>
 486:	e7ff      	b.n	488 <_ZN6memchr8fallback7memchr317ha1ea4d89eedcd839E+0x488>
 488:	982a      	ldr	r0, [sp, #168]	; 0xa8
 48a:	9006      	str	r0, [sp, #24]
 48c:	e7ff      	b.n	48e <_ZN6memchr8fallback7memchr317ha1ea4d89eedcd839E+0x48e>
 48e:	9806      	ldr	r0, [sp, #24]
 490:	f000 0103 	and.w	r1, r0, #3
 494:	9136      	str	r1, [sp, #216]	; 0xd8
 496:	f240 0100 	movw	r1, #0
 49a:	f2c0 0100 	movt	r1, #0
 49e:	9134      	str	r1, [sp, #208]	; 0xd0
 4a0:	a936      	add	r1, sp, #216	; 0xd8
 4a2:	9135      	str	r1, [sp, #212]	; 0xd4
 4a4:	9934      	ldr	r1, [sp, #208]	; 0xd0
 4a6:	9137      	str	r1, [sp, #220]	; 0xdc
 4a8:	9935      	ldr	r1, [sp, #212]	; 0xd4
 4aa:	9138      	str	r1, [sp, #224]	; 0xe0
 4ac:	9937      	ldr	r1, [sp, #220]	; 0xdc
 4ae:	6809      	ldr	r1, [r1, #0]
 4b0:	9a38      	ldr	r2, [sp, #224]	; 0xe0
 4b2:	6812      	ldr	r2, [r2, #0]
 4b4:	4291      	cmp	r1, r2
 4b6:	d016      	beq.n	4e6 <_ZN6memchr8fallback7memchr317ha1ea4d89eedcd839E+0x4e6>
 4b8:	e7ff      	b.n	4ba <_ZN6memchr8fallback7memchr317ha1ea4d89eedcd839E+0x4ba>
 4ba:	9837      	ldr	r0, [sp, #220]	; 0xdc
 4bc:	9045      	str	r0, [sp, #276]	; 0x114
 4be:	9838      	ldr	r0, [sp, #224]	; 0xe0
 4c0:	9046      	str	r0, [sp, #280]	; 0x118
 4c2:	a845      	add	r0, sp, #276	; 0x114
 4c4:	9043      	str	r0, [sp, #268]	; 0x10c
 4c6:	a846      	add	r0, sp, #280	; 0x118
 4c8:	9044      	str	r0, [sp, #272]	; 0x110
 4ca:	9843      	ldr	r0, [sp, #268]	; 0x10c
 4cc:	9047      	str	r0, [sp, #284]	; 0x11c
 4ce:	9844      	ldr	r0, [sp, #272]	; 0x110
 4d0:	9048      	str	r0, [sp, #288]	; 0x120
 4d2:	9847      	ldr	r0, [sp, #284]	; 0x11c
 4d4:	f240 0100 	movw	r1, #0
 4d8:	f2c0 0100 	movt	r1, #0
 4dc:	f7ff fffe 	bl	0 <_ZN4core3fmt10ArgumentV13new17he7aeb924cd1c8272E>
 4e0:	9005      	str	r0, [sp, #20]
 4e2:	9104      	str	r1, [sp, #16]
 4e4:	e000      	b.n	4e8 <_ZN6memchr8fallback7memchr317ha1ea4d89eedcd839E+0x4e8>
 4e6:	e028      	b.n	53a <_ZN6memchr8fallback7memchr317ha1ea4d89eedcd839E+0x53a>
 4e8:	9848      	ldr	r0, [sp, #288]	; 0x120
 4ea:	f240 0100 	movw	r1, #0
 4ee:	f2c0 0100 	movt	r1, #0
 4f2:	f7ff fffe 	bl	0 <_ZN4core3fmt10ArgumentV13new17he7aeb924cd1c8272E>
 4f6:	9003      	str	r0, [sp, #12]
 4f8:	9102      	str	r1, [sp, #8]
 4fa:	e7ff      	b.n	4fc <_ZN6memchr8fallback7memchr317ha1ea4d89eedcd839E+0x4fc>
 4fc:	9805      	ldr	r0, [sp, #20]
 4fe:	903f      	str	r0, [sp, #252]	; 0xfc
 500:	9904      	ldr	r1, [sp, #16]
 502:	9140      	str	r1, [sp, #256]	; 0x100
 504:	9a03      	ldr	r2, [sp, #12]
 506:	9241      	str	r2, [sp, #260]	; 0x104
 508:	9b02      	ldr	r3, [sp, #8]
 50a:	9342      	str	r3, [sp, #264]	; 0x108
 50c:	46ec      	mov	ip, sp
 50e:	f04f 0e02 	mov.w	lr, #2
 512:	f8cc e000 	str.w	lr, [ip]
 516:	f240 0100 	movw	r1, #0
 51a:	f2c0 0100 	movt	r1, #0
 51e:	a839      	add	r0, sp, #228	; 0xe4
 520:	2203      	movs	r2, #3
 522:	ab3f      	add	r3, sp, #252	; 0xfc
 524:	f7ff fffe 	bl	0 <_ZN4core3fmt9Arguments6new_v117h97fab7064a36d1a4E>
 528:	e7ff      	b.n	2 <_ZN6memchr8fallback7memchr317ha1ea4d89eedcd839E+0x2>
 52a:	f240 0100 	movw	r1, #0
 52e:	f2c0 0100 	movt	r1, #0
 532:	a839      	add	r0, sp, #228	; 0xe4
 534:	f7ff fffe 	bl	0 <_ZN4core9panicking9panic_fmt17h6b4d8e87b0965449E>
 538:	defe      	udf	#254	; 0xfe
/Users/Luppy/.cargo/registry/src/github.com-1ecc6299db9ec823/memchr-2.2.0/src/fallback.rs:153
            let chunk = *(ptr as *const usize);
 53a:	982a      	ldr	r0, [sp, #168]	; 0xa8
 53c:	6800      	ldr	r0, [r0, #0]
 53e:	9049      	str	r0, [sp, #292]	; 0x124
/Users/Luppy/.cargo/registry/src/github.com-1ecc6299db9ec823/memchr-2.2.0/src/fallback.rs:154
            let eq1 = contains_zero_byte(chunk ^ vn1);
 540:	9849      	ldr	r0, [sp, #292]	; 0x124
 542:	9920      	ldr	r1, [sp, #128]	; 0x80
 544:	4048      	eors	r0, r1
 546:	9065      	str	r0, [sp, #404]	; 0x194
_ZN6memchr8fallback18contains_zero_byte17hcf05c92d2c728c95E():
/Users/Luppy/.cargo/registry/src/github.com-1ecc6299db9ec823/memchr-2.2.0/src/fallback.rs:33
    x.wrapping_sub(LO_USIZE) & !x & HI_USIZE != 0
 548:	9865      	ldr	r0, [sp, #404]	; 0x194
 54a:	f04f 3101 	mov.w	r1, #16843009	; 0x1010101
 54e:	f7ff fffe 	bl	0 <_ZN4core3num23_$LT$impl$u20$usize$GT$12wrapping_sub17h049a26b7a4ff5318E>
 552:	9965      	ldr	r1, [sp, #404]	; 0x194
 554:	4388      	bics	r0, r1
 556:	f020 307f 	bic.w	r0, r0, #2139062143	; 0x7f7f7f7f
 55a:	2800      	cmp	r0, #0
 55c:	bf18      	it	ne
 55e:	2001      	movne	r0, #1
_ZN6memchr8fallback7memchr317ha1ea4d89eedcd839E():
/Users/Luppy/.cargo/registry/src/github.com-1ecc6299db9ec823/memchr-2.2.0/src/fallback.rs:154
            let eq1 = contains_zero_byte(chunk ^ vn1);
 560:	f88d 012b 	strb.w	r0, [sp, #299]	; 0x12b
 564:	e7ff      	b.n	566 <_ZN6memchr8fallback7memchr317ha1ea4d89eedcd839E+0x566>
/Users/Luppy/.cargo/registry/src/github.com-1ecc6299db9ec823/memchr-2.2.0/src/fallback.rs:155
            let eq2 = contains_zero_byte(chunk ^ vn2);
 566:	9849      	ldr	r0, [sp, #292]	; 0x124
 568:	9921      	ldr	r1, [sp, #132]	; 0x84
 56a:	4048      	eors	r0, r1
 56c:	9066      	str	r0, [sp, #408]	; 0x198
_ZN6memchr8fallback18contains_zero_byte17hcf05c92d2c728c95E():
/Users/Luppy/.cargo/registry/src/github.com-1ecc6299db9ec823/memchr-2.2.0/src/fallback.rs:33
    x.wrapping_sub(LO_USIZE) & !x & HI_USIZE != 0
 56e:	9866      	ldr	r0, [sp, #408]	; 0x198
 570:	f04f 3101 	mov.w	r1, #16843009	; 0x1010101
 574:	f7ff fffe 	bl	0 <_ZN4core3num23_$LT$impl$u20$usize$GT$12wrapping_sub17h049a26b7a4ff5318E>
 578:	9966      	ldr	r1, [sp, #408]	; 0x198
 57a:	4388      	bics	r0, r1
 57c:	f020 307f 	bic.w	r0, r0, #2139062143	; 0x7f7f7f7f
 580:	2800      	cmp	r0, #0
 582:	bf18      	it	ne
 584:	2001      	movne	r0, #1
_ZN6memchr8fallback7memchr317ha1ea4d89eedcd839E():
/Users/Luppy/.cargo/registry/src/github.com-1ecc6299db9ec823/memchr-2.2.0/src/fallback.rs:155
            let eq2 = contains_zero_byte(chunk ^ vn2);
 586:	f88d 012c 	strb.w	r0, [sp, #300]	; 0x12c
 58a:	e7ff      	b.n	58c <_ZN6memchr8fallback7memchr317ha1ea4d89eedcd839E+0x58c>
/Users/Luppy/.cargo/registry/src/github.com-1ecc6299db9ec823/memchr-2.2.0/src/fallback.rs:156
            let eq3 = contains_zero_byte(chunk ^ vn3);
 58c:	9849      	ldr	r0, [sp, #292]	; 0x124
 58e:	9922      	ldr	r1, [sp, #136]	; 0x88
 590:	4048      	eors	r0, r1
 592:	9067      	str	r0, [sp, #412]	; 0x19c
_ZN6memchr8fallback18contains_zero_byte17hcf05c92d2c728c95E():
/Users/Luppy/.cargo/registry/src/github.com-1ecc6299db9ec823/memchr-2.2.0/src/fallback.rs:33
    x.wrapping_sub(LO_USIZE) & !x & HI_USIZE != 0
 594:	9867      	ldr	r0, [sp, #412]	; 0x19c
 596:	f04f 3101 	mov.w	r1, #16843009	; 0x1010101
 59a:	f7ff fffe 	bl	0 <_ZN4core3num23_$LT$impl$u20$usize$GT$12wrapping_sub17h049a26b7a4ff5318E>
 59e:	9967      	ldr	r1, [sp, #412]	; 0x19c
 5a0:	4388      	bics	r0, r1
 5a2:	f020 307f 	bic.w	r0, r0, #2139062143	; 0x7f7f7f7f
 5a6:	2800      	cmp	r0, #0
 5a8:	bf18      	it	ne
 5aa:	2001      	movne	r0, #1
_ZN6memchr8fallback7memchr317ha1ea4d89eedcd839E():
/Users/Luppy/.cargo/registry/src/github.com-1ecc6299db9ec823/memchr-2.2.0/src/fallback.rs:156
            let eq3 = contains_zero_byte(chunk ^ vn3);
 5ac:	f88d 012d 	strb.w	r0, [sp, #301]	; 0x12d
 5b0:	e7ff      	b.n	5b2 <_ZN6memchr8fallback7memchr317ha1ea4d89eedcd839E+0x5b2>
/Users/Luppy/.cargo/registry/src/github.com-1ecc6299db9ec823/memchr-2.2.0/src/fallback.rs:157
            if eq1 || eq2 || eq3 {
 5b2:	f89d 012b 	ldrb.w	r0, [sp, #299]	; 0x12b
 5b6:	07c0      	lsls	r0, r0, #31
 5b8:	2800      	cmp	r0, #0
 5ba:	d10f      	bne.n	5dc <_ZN6memchr8fallback7memchr317ha1ea4d89eedcd839E+0x5dc>
 5bc:	e012      	b.n	5e4 <_ZN6memchr8fallback7memchr317ha1ea4d89eedcd839E+0x5e4>
 5be:	2001      	movs	r0, #1
 5c0:	f88d 012e 	strb.w	r0, [sp, #302]	; 0x12e
 5c4:	e004      	b.n	5d0 <_ZN6memchr8fallback7memchr317ha1ea4d89eedcd839E+0x5d0>
 5c6:	f89d 012d 	ldrb.w	r0, [sp, #301]	; 0x12d
 5ca:	f88d 012e 	strb.w	r0, [sp, #302]	; 0x12e
 5ce:	e7ff      	b.n	5d0 <_ZN6memchr8fallback7memchr317ha1ea4d89eedcd839E+0x5d0>
 5d0:	f89d 012e 	ldrb.w	r0, [sp, #302]	; 0x12e
 5d4:	07c0      	lsls	r0, r0, #31
 5d6:	2800      	cmp	r0, #0
 5d8:	d10f      	bne.n	5fa <_ZN6memchr8fallback7memchr317ha1ea4d89eedcd839E+0x5fa>
 5da:	e00f      	b.n	5fc <_ZN6memchr8fallback7memchr317ha1ea4d89eedcd839E+0x5fc>
 5dc:	2001      	movs	r0, #1
 5de:	f88d 012f 	strb.w	r0, [sp, #303]	; 0x12f
 5e2:	e004      	b.n	5ee <_ZN6memchr8fallback7memchr317ha1ea4d89eedcd839E+0x5ee>
 5e4:	f89d 012c 	ldrb.w	r0, [sp, #300]	; 0x12c
 5e8:	f88d 012f 	strb.w	r0, [sp, #303]	; 0x12f
 5ec:	e7ff      	b.n	5ee <_ZN6memchr8fallback7memchr317ha1ea4d89eedcd839E+0x5ee>
 5ee:	f89d 012f 	ldrb.w	r0, [sp, #303]	; 0x12f
 5f2:	07c0      	lsls	r0, r0, #31
 5f4:	2800      	cmp	r0, #0
 5f6:	d1e2      	bne.n	5be <_ZN6memchr8fallback7memchr317ha1ea4d89eedcd839E+0x5be>
 5f8:	e7e5      	b.n	5c6 <_ZN6memchr8fallback7memchr317ha1ea4d89eedcd839E+0x5c6>
/Users/Luppy/.cargo/registry/src/github.com-1ecc6299db9ec823/memchr-2.2.0/src/fallback.rs:158
                break;
 5fa:	e6ec      	b.n	3d6 <_ZN6memchr8fallback7memchr317ha1ea4d89eedcd839E+0x3d6>
/Users/Luppy/.cargo/registry/src/github.com-1ecc6299db9ec823/memchr-2.2.0/src/fallback.rs:160
            ptr = ptr_add(ptr, USIZE_BYTES);
 5fc:	982a      	ldr	r0, [sp, #168]	; 0xa8
 5fe:	2104      	movs	r1, #4
 600:	f7ff fffe 	bl	0 <_ZN6memchr8fallback7memchr317ha1ea4d89eedcd839E>
 604:	9001      	str	r0, [sp, #4]
 606:	e7ff      	b.n	608 <_ZN6memchr8fallback7memchr317ha1ea4d89eedcd839E+0x608>
 608:	9801      	ldr	r0, [sp, #4]
 60a:	902a      	str	r0, [sp, #168]	; 0xa8
/Users/Luppy/.cargo/registry/src/github.com-1ecc6299db9ec823/memchr-2.2.0/src/fallback.rs:150
        while ptr <= ptr_sub(end_ptr, USIZE_BYTES) {
 60c:	e6d9      	b.n	3c2 <_ZN6memchr8fallback7memchr317ha1ea4d89eedcd839E+0x3c2>
/Users/Luppy/.cargo/registry/src/github.com-1ecc6299db9ec823/memchr-2.2.0/src/fallback.rs:164
}
 60e:	e5e2      	b.n	1d6 <_ZN6memchr8fallback7memchr317ha1ea4d89eedcd839E+0x1d6>
/Users/Luppy/.cargo/registry/src/github.com-1ecc6299db9ec823/memchr-2.2.0/src/fallback.rs:129
    let align = USIZE_BYTES - 1;
 610:	f240 0000 	movw	r0, #0
 614:	f2c0 0000 	movt	r0, #0
 618:	f7ff fffe 	bl	0 <_ZN4core9panicking5panic17h53ca63c6ac6312f8E>
 61c:	defe      	udf	#254	; 0xfe
/Users/Luppy/.cargo/registry/src/github.com-1ecc6299db9ec823/memchr-2.2.0/src/fallback.rs:147
        ptr = ptr_add(ptr, USIZE_BYTES - (start_ptr as usize & align));
 61e:	f240 0000 	movw	r0, #0
 622:	f2c0 0000 	movt	r0, #0
 626:	f7ff fffe 	bl	0 <_ZN4core9panicking5panic17h53ca63c6ac6312f8E>
 62a:	defe      	udf	#254	; 0xfe

Disassembly of section .text._ZN6memchr8fallback7memchr328_$u7b$$u7b$closure$u7d$$u7d$17h8494d1b67f0187c7E:

00000000 <_ZN6memchr8fallback7memchr328_$u7b$$u7b$closure$u7d$$u7d$17h8494d1b67f0187c7E>:
_ZN6memchr8fallback7memchr328_$u7b$$u7b$closure$u7d$$u7d$17h8494d1b67f0187c7E():
/Users/Luppy/.cargo/registry/src/github.com-1ecc6299db9ec823/memchr-2.2.0/src/fallback.rs:128
    let confirm = |byte| byte == n1 || byte == n2 || byte == n3;
   0:	b084      	sub	sp, #16
   2:	460a      	mov	r2, r1
   4:	4603      	mov	r3, r0
   6:	9002      	str	r0, [sp, #8]
   8:	f88d 100d 	strb.w	r1, [sp, #13]
   c:	f89d 000d 	ldrb.w	r0, [sp, #13]
  10:	9902      	ldr	r1, [sp, #8]
  12:	6809      	ldr	r1, [r1, #0]
  14:	7809      	ldrb	r1, [r1, #0]
  16:	4288      	cmp	r0, r1
  18:	9201      	str	r2, [sp, #4]
  1a:	9300      	str	r3, [sp, #0]
  1c:	d014      	beq.n	48 <_ZN6memchr8fallback7memchr328_$u7b$$u7b$closure$u7d$$u7d$17h8494d1b67f0187c7E+0x48>
  1e:	e017      	b.n	50 <_ZN6memchr8fallback7memchr328_$u7b$$u7b$closure$u7d$$u7d$17h8494d1b67f0187c7E+0x50>
  20:	2001      	movs	r0, #1
  22:	f88d 000e 	strb.w	r0, [sp, #14]
  26:	e00b      	b.n	40 <_ZN6memchr8fallback7memchr328_$u7b$$u7b$closure$u7d$$u7d$17h8494d1b67f0187c7E+0x40>
  28:	f89d 000d 	ldrb.w	r0, [sp, #13]
  2c:	9902      	ldr	r1, [sp, #8]
  2e:	6889      	ldr	r1, [r1, #8]
  30:	7809      	ldrb	r1, [r1, #0]
  32:	1a40      	subs	r0, r0, r1
  34:	fab0 f080 	clz	r0, r0
  38:	0940      	lsrs	r0, r0, #5
  3a:	f88d 000e 	strb.w	r0, [sp, #14]
  3e:	e7ff      	b.n	40 <_ZN6memchr8fallback7memchr328_$u7b$$u7b$closure$u7d$$u7d$17h8494d1b67f0187c7E+0x40>
  40:	f89d 000e 	ldrb.w	r0, [sp, #14]
  44:	b004      	add	sp, #16
  46:	4770      	bx	lr
  48:	2001      	movs	r0, #1
  4a:	f88d 000f 	strb.w	r0, [sp, #15]
  4e:	e00b      	b.n	68 <_ZN6memchr8fallback7memchr328_$u7b$$u7b$closure$u7d$$u7d$17h8494d1b67f0187c7E+0x68>
  50:	f89d 000d 	ldrb.w	r0, [sp, #13]
  54:	9902      	ldr	r1, [sp, #8]
  56:	6849      	ldr	r1, [r1, #4]
  58:	7809      	ldrb	r1, [r1, #0]
  5a:	1a40      	subs	r0, r0, r1
  5c:	fab0 f080 	clz	r0, r0
  60:	0940      	lsrs	r0, r0, #5
  62:	f88d 000f 	strb.w	r0, [sp, #15]
  66:	e7ff      	b.n	68 <_ZN6memchr8fallback7memchr328_$u7b$$u7b$closure$u7d$$u7d$17h8494d1b67f0187c7E+0x68>
  68:	f89d 000f 	ldrb.w	r0, [sp, #15]
  6c:	07c0      	lsls	r0, r0, #31
  6e:	2800      	cmp	r0, #0
  70:	d1d6      	bne.n	20 <_ZN6memchr8fallback7memchr328_$u7b$$u7b$closure$u7d$$u7d$17h8494d1b67f0187c7E+0x20>
  72:	e7d9      	b.n	28 <_ZN6memchr8fallback7memchr328_$u7b$$u7b$closure$u7d$$u7d$17h8494d1b67f0187c7E+0x28>

Disassembly of section .text._ZN6memchr8fallback7memrchr17hc9eb9e2e20e7630bE:

00000000 <_ZN6memchr8fallback7memrchr17hc9eb9e2e20e7630bE>:
_ZN6memchr8fallback7memrchr17hc9eb9e2e20e7630bE():
/Users/Luppy/.cargo/registry/src/github.com-1ecc6299db9ec823/memchr-2.2.0/src/fallback.rs:167
pub fn memrchr(n1: u8, haystack: &[u8]) -> Option<usize> {
   0:	b580      	push	{r7, lr}
   2:	b0dc      	sub	sp, #368	; 0x170
   4:	4613      	mov	r3, r2
   6:	468c      	mov	ip, r1
   8:	4686      	mov	lr, r0
   a:	f88d 0077 	strb.w	r0, [sp, #119]	; 0x77
   e:	911e      	str	r1, [sp, #120]	; 0x78
  10:	921f      	str	r2, [sp, #124]	; 0x7c
/Users/Luppy/.cargo/registry/src/github.com-1ecc6299db9ec823/memchr-2.2.0/src/fallback.rs:168
    let vn1 = repeat_byte(n1);
  12:	f89d 0077 	ldrb.w	r0, [sp, #119]	; 0x77
  16:	f88d 010f 	strb.w	r0, [sp, #271]	; 0x10f
_ZN6memchr8fallback11repeat_byte17h6374a9c8a738a5e1E():
/Users/Luppy/.cargo/registry/src/github.com-1ecc6299db9ec823/memchr-2.2.0/src/fallback.rs:42
    (b as usize) * (usize::MAX / 255)
  1a:	f89d 010f 	ldrb.w	r0, [sp, #271]	; 0x10f
  1e:	f04f 3101 	mov.w	r1, #16843009	; 0x1010101
  22:	fba0 0101 	umull	r0, r1, r0, r1
  26:	2900      	cmp	r1, #0
  28:	931c      	str	r3, [sp, #112]	; 0x70
  2a:	f8cd c06c 	str.w	ip, [sp, #108]	; 0x6c
  2e:	f8cd e068 	str.w	lr, [sp, #104]	; 0x68
  32:	9019      	str	r0, [sp, #100]	; 0x64
  34:	d007      	beq.n	46 <_ZN6memchr8fallback7memrchr17hc9eb9e2e20e7630bE+0x46>
  36:	e7ff      	b.n	38 <_ZN6memchr8fallback7memrchr17hc9eb9e2e20e7630bE+0x38>
  38:	f240 0000 	movw	r0, #0
  3c:	f2c0 0000 	movt	r0, #0
  40:	f7ff fffe 	bl	0 <_ZN4core9panicking5panic17h53ca63c6ac6312f8E>
  44:	defe      	udf	#254	; 0xfe
_ZN6memchr8fallback7memrchr17hc9eb9e2e20e7630bE():
/Users/Luppy/.cargo/registry/src/github.com-1ecc6299db9ec823/memchr-2.2.0/src/fallback.rs:168
    let vn1 = repeat_byte(n1);
  46:	9819      	ldr	r0, [sp, #100]	; 0x64
  48:	9022      	str	r0, [sp, #136]	; 0x88
  4a:	e7ff      	b.n	4c <_ZN6memchr8fallback7memrchr17hc9eb9e2e20e7630bE+0x4c>
  4c:	f10d 0077 	add.w	r0, sp, #119	; 0x77
/Users/Luppy/.cargo/registry/src/github.com-1ecc6299db9ec823/memchr-2.2.0/src/fallback.rs:169
    let confirm = |byte| byte == n1;
  50:	9023      	str	r0, [sp, #140]	; 0x8c
/Users/Luppy/.cargo/registry/src/github.com-1ecc6299db9ec823/memchr-2.2.0/src/fallback.rs:170
    let loop_size = cmp::min(LOOP_SIZE, haystack.len());
  52:	981e      	ldr	r0, [sp, #120]	; 0x78
  54:	991f      	ldr	r1, [sp, #124]	; 0x7c
  56:	f7ff fffe 	bl	0 <_ZN4core5slice29_$LT$impl$u20$$u5b$T$u5d$$GT$3len17h63f985867d9f263fE>
  5a:	9018      	str	r0, [sp, #96]	; 0x60
  5c:	e7ff      	b.n	5e <_ZN6memchr8fallback7memrchr17hc9eb9e2e20e7630bE+0x5e>
  5e:	2008      	movs	r0, #8
  60:	9918      	ldr	r1, [sp, #96]	; 0x60
  62:	f7ff fffe 	bl	0 <_ZN4core3cmp3min17h092024cef1827f27E>
  66:	9024      	str	r0, [sp, #144]	; 0x90
  68:	e7ff      	b.n	6a <_ZN6memchr8fallback7memrchr17hc9eb9e2e20e7630bE+0x6a>
  6a:	2004      	movs	r0, #4
/Users/Luppy/.cargo/registry/src/github.com-1ecc6299db9ec823/memchr-2.2.0/src/fallback.rs:171
    let align = USIZE_BYTES - 1;
  6c:	1e41      	subs	r1, r0, #1
  6e:	2801      	cmp	r0, #1
  70:	9117      	str	r1, [sp, #92]	; 0x5c
  72:	f0c0 8244 	bcc.w	4fe <_ZN6memchr8fallback7memrchr17hc9eb9e2e20e7630bE+0x4fe>
  76:	e7ff      	b.n	78 <_ZN6memchr8fallback7memrchr17hc9eb9e2e20e7630bE+0x78>
  78:	9817      	ldr	r0, [sp, #92]	; 0x5c
  7a:	9025      	str	r0, [sp, #148]	; 0x94
/Users/Luppy/.cargo/registry/src/github.com-1ecc6299db9ec823/memchr-2.2.0/src/fallback.rs:172
    let start_ptr = haystack.as_ptr();
  7c:	981e      	ldr	r0, [sp, #120]	; 0x78
  7e:	991f      	ldr	r1, [sp, #124]	; 0x7c
  80:	f7ff fffe 	bl	0 <_ZN4core5slice29_$LT$impl$u20$$u5b$T$u5d$$GT$6as_ptr17hd0263209417be61aE>
  84:	9026      	str	r0, [sp, #152]	; 0x98
  86:	e7ff      	b.n	88 <_ZN6memchr8fallback7memrchr17hc9eb9e2e20e7630bE+0x88>
/Users/Luppy/.cargo/registry/src/github.com-1ecc6299db9ec823/memchr-2.2.0/src/fallback.rs:173
    let end_ptr = haystack[haystack.len()..].as_ptr();
  88:	981e      	ldr	r0, [sp, #120]	; 0x78
  8a:	991f      	ldr	r1, [sp, #124]	; 0x7c
  8c:	9016      	str	r0, [sp, #88]	; 0x58
  8e:	9115      	str	r1, [sp, #84]	; 0x54
  90:	f7ff fffe 	bl	0 <_ZN4core5slice29_$LT$impl$u20$$u5b$T$u5d$$GT$3len17h63f985867d9f263fE>
  94:	9014      	str	r0, [sp, #80]	; 0x50
  96:	e7ff      	b.n	98 <_ZN6memchr8fallback7memrchr17hc9eb9e2e20e7630bE+0x98>
  98:	9814      	ldr	r0, [sp, #80]	; 0x50
  9a:	9028      	str	r0, [sp, #160]	; 0xa0
  9c:	9a28      	ldr	r2, [sp, #160]	; 0xa0
  9e:	9816      	ldr	r0, [sp, #88]	; 0x58
  a0:	9915      	ldr	r1, [sp, #84]	; 0x54
  a2:	f7ff fffe 	bl	0 <_ZN4core5slice74_$LT$impl$u20$core..ops..index..Index$LT$I$GT$$u20$for$u20$$u5b$T$u5d$$GT$5index17hf116fad1d92ca796E>
  a6:	9013      	str	r0, [sp, #76]	; 0x4c
  a8:	9112      	str	r1, [sp, #72]	; 0x48
  aa:	e7ff      	b.n	ac <_ZN6memchr8fallback7memrchr17hc9eb9e2e20e7630bE+0xac>
  ac:	9813      	ldr	r0, [sp, #76]	; 0x4c
  ae:	9912      	ldr	r1, [sp, #72]	; 0x48
  b0:	f7ff fffe 	bl	0 <_ZN4core5slice29_$LT$impl$u20$$u5b$T$u5d$$GT$6as_ptr17hd0263209417be61aE>
  b4:	9027      	str	r0, [sp, #156]	; 0x9c
  b6:	e7ff      	b.n	b8 <_ZN6memchr8fallback7memrchr17hc9eb9e2e20e7630bE+0xb8>
/Users/Luppy/.cargo/registry/src/github.com-1ecc6299db9ec823/memchr-2.2.0/src/fallback.rs:174
    let mut ptr = end_ptr;
  b8:	9827      	ldr	r0, [sp, #156]	; 0x9c
  ba:	9029      	str	r0, [sp, #164]	; 0xa4
/Users/Luppy/.cargo/registry/src/github.com-1ecc6299db9ec823/memchr-2.2.0/src/fallback.rs:177
        if haystack.len() < USIZE_BYTES {
  bc:	981e      	ldr	r0, [sp, #120]	; 0x78
  be:	991f      	ldr	r1, [sp, #124]	; 0x7c
  c0:	f7ff fffe 	bl	0 <_ZN4core5slice29_$LT$impl$u20$$u5b$T$u5d$$GT$3len17h63f985867d9f263fE>
  c4:	9011      	str	r0, [sp, #68]	; 0x44
  c6:	e7ff      	b.n	c8 <_ZN6memchr8fallback7memrchr17hc9eb9e2e20e7630bE+0xc8>
  c8:	9811      	ldr	r0, [sp, #68]	; 0x44
  ca:	2803      	cmp	r0, #3
  cc:	d84f      	bhi.n	16e <_ZN6memchr8fallback7memrchr17hc9eb9e2e20e7630bE+0x16e>
  ce:	e7ff      	b.n	d0 <_ZN6memchr8fallback7memrchr17hc9eb9e2e20e7630bE+0xd0>
/Users/Luppy/.cargo/registry/src/github.com-1ecc6299db9ec823/memchr-2.2.0/src/fallback.rs:178
            return reverse_search(start_ptr, end_ptr, ptr, confirm);
  d0:	9826      	ldr	r0, [sp, #152]	; 0x98
  d2:	9927      	ldr	r1, [sp, #156]	; 0x9c
  d4:	9a29      	ldr	r2, [sp, #164]	; 0xa4
  d6:	9b23      	ldr	r3, [sp, #140]	; 0x8c
  d8:	9044      	str	r0, [sp, #272]	; 0x110
  da:	9145      	str	r1, [sp, #276]	; 0x114
  dc:	9246      	str	r2, [sp, #280]	; 0x118
  de:	9347      	str	r3, [sp, #284]	; 0x11c
_ZN6memchr8fallback14reverse_search17hfad8306b895a730dE():
/Users/Luppy/.cargo/registry/src/github.com-1ecc6299db9ec823/memchr-2.2.0/src/fallback.rs:311
    start_ptr: *const u8,
    end_ptr: *const u8,
    mut ptr: *const u8,
    confirm: F,
) -> Option<usize> {
    debug_assert!(start_ptr <= ptr);
  e0:	9844      	ldr	r0, [sp, #272]	; 0x110
  e2:	9946      	ldr	r1, [sp, #280]	; 0x118
  e4:	4288      	cmp	r0, r1
  e6:	d907      	bls.n	f8 <_ZN6memchr8fallback7memrchr17hc9eb9e2e20e7630bE+0xf8>
  e8:	e7ff      	b.n	ea <_ZN6memchr8fallback7memrchr17hc9eb9e2e20e7630bE+0xea>
  ea:	f240 0000 	movw	r0, #0
  ee:	f2c0 0000 	movt	r0, #0
  f2:	f7ff fffe 	bl	0 <_ZN4core9panicking5panic17h53ca63c6ac6312f8E>
  f6:	defe      	udf	#254	; 0xfe
/Users/Luppy/.cargo/registry/src/github.com-1ecc6299db9ec823/memchr-2.2.0/src/fallback.rs:312
    debug_assert!(ptr <= end_ptr);
  f8:	9846      	ldr	r0, [sp, #280]	; 0x118
  fa:	9945      	ldr	r1, [sp, #276]	; 0x114
  fc:	4288      	cmp	r0, r1
  fe:	d907      	bls.n	110 <_ZN6memchr8fallback7memrchr17hc9eb9e2e20e7630bE+0x110>
 100:	e7ff      	b.n	102 <_ZN6memchr8fallback7memrchr17hc9eb9e2e20e7630bE+0x102>
 102:	f240 0000 	movw	r0, #0
 106:	f2c0 0000 	movt	r0, #0
 10a:	f7ff fffe 	bl	0 <_ZN4core9panicking5panic17h53ca63c6ac6312f8E>
 10e:	defe      	udf	#254	; 0xfe
/Users/Luppy/.cargo/registry/src/github.com-1ecc6299db9ec823/memchr-2.2.0/src/fallback.rs:314

    while ptr > start_ptr {
 110:	e7ff      	b.n	112 <_ZN6memchr8fallback7memrchr17hc9eb9e2e20e7630bE+0x112>
 112:	9846      	ldr	r0, [sp, #280]	; 0x118
 114:	9944      	ldr	r1, [sp, #272]	; 0x110
 116:	4288      	cmp	r0, r1
 118:	d803      	bhi.n	122 <_ZN6memchr8fallback7memrchr17hc9eb9e2e20e7630bE+0x122>
 11a:	e7ff      	b.n	11c <_ZN6memchr8fallback7memrchr17hc9eb9e2e20e7630bE+0x11c>
 11c:	2000      	movs	r0, #0
/Users/Luppy/.cargo/registry/src/github.com-1ecc6299db9ec823/memchr-2.2.0/src/fallback.rs:320
        ptr = ptr.offset(-1);
        if confirm(*ptr) {
            return Some(sub(ptr, start_ptr));
        }
    }
    None
 11e:	9048      	str	r0, [sp, #288]	; 0x120
/Users/Luppy/.cargo/registry/src/github.com-1ecc6299db9ec823/memchr-2.2.0/src/fallback.rs:321
}
 120:	e01a      	b.n	158 <_ZN6memchr8fallback7memrchr17hc9eb9e2e20e7630bE+0x158>
/Users/Luppy/.cargo/registry/src/github.com-1ecc6299db9ec823/memchr-2.2.0/src/fallback.rs:315
        ptr = ptr.offset(-1);
 122:	9846      	ldr	r0, [sp, #280]	; 0x118
 124:	f04f 31ff 	mov.w	r1, #4294967295	; 0xffffffff
 128:	f7ff fffe 	bl	0 <_ZN4core3ptr33_$LT$impl$u20$$BP$const$u20$T$GT$6offset17h1b1bd4fc0c06f6a7E>
 12c:	9046      	str	r0, [sp, #280]	; 0x118
/Users/Luppy/.cargo/registry/src/github.com-1ecc6299db9ec823/memchr-2.2.0/src/fallback.rs:316
        if confirm(*ptr) {
 12e:	9846      	ldr	r0, [sp, #280]	; 0x118
 130:	7800      	ldrb	r0, [r0, #0]
 132:	f88d 012b 	strb.w	r0, [sp, #299]	; 0x12b
 136:	f89d 112b 	ldrb.w	r1, [sp, #299]	; 0x12b
 13a:	a847      	add	r0, sp, #284	; 0x11c
 13c:	f7ff fffe 	bl	0 <_ZN6memchr8fallback7memrchr17hc9eb9e2e20e7630bE>
 140:	2800      	cmp	r0, #0
 142:	d008      	beq.n	156 <_ZN6memchr8fallback7memrchr17hc9eb9e2e20e7630bE+0x156>
 144:	e7ff      	b.n	146 <_ZN6memchr8fallback7memrchr17hc9eb9e2e20e7630bE+0x146>
/Users/Luppy/.cargo/registry/src/github.com-1ecc6299db9ec823/memchr-2.2.0/src/fallback.rs:317
            return Some(sub(ptr, start_ptr));
 146:	9846      	ldr	r0, [sp, #280]	; 0x118
 148:	9944      	ldr	r1, [sp, #272]	; 0x110
 14a:	f7ff fffe 	bl	0 <_ZN6memchr8fallback7memrchr17hc9eb9e2e20e7630bE>
 14e:	9049      	str	r0, [sp, #292]	; 0x124
 150:	2001      	movs	r0, #1
 152:	9048      	str	r0, [sp, #288]	; 0x120
/Users/Luppy/.cargo/registry/src/github.com-1ecc6299db9ec823/memchr-2.2.0/src/fallback.rs:321
}
 154:	e000      	b.n	158 <_ZN6memchr8fallback7memrchr17hc9eb9e2e20e7630bE+0x158>
/Users/Luppy/.cargo/registry/src/github.com-1ecc6299db9ec823/memchr-2.2.0/src/fallback.rs:314
    while ptr > start_ptr {
 156:	e7dc      	b.n	112 <_ZN6memchr8fallback7memrchr17hc9eb9e2e20e7630bE+0x112>
/Users/Luppy/.cargo/registry/src/github.com-1ecc6299db9ec823/memchr-2.2.0/src/fallback.rs:321
}
 158:	9848      	ldr	r0, [sp, #288]	; 0x120
 15a:	9949      	ldr	r1, [sp, #292]	; 0x124
_ZN6memchr8fallback7memrchr17hc9eb9e2e20e7630bE():
/Users/Luppy/.cargo/registry/src/github.com-1ecc6299db9ec823/memchr-2.2.0/src/fallback.rs:178
            return reverse_search(start_ptr, end_ptr, ptr, confirm);
 15c:	9121      	str	r1, [sp, #132]	; 0x84
 15e:	9020      	str	r0, [sp, #128]	; 0x80
 160:	e7ff      	b.n	162 <_ZN6memchr8fallback7memrchr17hc9eb9e2e20e7630bE+0x162>
 162:	e003      	b.n	16c <_ZN6memchr8fallback7memrchr17hc9eb9e2e20e7630bE+0x16c>
/Users/Luppy/.cargo/registry/src/github.com-1ecc6299db9ec823/memchr-2.2.0/src/fallback.rs:202
}
 164:	9820      	ldr	r0, [sp, #128]	; 0x80
 166:	9921      	ldr	r1, [sp, #132]	; 0x84
 168:	b05c      	add	sp, #368	; 0x170
 16a:	bd80      	pop	{r7, pc}
/Users/Luppy/.cargo/registry/src/github.com-1ecc6299db9ec823/memchr-2.2.0/src/fallback.rs:178
            return reverse_search(start_ptr, end_ptr, ptr, confirm);
 16c:	e7fa      	b.n	164 <_ZN6memchr8fallback7memrchr17hc9eb9e2e20e7630bE+0x164>
/Users/Luppy/.cargo/registry/src/github.com-1ecc6299db9ec823/memchr-2.2.0/src/fallback.rs:181
        let chunk = read_unaligned_usize(ptr_sub(ptr, USIZE_BYTES));
 16e:	9829      	ldr	r0, [sp, #164]	; 0xa4
 170:	2104      	movs	r1, #4
 172:	f7ff fffe 	bl	0 <_ZN6memchr8fallback7memrchr17hc9eb9e2e20e7630bE>
 176:	9010      	str	r0, [sp, #64]	; 0x40
 178:	e7ff      	b.n	17a <_ZN6memchr8fallback7memrchr17hc9eb9e2e20e7630bE+0x17a>
 17a:	9810      	ldr	r0, [sp, #64]	; 0x40
 17c:	f7ff fffe 	bl	0 <_ZN6memchr8fallback7memrchr17hc9eb9e2e20e7630bE>
 180:	902a      	str	r0, [sp, #168]	; 0xa8
 182:	e7ff      	b.n	184 <_ZN6memchr8fallback7memrchr17hc9eb9e2e20e7630bE+0x184>
/Users/Luppy/.cargo/registry/src/github.com-1ecc6299db9ec823/memchr-2.2.0/src/fallback.rs:182
        if contains_zero_byte(chunk ^ vn1) {
 184:	982a      	ldr	r0, [sp, #168]	; 0xa8
 186:	9922      	ldr	r1, [sp, #136]	; 0x88
 188:	4048      	eors	r0, r1
 18a:	904b      	str	r0, [sp, #300]	; 0x12c
_ZN6memchr8fallback18contains_zero_byte17hcf05c92d2c728c95E():
/Users/Luppy/.cargo/registry/src/github.com-1ecc6299db9ec823/memchr-2.2.0/src/fallback.rs:33
    x.wrapping_sub(LO_USIZE) & !x & HI_USIZE != 0
 18c:	984b      	ldr	r0, [sp, #300]	; 0x12c
 18e:	f04f 3101 	mov.w	r1, #16843009	; 0x1010101
 192:	f7ff fffe 	bl	0 <_ZN4core3num23_$LT$impl$u20$usize$GT$12wrapping_sub17h049a26b7a4ff5318E>
 196:	994b      	ldr	r1, [sp, #300]	; 0x12c
 198:	4388      	bics	r0, r1
 19a:	f020 307f 	bic.w	r0, r0, #2139062143	; 0x7f7f7f7f
 19e:	2800      	cmp	r0, #0
 1a0:	bf18      	it	ne
 1a2:	2001      	movne	r0, #1
_ZN6memchr8fallback7memrchr17hc9eb9e2e20e7630bE():
/Users/Luppy/.cargo/registry/src/github.com-1ecc6299db9ec823/memchr-2.2.0/src/fallback.rs:182
        if contains_zero_byte(chunk ^ vn1) {
 1a4:	900f      	str	r0, [sp, #60]	; 0x3c
 1a6:	e7ff      	b.n	1a8 <_ZN6memchr8fallback7memrchr17hc9eb9e2e20e7630bE+0x1a8>
 1a8:	980f      	ldr	r0, [sp, #60]	; 0x3c
 1aa:	07c1      	lsls	r1, r0, #31
 1ac:	2900      	cmp	r1, #0
 1ae:	d04a      	beq.n	246 <_ZN6memchr8fallback7memrchr17hc9eb9e2e20e7630bE+0x246>
 1b0:	e7ff      	b.n	1b2 <_ZN6memchr8fallback7memrchr17hc9eb9e2e20e7630bE+0x1b2>
/Users/Luppy/.cargo/registry/src/github.com-1ecc6299db9ec823/memchr-2.2.0/src/fallback.rs:183
            return reverse_search(start_ptr, end_ptr, ptr, confirm);
 1b2:	9826      	ldr	r0, [sp, #152]	; 0x98
 1b4:	9927      	ldr	r1, [sp, #156]	; 0x9c
 1b6:	9a29      	ldr	r2, [sp, #164]	; 0xa4
 1b8:	9b23      	ldr	r3, [sp, #140]	; 0x8c
 1ba:	904c      	str	r0, [sp, #304]	; 0x130
 1bc:	914d      	str	r1, [sp, #308]	; 0x134
 1be:	924e      	str	r2, [sp, #312]	; 0x138
 1c0:	934f      	str	r3, [sp, #316]	; 0x13c
_ZN6memchr8fallback14reverse_search17hfad8306b895a730dE():
/Users/Luppy/.cargo/registry/src/github.com-1ecc6299db9ec823/memchr-2.2.0/src/fallback.rs:311
    debug_assert!(start_ptr <= ptr);
 1c2:	984c      	ldr	r0, [sp, #304]	; 0x130
 1c4:	994e      	ldr	r1, [sp, #312]	; 0x138
 1c6:	4288      	cmp	r0, r1
 1c8:	d907      	bls.n	1da <_ZN6memchr8fallback7memrchr17hc9eb9e2e20e7630bE+0x1da>
 1ca:	e7ff      	b.n	1cc <_ZN6memchr8fallback7memrchr17hc9eb9e2e20e7630bE+0x1cc>
 1cc:	f240 0000 	movw	r0, #0
 1d0:	f2c0 0000 	movt	r0, #0
 1d4:	f7ff fffe 	bl	0 <_ZN4core9panicking5panic17h53ca63c6ac6312f8E>
 1d8:	defe      	udf	#254	; 0xfe
/Users/Luppy/.cargo/registry/src/github.com-1ecc6299db9ec823/memchr-2.2.0/src/fallback.rs:312
    debug_assert!(ptr <= end_ptr);
 1da:	984e      	ldr	r0, [sp, #312]	; 0x138
 1dc:	994d      	ldr	r1, [sp, #308]	; 0x134
 1de:	4288      	cmp	r0, r1
 1e0:	d907      	bls.n	1f2 <_ZN6memchr8fallback7memrchr17hc9eb9e2e20e7630bE+0x1f2>
 1e2:	e7ff      	b.n	1e4 <_ZN6memchr8fallback7memrchr17hc9eb9e2e20e7630bE+0x1e4>
 1e4:	f240 0000 	movw	r0, #0
 1e8:	f2c0 0000 	movt	r0, #0
 1ec:	f7ff fffe 	bl	0 <_ZN4core9panicking5panic17h53ca63c6ac6312f8E>
 1f0:	defe      	udf	#254	; 0xfe
/Users/Luppy/.cargo/registry/src/github.com-1ecc6299db9ec823/memchr-2.2.0/src/fallback.rs:314
    while ptr > start_ptr {
 1f2:	e7ff      	b.n	1f4 <_ZN6memchr8fallback7memrchr17hc9eb9e2e20e7630bE+0x1f4>
 1f4:	984e      	ldr	r0, [sp, #312]	; 0x138
 1f6:	994c      	ldr	r1, [sp, #304]	; 0x130
 1f8:	4288      	cmp	r0, r1
 1fa:	d803      	bhi.n	204 <_ZN6memchr8fallback7memrchr17hc9eb9e2e20e7630bE+0x204>
 1fc:	e7ff      	b.n	1fe <_ZN6memchr8fallback7memrchr17hc9eb9e2e20e7630bE+0x1fe>
 1fe:	2000      	movs	r0, #0
/Users/Luppy/.cargo/registry/src/github.com-1ecc6299db9ec823/memchr-2.2.0/src/fallback.rs:320
    None
 200:	9050      	str	r0, [sp, #320]	; 0x140
/Users/Luppy/.cargo/registry/src/github.com-1ecc6299db9ec823/memchr-2.2.0/src/fallback.rs:321
}
 202:	e01a      	b.n	23a <_ZN6memchr8fallback7memrchr17hc9eb9e2e20e7630bE+0x23a>
/Users/Luppy/.cargo/registry/src/github.com-1ecc6299db9ec823/memchr-2.2.0/src/fallback.rs:315
        ptr = ptr.offset(-1);
 204:	984e      	ldr	r0, [sp, #312]	; 0x138
 206:	f04f 31ff 	mov.w	r1, #4294967295	; 0xffffffff
 20a:	f7ff fffe 	bl	0 <_ZN4core3ptr33_$LT$impl$u20$$BP$const$u20$T$GT$6offset17h1b1bd4fc0c06f6a7E>
 20e:	904e      	str	r0, [sp, #312]	; 0x138
/Users/Luppy/.cargo/registry/src/github.com-1ecc6299db9ec823/memchr-2.2.0/src/fallback.rs:316
        if confirm(*ptr) {
 210:	984e      	ldr	r0, [sp, #312]	; 0x138
 212:	7800      	ldrb	r0, [r0, #0]
 214:	f88d 014b 	strb.w	r0, [sp, #331]	; 0x14b
 218:	f89d 114b 	ldrb.w	r1, [sp, #331]	; 0x14b
 21c:	a84f      	add	r0, sp, #316	; 0x13c
 21e:	f7ff fffe 	bl	0 <_ZN6memchr8fallback7memrchr17hc9eb9e2e20e7630bE>
 222:	2800      	cmp	r0, #0
 224:	d008      	beq.n	238 <_ZN6memchr8fallback7memrchr17hc9eb9e2e20e7630bE+0x238>
 226:	e7ff      	b.n	228 <_ZN6memchr8fallback7memrchr17hc9eb9e2e20e7630bE+0x228>
/Users/Luppy/.cargo/registry/src/github.com-1ecc6299db9ec823/memchr-2.2.0/src/fallback.rs:317
            return Some(sub(ptr, start_ptr));
 228:	984e      	ldr	r0, [sp, #312]	; 0x138
 22a:	994c      	ldr	r1, [sp, #304]	; 0x130
 22c:	f7ff fffe 	bl	0 <_ZN6memchr8fallback7memrchr17hc9eb9e2e20e7630bE>
 230:	9051      	str	r0, [sp, #324]	; 0x144
 232:	2001      	movs	r0, #1
 234:	9050      	str	r0, [sp, #320]	; 0x140
/Users/Luppy/.cargo/registry/src/github.com-1ecc6299db9ec823/memchr-2.2.0/src/fallback.rs:321
}
 236:	e000      	b.n	23a <_ZN6memchr8fallback7memrchr17hc9eb9e2e20e7630bE+0x23a>
/Users/Luppy/.cargo/registry/src/github.com-1ecc6299db9ec823/memchr-2.2.0/src/fallback.rs:314
    while ptr > start_ptr {
 238:	e7dc      	b.n	1f4 <_ZN6memchr8fallback7memrchr17hc9eb9e2e20e7630bE+0x1f4>
/Users/Luppy/.cargo/registry/src/github.com-1ecc6299db9ec823/memchr-2.2.0/src/fallback.rs:321
}
 23a:	9850      	ldr	r0, [sp, #320]	; 0x140
 23c:	9951      	ldr	r1, [sp, #324]	; 0x144
_ZN6memchr8fallback7memrchr17hc9eb9e2e20e7630bE():
/Users/Luppy/.cargo/registry/src/github.com-1ecc6299db9ec823/memchr-2.2.0/src/fallback.rs:183
            return reverse_search(start_ptr, end_ptr, ptr, confirm);
 23e:	9121      	str	r1, [sp, #132]	; 0x84
 240:	9020      	str	r0, [sp, #128]	; 0x80
 242:	e7ff      	b.n	244 <_ZN6memchr8fallback7memrchr17hc9eb9e2e20e7630bE+0x244>
 244:	e792      	b.n	16c <_ZN6memchr8fallback7memrchr17hc9eb9e2e20e7630bE+0x16c>
/Users/Luppy/.cargo/registry/src/github.com-1ecc6299db9ec823/memchr-2.2.0/src/fallback.rs:186
        ptr = (end_ptr as usize & !align) as *const u8;
 246:	9827      	ldr	r0, [sp, #156]	; 0x9c
 248:	9925      	ldr	r1, [sp, #148]	; 0x94
 24a:	4388      	bics	r0, r1
 24c:	9029      	str	r0, [sp, #164]	; 0xa4
 24e:	2000      	movs	r0, #0
/Users/Luppy/.cargo/registry/src/github.com-1ecc6299db9ec823/memchr-2.2.0/src/fallback.rs:187
        debug_assert!(start_ptr <= ptr && ptr <= end_ptr);
 250:	2800      	cmp	r0, #0
 252:	d120      	bne.n	296 <_ZN6memchr8fallback7memrchr17hc9eb9e2e20e7630bE+0x296>
 254:	e7ff      	b.n	256 <_ZN6memchr8fallback7memrchr17hc9eb9e2e20e7630bE+0x256>
 256:	9826      	ldr	r0, [sp, #152]	; 0x98
 258:	9929      	ldr	r1, [sp, #164]	; 0xa4
 25a:	4288      	cmp	r0, r1
 25c:	d904      	bls.n	268 <_ZN6memchr8fallback7memrchr17hc9eb9e2e20e7630bE+0x268>
 25e:	e7ff      	b.n	260 <_ZN6memchr8fallback7memrchr17hc9eb9e2e20e7630bE+0x260>
 260:	2000      	movs	r0, #0
 262:	f88d 00ae 	strb.w	r0, [sp, #174]	; 0xae
 266:	e008      	b.n	27a <_ZN6memchr8fallback7memrchr17hc9eb9e2e20e7630bE+0x27a>
 268:	9829      	ldr	r0, [sp, #164]	; 0xa4
 26a:	9927      	ldr	r1, [sp, #156]	; 0x9c
 26c:	2200      	movs	r2, #0
 26e:	4288      	cmp	r0, r1
 270:	bf98      	it	ls
 272:	2201      	movls	r2, #1
 274:	f88d 20ae 	strb.w	r2, [sp, #174]	; 0xae
 278:	e7ff      	b.n	27a <_ZN6memchr8fallback7memrchr17hc9eb9e2e20e7630bE+0x27a>
 27a:	f89d 00ae 	ldrb.w	r0, [sp, #174]	; 0xae
 27e:	07c0      	lsls	r0, r0, #31
 280:	2800      	cmp	r0, #0
 282:	d107      	bne.n	294 <_ZN6memchr8fallback7memrchr17hc9eb9e2e20e7630bE+0x294>
 284:	e7ff      	b.n	286 <_ZN6memchr8fallback7memrchr17hc9eb9e2e20e7630bE+0x286>
 286:	f240 0000 	movw	r0, #0
 28a:	f2c0 0000 	movt	r0, #0
 28e:	f7ff fffe 	bl	0 <_ZN4core9panicking5panic17h53ca63c6ac6312f8E>
 292:	defe      	udf	#254	; 0xfe
 294:	e7ff      	b.n	296 <_ZN6memchr8fallback7memrchr17hc9eb9e2e20e7630bE+0x296>
/Users/Luppy/.cargo/registry/src/github.com-1ecc6299db9ec823/memchr-2.2.0/src/fallback.rs:188
        while loop_size == LOOP_SIZE && ptr >= ptr_add(start_ptr, loop_size) {
 296:	e7ff      	b.n	298 <_ZN6memchr8fallback7memrchr17hc9eb9e2e20e7630bE+0x298>
 298:	9824      	ldr	r0, [sp, #144]	; 0x90
 29a:	2808      	cmp	r0, #8
 29c:	d04d      	beq.n	33a <_ZN6memchr8fallback7memrchr17hc9eb9e2e20e7630bE+0x33a>
 29e:	e048      	b.n	332 <_ZN6memchr8fallback7memrchr17hc9eb9e2e20e7630bE+0x332>
/Users/Luppy/.cargo/registry/src/github.com-1ecc6299db9ec823/memchr-2.2.0/src/fallback.rs:200
        reverse_search(start_ptr, end_ptr, ptr, confirm)
 2a0:	9826      	ldr	r0, [sp, #152]	; 0x98
 2a2:	9927      	ldr	r1, [sp, #156]	; 0x9c
 2a4:	9a29      	ldr	r2, [sp, #164]	; 0xa4
 2a6:	9b23      	ldr	r3, [sp, #140]	; 0x8c
 2a8:	9053      	str	r0, [sp, #332]	; 0x14c
 2aa:	9154      	str	r1, [sp, #336]	; 0x150
 2ac:	9255      	str	r2, [sp, #340]	; 0x154
 2ae:	9356      	str	r3, [sp, #344]	; 0x158
_ZN6memchr8fallback14reverse_search17hfad8306b895a730dE():
/Users/Luppy/.cargo/registry/src/github.com-1ecc6299db9ec823/memchr-2.2.0/src/fallback.rs:311
    debug_assert!(start_ptr <= ptr);
 2b0:	9853      	ldr	r0, [sp, #332]	; 0x14c
 2b2:	9955      	ldr	r1, [sp, #340]	; 0x154
 2b4:	4288      	cmp	r0, r1
 2b6:	d907      	bls.n	2c8 <_ZN6memchr8fallback7memrchr17hc9eb9e2e20e7630bE+0x2c8>
 2b8:	e7ff      	b.n	2ba <_ZN6memchr8fallback7memrchr17hc9eb9e2e20e7630bE+0x2ba>
 2ba:	f240 0000 	movw	r0, #0
 2be:	f2c0 0000 	movt	r0, #0
 2c2:	f7ff fffe 	bl	0 <_ZN4core9panicking5panic17h53ca63c6ac6312f8E>
 2c6:	defe      	udf	#254	; 0xfe
/Users/Luppy/.cargo/registry/src/github.com-1ecc6299db9ec823/memchr-2.2.0/src/fallback.rs:312
    debug_assert!(ptr <= end_ptr);
 2c8:	9855      	ldr	r0, [sp, #340]	; 0x154
 2ca:	9954      	ldr	r1, [sp, #336]	; 0x150
 2cc:	4288      	cmp	r0, r1
 2ce:	d907      	bls.n	2e0 <_ZN6memchr8fallback7memrchr17hc9eb9e2e20e7630bE+0x2e0>
 2d0:	e7ff      	b.n	2d2 <_ZN6memchr8fallback7memrchr17hc9eb9e2e20e7630bE+0x2d2>
 2d2:	f240 0000 	movw	r0, #0
 2d6:	f2c0 0000 	movt	r0, #0
 2da:	f7ff fffe 	bl	0 <_ZN4core9panicking5panic17h53ca63c6ac6312f8E>
 2de:	defe      	udf	#254	; 0xfe
/Users/Luppy/.cargo/registry/src/github.com-1ecc6299db9ec823/memchr-2.2.0/src/fallback.rs:314
    while ptr > start_ptr {
 2e0:	e7ff      	b.n	2e2 <_ZN6memchr8fallback7memrchr17hc9eb9e2e20e7630bE+0x2e2>
 2e2:	9855      	ldr	r0, [sp, #340]	; 0x154
 2e4:	9953      	ldr	r1, [sp, #332]	; 0x14c
 2e6:	4288      	cmp	r0, r1
 2e8:	d803      	bhi.n	2f2 <_ZN6memchr8fallback7memrchr17hc9eb9e2e20e7630bE+0x2f2>
 2ea:	e7ff      	b.n	2ec <_ZN6memchr8fallback7memrchr17hc9eb9e2e20e7630bE+0x2ec>
 2ec:	2000      	movs	r0, #0
/Users/Luppy/.cargo/registry/src/github.com-1ecc6299db9ec823/memchr-2.2.0/src/fallback.rs:320
    None
 2ee:	9057      	str	r0, [sp, #348]	; 0x15c
/Users/Luppy/.cargo/registry/src/github.com-1ecc6299db9ec823/memchr-2.2.0/src/fallback.rs:321
}
 2f0:	e01a      	b.n	328 <_ZN6memchr8fallback7memrchr17hc9eb9e2e20e7630bE+0x328>
/Users/Luppy/.cargo/registry/src/github.com-1ecc6299db9ec823/memchr-2.2.0/src/fallback.rs:315
        ptr = ptr.offset(-1);
 2f2:	9855      	ldr	r0, [sp, #340]	; 0x154
 2f4:	f04f 31ff 	mov.w	r1, #4294967295	; 0xffffffff
 2f8:	f7ff fffe 	bl	0 <_ZN4core3ptr33_$LT$impl$u20$$BP$const$u20$T$GT$6offset17h1b1bd4fc0c06f6a7E>
 2fc:	9055      	str	r0, [sp, #340]	; 0x154
/Users/Luppy/.cargo/registry/src/github.com-1ecc6299db9ec823/memchr-2.2.0/src/fallback.rs:316
        if confirm(*ptr) {
 2fe:	9855      	ldr	r0, [sp, #340]	; 0x154
 300:	7800      	ldrb	r0, [r0, #0]
 302:	f88d 0167 	strb.w	r0, [sp, #359]	; 0x167
 306:	f89d 1167 	ldrb.w	r1, [sp, #359]	; 0x167
 30a:	a856      	add	r0, sp, #344	; 0x158
 30c:	f7ff fffe 	bl	0 <_ZN6memchr8fallback7memrchr17hc9eb9e2e20e7630bE>
 310:	2800      	cmp	r0, #0
 312:	d008      	beq.n	326 <_ZN6memchr8fallback7memrchr17hc9eb9e2e20e7630bE+0x326>
 314:	e7ff      	b.n	316 <_ZN6memchr8fallback7memrchr17hc9eb9e2e20e7630bE+0x316>
/Users/Luppy/.cargo/registry/src/github.com-1ecc6299db9ec823/memchr-2.2.0/src/fallback.rs:317
            return Some(sub(ptr, start_ptr));
 316:	9855      	ldr	r0, [sp, #340]	; 0x154
 318:	9953      	ldr	r1, [sp, #332]	; 0x14c
 31a:	f7ff fffe 	bl	0 <_ZN6memchr8fallback7memrchr17hc9eb9e2e20e7630bE>
 31e:	9058      	str	r0, [sp, #352]	; 0x160
 320:	2001      	movs	r0, #1
 322:	9057      	str	r0, [sp, #348]	; 0x15c
/Users/Luppy/.cargo/registry/src/github.com-1ecc6299db9ec823/memchr-2.2.0/src/fallback.rs:321
}
 324:	e000      	b.n	328 <_ZN6memchr8fallback7memrchr17hc9eb9e2e20e7630bE+0x328>
/Users/Luppy/.cargo/registry/src/github.com-1ecc6299db9ec823/memchr-2.2.0/src/fallback.rs:314
    while ptr > start_ptr {
 326:	e7dc      	b.n	2e2 <_ZN6memchr8fallback7memrchr17hc9eb9e2e20e7630bE+0x2e2>
/Users/Luppy/.cargo/registry/src/github.com-1ecc6299db9ec823/memchr-2.2.0/src/fallback.rs:321
}
 328:	9857      	ldr	r0, [sp, #348]	; 0x15c
 32a:	9958      	ldr	r1, [sp, #352]	; 0x160
_ZN6memchr8fallback7memrchr17hc9eb9e2e20e7630bE():
/Users/Luppy/.cargo/registry/src/github.com-1ecc6299db9ec823/memchr-2.2.0/src/fallback.rs:200
        reverse_search(start_ptr, end_ptr, ptr, confirm)
 32c:	9121      	str	r1, [sp, #132]	; 0x84
 32e:	9020      	str	r0, [sp, #128]	; 0x80
 330:	e0e4      	b.n	4fc <_ZN6memchr8fallback7memrchr17hc9eb9e2e20e7630bE+0x4fc>
 332:	2000      	movs	r0, #0
/Users/Luppy/.cargo/registry/src/github.com-1ecc6299db9ec823/memchr-2.2.0/src/fallback.rs:188
        while loop_size == LOOP_SIZE && ptr >= ptr_add(start_ptr, loop_size) {
 334:	f88d 00af 	strb.w	r0, [sp, #175]	; 0xaf
 338:	e009      	b.n	34e <_ZN6memchr8fallback7memrchr17hc9eb9e2e20e7630bE+0x34e>
 33a:	9829      	ldr	r0, [sp, #164]	; 0xa4
 33c:	9926      	ldr	r1, [sp, #152]	; 0x98
 33e:	9a24      	ldr	r2, [sp, #144]	; 0x90
 340:	900e      	str	r0, [sp, #56]	; 0x38
 342:	4608      	mov	r0, r1
 344:	4611      	mov	r1, r2
 346:	f7ff fffe 	bl	0 <_ZN6memchr8fallback7memrchr17hc9eb9e2e20e7630bE>
 34a:	900d      	str	r0, [sp, #52]	; 0x34
 34c:	e005      	b.n	35a <_ZN6memchr8fallback7memrchr17hc9eb9e2e20e7630bE+0x35a>
 34e:	f89d 00af 	ldrb.w	r0, [sp, #175]	; 0xaf
 352:	07c0      	lsls	r0, r0, #31
 354:	2800      	cmp	r0, #0
 356:	d109      	bne.n	36c <_ZN6memchr8fallback7memrchr17hc9eb9e2e20e7630bE+0x36c>
 358:	e7a2      	b.n	2a0 <_ZN6memchr8fallback7memrchr17hc9eb9e2e20e7630bE+0x2a0>
 35a:	2000      	movs	r0, #0
 35c:	990e      	ldr	r1, [sp, #56]	; 0x38
 35e:	9a0d      	ldr	r2, [sp, #52]	; 0x34
 360:	4291      	cmp	r1, r2
 362:	bf28      	it	cs
 364:	2001      	movcs	r0, #1
 366:	f88d 00af 	strb.w	r0, [sp, #175]	; 0xaf
 36a:	e7f0      	b.n	34e <_ZN6memchr8fallback7memrchr17hc9eb9e2e20e7630bE+0x34e>
 36c:	2000      	movs	r0, #0
/Users/Luppy/.cargo/registry/src/github.com-1ecc6299db9ec823/memchr-2.2.0/src/fallback.rs:189
            debug_assert_eq!(0, (ptr as usize) % USIZE_BYTES);
 36e:	2800      	cmp	r0, #0
 370:	d159      	bne.n	426 <_ZN6memchr8fallback7memrchr17hc9eb9e2e20e7630bE+0x426>
 372:	e7ff      	b.n	374 <_ZN6memchr8fallback7memrchr17hc9eb9e2e20e7630bE+0x374>
 374:	9829      	ldr	r0, [sp, #164]	; 0xa4
 376:	900c      	str	r0, [sp, #48]	; 0x30
 378:	e7ff      	b.n	37a <_ZN6memchr8fallback7memrchr17hc9eb9e2e20e7630bE+0x37a>
 37a:	980c      	ldr	r0, [sp, #48]	; 0x30
 37c:	f000 0103 	and.w	r1, r0, #3
 380:	912e      	str	r1, [sp, #184]	; 0xb8
 382:	f240 0100 	movw	r1, #0
 386:	f2c0 0100 	movt	r1, #0
 38a:	912c      	str	r1, [sp, #176]	; 0xb0
 38c:	a92e      	add	r1, sp, #184	; 0xb8
 38e:	912d      	str	r1, [sp, #180]	; 0xb4
 390:	992c      	ldr	r1, [sp, #176]	; 0xb0
 392:	912f      	str	r1, [sp, #188]	; 0xbc
 394:	992d      	ldr	r1, [sp, #180]	; 0xb4
 396:	9130      	str	r1, [sp, #192]	; 0xc0
 398:	992f      	ldr	r1, [sp, #188]	; 0xbc
 39a:	6809      	ldr	r1, [r1, #0]
 39c:	9a30      	ldr	r2, [sp, #192]	; 0xc0
 39e:	6812      	ldr	r2, [r2, #0]
 3a0:	4291      	cmp	r1, r2
 3a2:	d016      	beq.n	3d2 <_ZN6memchr8fallback7memrchr17hc9eb9e2e20e7630bE+0x3d2>
 3a4:	e7ff      	b.n	3a6 <_ZN6memchr8fallback7memrchr17hc9eb9e2e20e7630bE+0x3a6>
 3a6:	982f      	ldr	r0, [sp, #188]	; 0xbc
 3a8:	903d      	str	r0, [sp, #244]	; 0xf4
 3aa:	9830      	ldr	r0, [sp, #192]	; 0xc0
 3ac:	903e      	str	r0, [sp, #248]	; 0xf8
 3ae:	a83d      	add	r0, sp, #244	; 0xf4
 3b0:	903b      	str	r0, [sp, #236]	; 0xec
 3b2:	a83e      	add	r0, sp, #248	; 0xf8
 3b4:	903c      	str	r0, [sp, #240]	; 0xf0
 3b6:	983b      	ldr	r0, [sp, #236]	; 0xec
 3b8:	903f      	str	r0, [sp, #252]	; 0xfc
 3ba:	983c      	ldr	r0, [sp, #240]	; 0xf0
 3bc:	9040      	str	r0, [sp, #256]	; 0x100
 3be:	983f      	ldr	r0, [sp, #252]	; 0xfc
 3c0:	f240 0100 	movw	r1, #0
 3c4:	f2c0 0100 	movt	r1, #0
 3c8:	f7ff fffe 	bl	0 <_ZN4core3fmt10ArgumentV13new17he7aeb924cd1c8272E>
 3cc:	900b      	str	r0, [sp, #44]	; 0x2c
 3ce:	910a      	str	r1, [sp, #40]	; 0x28
 3d0:	e000      	b.n	3d4 <_ZN6memchr8fallback7memrchr17hc9eb9e2e20e7630bE+0x3d4>
 3d2:	e028      	b.n	426 <_ZN6memchr8fallback7memrchr17hc9eb9e2e20e7630bE+0x426>
 3d4:	9840      	ldr	r0, [sp, #256]	; 0x100
 3d6:	f240 0100 	movw	r1, #0
 3da:	f2c0 0100 	movt	r1, #0
 3de:	f7ff fffe 	bl	0 <_ZN4core3fmt10ArgumentV13new17he7aeb924cd1c8272E>
 3e2:	9009      	str	r0, [sp, #36]	; 0x24
 3e4:	9108      	str	r1, [sp, #32]
 3e6:	e7ff      	b.n	3e8 <_ZN6memchr8fallback7memrchr17hc9eb9e2e20e7630bE+0x3e8>
 3e8:	980b      	ldr	r0, [sp, #44]	; 0x2c
 3ea:	9037      	str	r0, [sp, #220]	; 0xdc
 3ec:	990a      	ldr	r1, [sp, #40]	; 0x28
 3ee:	9138      	str	r1, [sp, #224]	; 0xe0
 3f0:	9a09      	ldr	r2, [sp, #36]	; 0x24
 3f2:	9239      	str	r2, [sp, #228]	; 0xe4
 3f4:	9b08      	ldr	r3, [sp, #32]
 3f6:	933a      	str	r3, [sp, #232]	; 0xe8
 3f8:	46ec      	mov	ip, sp
 3fa:	f04f 0e02 	mov.w	lr, #2
 3fe:	f8cc e000 	str.w	lr, [ip]
 402:	f240 0100 	movw	r1, #0
 406:	f2c0 0100 	movt	r1, #0
 40a:	a831      	add	r0, sp, #196	; 0xc4
 40c:	2203      	movs	r2, #3
 40e:	ab37      	add	r3, sp, #220	; 0xdc
 410:	f7ff fffe 	bl	0 <_ZN4core3fmt9Arguments6new_v117h97fab7064a36d1a4E>
 414:	e7ff      	b.n	2 <_ZN6memchr8fallback7memrchr17hc9eb9e2e20e7630bE+0x2>
 416:	f240 0100 	movw	r1, #0
 41a:	f2c0 0100 	movt	r1, #0
 41e:	a831      	add	r0, sp, #196	; 0xc4
 420:	f7ff fffe 	bl	0 <_ZN4core9panicking9panic_fmt17h6b4d8e87b0965449E>
 424:	defe      	udf	#254	; 0xfe
/Users/Luppy/.cargo/registry/src/github.com-1ecc6299db9ec823/memchr-2.2.0/src/fallback.rs:191
            let a = *(ptr_sub(ptr, 2 * USIZE_BYTES) as *const usize);
 426:	9829      	ldr	r0, [sp, #164]	; 0xa4
 428:	2104      	movs	r1, #4
 42a:	2202      	movs	r2, #2
 42c:	fba2 1201 	umull	r1, r2, r2, r1
 430:	2a00      	cmp	r2, #0
 432:	9007      	str	r0, [sp, #28]
 434:	9106      	str	r1, [sp, #24]
 436:	d169      	bne.n	50c <_ZN6memchr8fallback7memrchr17hc9eb9e2e20e7630bE+0x50c>
 438:	e7ff      	b.n	43a <_ZN6memchr8fallback7memrchr17hc9eb9e2e20e7630bE+0x43a>
 43a:	9807      	ldr	r0, [sp, #28]
 43c:	9906      	ldr	r1, [sp, #24]
 43e:	f7ff fffe 	bl	0 <_ZN6memchr8fallback7memrchr17hc9eb9e2e20e7630bE>
 442:	9005      	str	r0, [sp, #20]
 444:	e7ff      	b.n	446 <_ZN6memchr8fallback7memrchr17hc9eb9e2e20e7630bE+0x446>
 446:	9805      	ldr	r0, [sp, #20]
 448:	6801      	ldr	r1, [r0, #0]
 44a:	9141      	str	r1, [sp, #260]	; 0x104
/Users/Luppy/.cargo/registry/src/github.com-1ecc6299db9ec823/memchr-2.2.0/src/fallback.rs:192
            let b = *(ptr_sub(ptr, 1 * USIZE_BYTES) as *const usize);
 44c:	9829      	ldr	r0, [sp, #164]	; 0xa4
 44e:	2104      	movs	r1, #4
 450:	2201      	movs	r2, #1
 452:	fba2 1201 	umull	r1, r2, r2, r1
 456:	2a00      	cmp	r2, #0
 458:	9004      	str	r0, [sp, #16]
 45a:	9103      	str	r1, [sp, #12]
 45c:	d15d      	bne.n	51a <_ZN6memchr8fallback7memrchr17hc9eb9e2e20e7630bE+0x51a>
 45e:	e7ff      	b.n	460 <_ZN6memchr8fallback7memrchr17hc9eb9e2e20e7630bE+0x460>
 460:	9804      	ldr	r0, [sp, #16]
 462:	9903      	ldr	r1, [sp, #12]
 464:	f7ff fffe 	bl	0 <_ZN6memchr8fallback7memrchr17hc9eb9e2e20e7630bE>
 468:	9002      	str	r0, [sp, #8]
 46a:	e7ff      	b.n	46c <_ZN6memchr8fallback7memrchr17hc9eb9e2e20e7630bE+0x46c>
 46c:	9802      	ldr	r0, [sp, #8]
 46e:	6801      	ldr	r1, [r0, #0]
 470:	9142      	str	r1, [sp, #264]	; 0x108
/Users/Luppy/.cargo/registry/src/github.com-1ecc6299db9ec823/memchr-2.2.0/src/fallback.rs:193
            let eqa = contains_zero_byte(a ^ vn1);
 472:	9941      	ldr	r1, [sp, #260]	; 0x104
 474:	9a22      	ldr	r2, [sp, #136]	; 0x88
 476:	4051      	eors	r1, r2
 478:	915a      	str	r1, [sp, #360]	; 0x168
_ZN6memchr8fallback18contains_zero_byte17hcf05c92d2c728c95E():
/Users/Luppy/.cargo/registry/src/github.com-1ecc6299db9ec823/memchr-2.2.0/src/fallback.rs:33
    x.wrapping_sub(LO_USIZE) & !x & HI_USIZE != 0
 47a:	985a      	ldr	r0, [sp, #360]	; 0x168
 47c:	f04f 3101 	mov.w	r1, #16843009	; 0x1010101
 480:	f7ff fffe 	bl	0 <_ZN4core3num23_$LT$impl$u20$usize$GT$12wrapping_sub17h049a26b7a4ff5318E>
 484:	995a      	ldr	r1, [sp, #360]	; 0x168
 486:	4388      	bics	r0, r1
 488:	f020 307f 	bic.w	r0, r0, #2139062143	; 0x7f7f7f7f
 48c:	2800      	cmp	r0, #0
 48e:	bf18      	it	ne
 490:	2001      	movne	r0, #1
_ZN6memchr8fallback7memrchr17hc9eb9e2e20e7630bE():
/Users/Luppy/.cargo/registry/src/github.com-1ecc6299db9ec823/memchr-2.2.0/src/fallback.rs:193
            let eqa = contains_zero_byte(a ^ vn1);
 492:	f88d 010c 	strb.w	r0, [sp, #268]	; 0x10c
 496:	e7ff      	b.n	498 <_ZN6memchr8fallback7memrchr17hc9eb9e2e20e7630bE+0x498>
/Users/Luppy/.cargo/registry/src/github.com-1ecc6299db9ec823/memchr-2.2.0/src/fallback.rs:194
            let eqb = contains_zero_byte(b ^ vn1);
 498:	9842      	ldr	r0, [sp, #264]	; 0x108
 49a:	9922      	ldr	r1, [sp, #136]	; 0x88
 49c:	4048      	eors	r0, r1
 49e:	905b      	str	r0, [sp, #364]	; 0x16c
_ZN6memchr8fallback18contains_zero_byte17hcf05c92d2c728c95E():
/Users/Luppy/.cargo/registry/src/github.com-1ecc6299db9ec823/memchr-2.2.0/src/fallback.rs:33
    x.wrapping_sub(LO_USIZE) & !x & HI_USIZE != 0
 4a0:	985b      	ldr	r0, [sp, #364]	; 0x16c
 4a2:	f04f 3101 	mov.w	r1, #16843009	; 0x1010101
 4a6:	f7ff fffe 	bl	0 <_ZN4core3num23_$LT$impl$u20$usize$GT$12wrapping_sub17h049a26b7a4ff5318E>
 4aa:	995b      	ldr	r1, [sp, #364]	; 0x16c
 4ac:	4388      	bics	r0, r1
 4ae:	f020 307f 	bic.w	r0, r0, #2139062143	; 0x7f7f7f7f
 4b2:	2800      	cmp	r0, #0
 4b4:	bf18      	it	ne
 4b6:	2001      	movne	r0, #1
_ZN6memchr8fallback7memrchr17hc9eb9e2e20e7630bE():
/Users/Luppy/.cargo/registry/src/github.com-1ecc6299db9ec823/memchr-2.2.0/src/fallback.rs:194
            let eqb = contains_zero_byte(b ^ vn1);
 4b8:	f88d 010d 	strb.w	r0, [sp, #269]	; 0x10d
 4bc:	e7ff      	b.n	4be <_ZN6memchr8fallback7memrchr17hc9eb9e2e20e7630bE+0x4be>
/Users/Luppy/.cargo/registry/src/github.com-1ecc6299db9ec823/memchr-2.2.0/src/fallback.rs:195
            if eqa || eqb {
 4be:	f89d 010c 	ldrb.w	r0, [sp, #268]	; 0x10c
 4c2:	07c0      	lsls	r0, r0, #31
 4c4:	2800      	cmp	r0, #0
 4c6:	d004      	beq.n	4d2 <_ZN6memchr8fallback7memrchr17hc9eb9e2e20e7630bE+0x4d2>
 4c8:	e7ff      	b.n	4ca <_ZN6memchr8fallback7memrchr17hc9eb9e2e20e7630bE+0x4ca>
 4ca:	2001      	movs	r0, #1
 4cc:	f88d 010e 	strb.w	r0, [sp, #270]	; 0x10e
 4d0:	e004      	b.n	4dc <_ZN6memchr8fallback7memrchr17hc9eb9e2e20e7630bE+0x4dc>
 4d2:	f89d 010d 	ldrb.w	r0, [sp, #269]	; 0x10d
 4d6:	f88d 010e 	strb.w	r0, [sp, #270]	; 0x10e
 4da:	e7ff      	b.n	4dc <_ZN6memchr8fallback7memrchr17hc9eb9e2e20e7630bE+0x4dc>
 4dc:	f89d 010e 	ldrb.w	r0, [sp, #270]	; 0x10e
 4e0:	07c0      	lsls	r0, r0, #31
 4e2:	2800      	cmp	r0, #0
 4e4:	d001      	beq.n	4ea <_ZN6memchr8fallback7memrchr17hc9eb9e2e20e7630bE+0x4ea>
 4e6:	e7ff      	b.n	4e8 <_ZN6memchr8fallback7memrchr17hc9eb9e2e20e7630bE+0x4e8>
/Users/Luppy/.cargo/registry/src/github.com-1ecc6299db9ec823/memchr-2.2.0/src/fallback.rs:196
                break;
 4e8:	e6da      	b.n	2a0 <_ZN6memchr8fallback7memrchr17hc9eb9e2e20e7630bE+0x2a0>
/Users/Luppy/.cargo/registry/src/github.com-1ecc6299db9ec823/memchr-2.2.0/src/fallback.rs:198
            ptr = ptr_sub(ptr, loop_size);
 4ea:	9829      	ldr	r0, [sp, #164]	; 0xa4
 4ec:	9924      	ldr	r1, [sp, #144]	; 0x90
 4ee:	f7ff fffe 	bl	0 <_ZN6memchr8fallback7memrchr17hc9eb9e2e20e7630bE>
 4f2:	9001      	str	r0, [sp, #4]
 4f4:	e7ff      	b.n	4f6 <_ZN6memchr8fallback7memrchr17hc9eb9e2e20e7630bE+0x4f6>
 4f6:	9801      	ldr	r0, [sp, #4]
 4f8:	9029      	str	r0, [sp, #164]	; 0xa4
/Users/Luppy/.cargo/registry/src/github.com-1ecc6299db9ec823/memchr-2.2.0/src/fallback.rs:188
        while loop_size == LOOP_SIZE && ptr >= ptr_add(start_ptr, loop_size) {
 4fa:	e6cd      	b.n	298 <_ZN6memchr8fallback7memrchr17hc9eb9e2e20e7630bE+0x298>
/Users/Luppy/.cargo/registry/src/github.com-1ecc6299db9ec823/memchr-2.2.0/src/fallback.rs:202
}
 4fc:	e632      	b.n	164 <_ZN6memchr8fallback7memrchr17hc9eb9e2e20e7630bE+0x164>
/Users/Luppy/.cargo/registry/src/github.com-1ecc6299db9ec823/memchr-2.2.0/src/fallback.rs:171
    let align = USIZE_BYTES - 1;
 4fe:	f240 0000 	movw	r0, #0
 502:	f2c0 0000 	movt	r0, #0
 506:	f7ff fffe 	bl	0 <_ZN4core9panicking5panic17h53ca63c6ac6312f8E>
 50a:	defe      	udf	#254	; 0xfe
/Users/Luppy/.cargo/registry/src/github.com-1ecc6299db9ec823/memchr-2.2.0/src/fallback.rs:191
            let a = *(ptr_sub(ptr, 2 * USIZE_BYTES) as *const usize);
 50c:	f240 0000 	movw	r0, #0
 510:	f2c0 0000 	movt	r0, #0
 514:	f7ff fffe 	bl	0 <_ZN4core9panicking5panic17h53ca63c6ac6312f8E>
 518:	defe      	udf	#254	; 0xfe
/Users/Luppy/.cargo/registry/src/github.com-1ecc6299db9ec823/memchr-2.2.0/src/fallback.rs:192
            let b = *(ptr_sub(ptr, 1 * USIZE_BYTES) as *const usize);
 51a:	f240 0000 	movw	r0, #0
 51e:	f2c0 0000 	movt	r0, #0
 522:	f7ff fffe 	bl	0 <_ZN4core9panicking5panic17h53ca63c6ac6312f8E>
 526:	defe      	udf	#254	; 0xfe

Disassembly of section .text._ZN6memchr8fallback7memrchr28_$u7b$$u7b$closure$u7d$$u7d$17h3a0fd143a7c272ecE:

00000000 <_ZN6memchr8fallback7memrchr28_$u7b$$u7b$closure$u7d$$u7d$17h3a0fd143a7c272ecE>:
_ZN6memchr8fallback7memrchr28_$u7b$$u7b$closure$u7d$$u7d$17h3a0fd143a7c272ecE():
/Users/Luppy/.cargo/registry/src/github.com-1ecc6299db9ec823/memchr-2.2.0/src/fallback.rs:169
    let confirm = |byte| byte == n1;
   0:	b084      	sub	sp, #16
   2:	460a      	mov	r2, r1
   4:	4603      	mov	r3, r0
   6:	9002      	str	r0, [sp, #8]
   8:	f88d 100f 	strb.w	r1, [sp, #15]
   c:	f89d 000f 	ldrb.w	r0, [sp, #15]
  10:	9902      	ldr	r1, [sp, #8]
  12:	6809      	ldr	r1, [r1, #0]
  14:	7809      	ldrb	r1, [r1, #0]
  16:	1a40      	subs	r0, r0, r1
  18:	fab0 f080 	clz	r0, r0
  1c:	0940      	lsrs	r0, r0, #5
  1e:	9201      	str	r2, [sp, #4]
  20:	9300      	str	r3, [sp, #0]
  22:	b004      	add	sp, #16
  24:	4770      	bx	lr

Disassembly of section .text._ZN6memchr8fallback8memrchr217hb3b78525947b7432E:

00000000 <_ZN6memchr8fallback8memrchr217hb3b78525947b7432E>:
_ZN6memchr8fallback8memrchr217hb3b78525947b7432E():
/Users/Luppy/.cargo/registry/src/github.com-1ecc6299db9ec823/memchr-2.2.0/src/fallback.rs:205
pub fn memrchr2(n1: u8, n2: u8, haystack: &[u8]) -> Option<usize> {
   0:	b5b0      	push	{r4, r5, r7, lr}
   2:	b0dc      	sub	sp, #368	; 0x170
   4:	469c      	mov	ip, r3
   6:	4696      	mov	lr, r2
   8:	460c      	mov	r4, r1
   a:	4605      	mov	r5, r0
   c:	f88d 0062 	strb.w	r0, [sp, #98]	; 0x62
  10:	f88d 1063 	strb.w	r1, [sp, #99]	; 0x63
  14:	9219      	str	r2, [sp, #100]	; 0x64
  16:	931a      	str	r3, [sp, #104]	; 0x68
/Users/Luppy/.cargo/registry/src/github.com-1ecc6299db9ec823/memchr-2.2.0/src/fallback.rs:206
    let vn1 = repeat_byte(n1);
  18:	f89d 0062 	ldrb.w	r0, [sp, #98]	; 0x62
  1c:	f88d 00fe 	strb.w	r0, [sp, #254]	; 0xfe
_ZN6memchr8fallback11repeat_byte17h6374a9c8a738a5e1E():
/Users/Luppy/.cargo/registry/src/github.com-1ecc6299db9ec823/memchr-2.2.0/src/fallback.rs:42
    (b as usize) * (usize::MAX / 255)
  20:	f89d 00fe 	ldrb.w	r0, [sp, #254]	; 0xfe
  24:	f04f 3101 	mov.w	r1, #16843009	; 0x1010101
  28:	fba0 0101 	umull	r0, r1, r0, r1
  2c:	2900      	cmp	r1, #0
  2e:	f8cd c05c 	str.w	ip, [sp, #92]	; 0x5c
  32:	f8cd e058 	str.w	lr, [sp, #88]	; 0x58
  36:	9415      	str	r4, [sp, #84]	; 0x54
  38:	9514      	str	r5, [sp, #80]	; 0x50
  3a:	9013      	str	r0, [sp, #76]	; 0x4c
  3c:	d007      	beq.n	4e <_ZN6memchr8fallback8memrchr217hb3b78525947b7432E+0x4e>
  3e:	e7ff      	b.n	40 <_ZN6memchr8fallback8memrchr217hb3b78525947b7432E+0x40>
  40:	f240 0000 	movw	r0, #0
  44:	f2c0 0000 	movt	r0, #0
  48:	f7ff fffe 	bl	0 <_ZN4core9panicking5panic17h53ca63c6ac6312f8E>
  4c:	defe      	udf	#254	; 0xfe
_ZN6memchr8fallback8memrchr217hb3b78525947b7432E():
/Users/Luppy/.cargo/registry/src/github.com-1ecc6299db9ec823/memchr-2.2.0/src/fallback.rs:206
    let vn1 = repeat_byte(n1);
  4e:	9813      	ldr	r0, [sp, #76]	; 0x4c
  50:	901d      	str	r0, [sp, #116]	; 0x74
  52:	e7ff      	b.n	54 <_ZN6memchr8fallback8memrchr217hb3b78525947b7432E+0x54>
/Users/Luppy/.cargo/registry/src/github.com-1ecc6299db9ec823/memchr-2.2.0/src/fallback.rs:207
    let vn2 = repeat_byte(n2);
  54:	f89d 0063 	ldrb.w	r0, [sp, #99]	; 0x63
  58:	f88d 00ff 	strb.w	r0, [sp, #255]	; 0xff
_ZN6memchr8fallback11repeat_byte17h6374a9c8a738a5e1E():
/Users/Luppy/.cargo/registry/src/github.com-1ecc6299db9ec823/memchr-2.2.0/src/fallback.rs:42
    (b as usize) * (usize::MAX / 255)
  5c:	f89d 00ff 	ldrb.w	r0, [sp, #255]	; 0xff
  60:	f04f 3101 	mov.w	r1, #16843009	; 0x1010101
  64:	fba0 0101 	umull	r0, r1, r0, r1
  68:	2900      	cmp	r1, #0
  6a:	9012      	str	r0, [sp, #72]	; 0x48
  6c:	d007      	beq.n	7e <_ZN6memchr8fallback8memrchr217hb3b78525947b7432E+0x7e>
  6e:	e7ff      	b.n	70 <_ZN6memchr8fallback8memrchr217hb3b78525947b7432E+0x70>
  70:	f240 0000 	movw	r0, #0
  74:	f2c0 0000 	movt	r0, #0
  78:	f7ff fffe 	bl	0 <_ZN4core9panicking5panic17h53ca63c6ac6312f8E>
  7c:	defe      	udf	#254	; 0xfe
_ZN6memchr8fallback8memrchr217hb3b78525947b7432E():
/Users/Luppy/.cargo/registry/src/github.com-1ecc6299db9ec823/memchr-2.2.0/src/fallback.rs:207
    let vn2 = repeat_byte(n2);
  7e:	9812      	ldr	r0, [sp, #72]	; 0x48
  80:	901e      	str	r0, [sp, #120]	; 0x78
  82:	e7ff      	b.n	84 <_ZN6memchr8fallback8memrchr217hb3b78525947b7432E+0x84>
  84:	f10d 0062 	add.w	r0, sp, #98	; 0x62
/Users/Luppy/.cargo/registry/src/github.com-1ecc6299db9ec823/memchr-2.2.0/src/fallback.rs:208
    let confirm = |byte| byte == n1 || byte == n2;
  88:	901f      	str	r0, [sp, #124]	; 0x7c
  8a:	f10d 0063 	add.w	r0, sp, #99	; 0x63
  8e:	9020      	str	r0, [sp, #128]	; 0x80
  90:	2004      	movs	r0, #4
/Users/Luppy/.cargo/registry/src/github.com-1ecc6299db9ec823/memchr-2.2.0/src/fallback.rs:209
    let align = USIZE_BYTES - 1;
  92:	1e41      	subs	r1, r0, #1
  94:	2801      	cmp	r0, #1
  96:	9111      	str	r1, [sp, #68]	; 0x44
  98:	f0c0 8245 	bcc.w	526 <_ZN6memchr8fallback8memrchr217hb3b78525947b7432E+0x526>
  9c:	e7ff      	b.n	9e <_ZN6memchr8fallback8memrchr217hb3b78525947b7432E+0x9e>
  9e:	9811      	ldr	r0, [sp, #68]	; 0x44
  a0:	9021      	str	r0, [sp, #132]	; 0x84
/Users/Luppy/.cargo/registry/src/github.com-1ecc6299db9ec823/memchr-2.2.0/src/fallback.rs:210
    let start_ptr = haystack.as_ptr();
  a2:	9819      	ldr	r0, [sp, #100]	; 0x64
  a4:	991a      	ldr	r1, [sp, #104]	; 0x68
  a6:	f7ff fffe 	bl	0 <_ZN4core5slice29_$LT$impl$u20$$u5b$T$u5d$$GT$6as_ptr17hd0263209417be61aE>
  aa:	9022      	str	r0, [sp, #136]	; 0x88
  ac:	e7ff      	b.n	ae <_ZN6memchr8fallback8memrchr217hb3b78525947b7432E+0xae>
/Users/Luppy/.cargo/registry/src/github.com-1ecc6299db9ec823/memchr-2.2.0/src/fallback.rs:211
    let end_ptr = haystack[haystack.len()..].as_ptr();
  ae:	9819      	ldr	r0, [sp, #100]	; 0x64
  b0:	991a      	ldr	r1, [sp, #104]	; 0x68
  b2:	9010      	str	r0, [sp, #64]	; 0x40
  b4:	910f      	str	r1, [sp, #60]	; 0x3c
  b6:	f7ff fffe 	bl	0 <_ZN4core5slice29_$LT$impl$u20$$u5b$T$u5d$$GT$3len17h63f985867d9f263fE>
  ba:	900e      	str	r0, [sp, #56]	; 0x38
  bc:	e7ff      	b.n	be <_ZN6memchr8fallback8memrchr217hb3b78525947b7432E+0xbe>
  be:	980e      	ldr	r0, [sp, #56]	; 0x38
  c0:	9024      	str	r0, [sp, #144]	; 0x90
  c2:	9a24      	ldr	r2, [sp, #144]	; 0x90
  c4:	9810      	ldr	r0, [sp, #64]	; 0x40
  c6:	990f      	ldr	r1, [sp, #60]	; 0x3c
  c8:	f7ff fffe 	bl	0 <_ZN4core5slice74_$LT$impl$u20$core..ops..index..Index$LT$I$GT$$u20$for$u20$$u5b$T$u5d$$GT$5index17hf116fad1d92ca796E>
  cc:	900d      	str	r0, [sp, #52]	; 0x34
  ce:	910c      	str	r1, [sp, #48]	; 0x30
  d0:	e7ff      	b.n	d2 <_ZN6memchr8fallback8memrchr217hb3b78525947b7432E+0xd2>
  d2:	980d      	ldr	r0, [sp, #52]	; 0x34
  d4:	990c      	ldr	r1, [sp, #48]	; 0x30
  d6:	f7ff fffe 	bl	0 <_ZN4core5slice29_$LT$impl$u20$$u5b$T$u5d$$GT$6as_ptr17hd0263209417be61aE>
  da:	9023      	str	r0, [sp, #140]	; 0x8c
  dc:	e7ff      	b.n	de <_ZN6memchr8fallback8memrchr217hb3b78525947b7432E+0xde>
/Users/Luppy/.cargo/registry/src/github.com-1ecc6299db9ec823/memchr-2.2.0/src/fallback.rs:212
    let mut ptr = end_ptr;
  de:	9823      	ldr	r0, [sp, #140]	; 0x8c
  e0:	9025      	str	r0, [sp, #148]	; 0x94
/Users/Luppy/.cargo/registry/src/github.com-1ecc6299db9ec823/memchr-2.2.0/src/fallback.rs:215
        if haystack.len() < USIZE_BYTES {
  e2:	9819      	ldr	r0, [sp, #100]	; 0x64
  e4:	991a      	ldr	r1, [sp, #104]	; 0x68
  e6:	f7ff fffe 	bl	0 <_ZN4core5slice29_$LT$impl$u20$$u5b$T$u5d$$GT$3len17h63f985867d9f263fE>
  ea:	900b      	str	r0, [sp, #44]	; 0x2c
  ec:	e7ff      	b.n	ee <_ZN6memchr8fallback8memrchr217hb3b78525947b7432E+0xee>
  ee:	980b      	ldr	r0, [sp, #44]	; 0x2c
  f0:	2803      	cmp	r0, #3
  f2:	d853      	bhi.n	19c <_ZN6memchr8fallback8memrchr217hb3b78525947b7432E+0x19c>
  f4:	e7ff      	b.n	f6 <_ZN6memchr8fallback8memrchr217hb3b78525947b7432E+0xf6>
/Users/Luppy/.cargo/registry/src/github.com-1ecc6299db9ec823/memchr-2.2.0/src/fallback.rs:216
            return reverse_search(start_ptr, end_ptr, ptr, confirm);
  f6:	9822      	ldr	r0, [sp, #136]	; 0x88
  f8:	9923      	ldr	r1, [sp, #140]	; 0x8c
  fa:	9a25      	ldr	r2, [sp, #148]	; 0x94
  fc:	9b1f      	ldr	r3, [sp, #124]	; 0x7c
  fe:	f8dd c080 	ldr.w	ip, [sp, #128]	; 0x80
 102:	9040      	str	r0, [sp, #256]	; 0x100
 104:	9141      	str	r1, [sp, #260]	; 0x104
 106:	9242      	str	r2, [sp, #264]	; 0x108
 108:	9343      	str	r3, [sp, #268]	; 0x10c
 10a:	f8cd c110 	str.w	ip, [sp, #272]	; 0x110
_ZN6memchr8fallback14reverse_search17hcb8726e52fd19798E():
/Users/Luppy/.cargo/registry/src/github.com-1ecc6299db9ec823/memchr-2.2.0/src/fallback.rs:311
    debug_assert!(start_ptr <= ptr);
 10e:	9840      	ldr	r0, [sp, #256]	; 0x100
 110:	9942      	ldr	r1, [sp, #264]	; 0x108
 112:	4288      	cmp	r0, r1
 114:	d907      	bls.n	126 <_ZN6memchr8fallback8memrchr217hb3b78525947b7432E+0x126>
 116:	e7ff      	b.n	118 <_ZN6memchr8fallback8memrchr217hb3b78525947b7432E+0x118>
 118:	f240 0000 	movw	r0, #0
 11c:	f2c0 0000 	movt	r0, #0
 120:	f7ff fffe 	bl	0 <_ZN4core9panicking5panic17h53ca63c6ac6312f8E>
 124:	defe      	udf	#254	; 0xfe
/Users/Luppy/.cargo/registry/src/github.com-1ecc6299db9ec823/memchr-2.2.0/src/fallback.rs:312
    debug_assert!(ptr <= end_ptr);
 126:	9842      	ldr	r0, [sp, #264]	; 0x108
 128:	9941      	ldr	r1, [sp, #260]	; 0x104
 12a:	4288      	cmp	r0, r1
 12c:	d907      	bls.n	13e <_ZN6memchr8fallback8memrchr217hb3b78525947b7432E+0x13e>
 12e:	e7ff      	b.n	130 <_ZN6memchr8fallback8memrchr217hb3b78525947b7432E+0x130>
 130:	f240 0000 	movw	r0, #0
 134:	f2c0 0000 	movt	r0, #0
 138:	f7ff fffe 	bl	0 <_ZN4core9panicking5panic17h53ca63c6ac6312f8E>
 13c:	defe      	udf	#254	; 0xfe
/Users/Luppy/.cargo/registry/src/github.com-1ecc6299db9ec823/memchr-2.2.0/src/fallback.rs:314
    while ptr > start_ptr {
 13e:	e7ff      	b.n	140 <_ZN6memchr8fallback8memrchr217hb3b78525947b7432E+0x140>
 140:	9842      	ldr	r0, [sp, #264]	; 0x108
 142:	9940      	ldr	r1, [sp, #256]	; 0x100
 144:	4288      	cmp	r0, r1
 146:	d803      	bhi.n	150 <_ZN6memchr8fallback8memrchr217hb3b78525947b7432E+0x150>
 148:	e7ff      	b.n	14a <_ZN6memchr8fallback8memrchr217hb3b78525947b7432E+0x14a>
 14a:	2000      	movs	r0, #0
/Users/Luppy/.cargo/registry/src/github.com-1ecc6299db9ec823/memchr-2.2.0/src/fallback.rs:320
    None
 14c:	9045      	str	r0, [sp, #276]	; 0x114
/Users/Luppy/.cargo/registry/src/github.com-1ecc6299db9ec823/memchr-2.2.0/src/fallback.rs:321
}
 14e:	e01a      	b.n	186 <_ZN6memchr8fallback8memrchr217hb3b78525947b7432E+0x186>
/Users/Luppy/.cargo/registry/src/github.com-1ecc6299db9ec823/memchr-2.2.0/src/fallback.rs:315
        ptr = ptr.offset(-1);
 150:	9842      	ldr	r0, [sp, #264]	; 0x108
 152:	f04f 31ff 	mov.w	r1, #4294967295	; 0xffffffff
 156:	f7ff fffe 	bl	0 <_ZN4core3ptr33_$LT$impl$u20$$BP$const$u20$T$GT$6offset17h1b1bd4fc0c06f6a7E>
 15a:	9042      	str	r0, [sp, #264]	; 0x108
/Users/Luppy/.cargo/registry/src/github.com-1ecc6299db9ec823/memchr-2.2.0/src/fallback.rs:316
        if confirm(*ptr) {
 15c:	9842      	ldr	r0, [sp, #264]	; 0x108
 15e:	7800      	ldrb	r0, [r0, #0]
 160:	f88d 011f 	strb.w	r0, [sp, #287]	; 0x11f
 164:	f89d 111f 	ldrb.w	r1, [sp, #287]	; 0x11f
 168:	a843      	add	r0, sp, #268	; 0x10c
 16a:	f7ff fffe 	bl	0 <_ZN6memchr8fallback8memrchr217hb3b78525947b7432E>
 16e:	2800      	cmp	r0, #0
 170:	d008      	beq.n	184 <_ZN6memchr8fallback8memrchr217hb3b78525947b7432E+0x184>
 172:	e7ff      	b.n	174 <_ZN6memchr8fallback8memrchr217hb3b78525947b7432E+0x174>
/Users/Luppy/.cargo/registry/src/github.com-1ecc6299db9ec823/memchr-2.2.0/src/fallback.rs:317
            return Some(sub(ptr, start_ptr));
 174:	9842      	ldr	r0, [sp, #264]	; 0x108
 176:	9940      	ldr	r1, [sp, #256]	; 0x100
 178:	f7ff fffe 	bl	0 <_ZN6memchr8fallback8memrchr217hb3b78525947b7432E>
 17c:	9046      	str	r0, [sp, #280]	; 0x118
 17e:	2001      	movs	r0, #1
 180:	9045      	str	r0, [sp, #276]	; 0x114
/Users/Luppy/.cargo/registry/src/github.com-1ecc6299db9ec823/memchr-2.2.0/src/fallback.rs:321
}
 182:	e000      	b.n	186 <_ZN6memchr8fallback8memrchr217hb3b78525947b7432E+0x186>
/Users/Luppy/.cargo/registry/src/github.com-1ecc6299db9ec823/memchr-2.2.0/src/fallback.rs:314
    while ptr > start_ptr {
 184:	e7dc      	b.n	140 <_ZN6memchr8fallback8memrchr217hb3b78525947b7432E+0x140>
/Users/Luppy/.cargo/registry/src/github.com-1ecc6299db9ec823/memchr-2.2.0/src/fallback.rs:321
}
 186:	9845      	ldr	r0, [sp, #276]	; 0x114
 188:	9946      	ldr	r1, [sp, #280]	; 0x118
_ZN6memchr8fallback8memrchr217hb3b78525947b7432E():
/Users/Luppy/.cargo/registry/src/github.com-1ecc6299db9ec823/memchr-2.2.0/src/fallback.rs:216
            return reverse_search(start_ptr, end_ptr, ptr, confirm);
 18a:	911c      	str	r1, [sp, #112]	; 0x70
 18c:	901b      	str	r0, [sp, #108]	; 0x6c
 18e:	e7ff      	b.n	190 <_ZN6memchr8fallback8memrchr217hb3b78525947b7432E+0x190>
 190:	e003      	b.n	19a <_ZN6memchr8fallback8memrchr217hb3b78525947b7432E+0x19a>
/Users/Luppy/.cargo/registry/src/github.com-1ecc6299db9ec823/memchr-2.2.0/src/fallback.rs:241
}
 192:	981b      	ldr	r0, [sp, #108]	; 0x6c
 194:	991c      	ldr	r1, [sp, #112]	; 0x70
 196:	b05c      	add	sp, #368	; 0x170
 198:	bdb0      	pop	{r4, r5, r7, pc}
/Users/Luppy/.cargo/registry/src/github.com-1ecc6299db9ec823/memchr-2.2.0/src/fallback.rs:216
            return reverse_search(start_ptr, end_ptr, ptr, confirm);
 19a:	e7fa      	b.n	192 <_ZN6memchr8fallback8memrchr217hb3b78525947b7432E+0x192>
/Users/Luppy/.cargo/registry/src/github.com-1ecc6299db9ec823/memchr-2.2.0/src/fallback.rs:219
        let chunk = read_unaligned_usize(ptr_sub(ptr, USIZE_BYTES));
 19c:	9825      	ldr	r0, [sp, #148]	; 0x94
 19e:	2104      	movs	r1, #4
 1a0:	f7ff fffe 	bl	0 <_ZN6memchr8fallback8memrchr217hb3b78525947b7432E>
 1a4:	900a      	str	r0, [sp, #40]	; 0x28
 1a6:	e7ff      	b.n	1a8 <_ZN6memchr8fallback8memrchr217hb3b78525947b7432E+0x1a8>
 1a8:	980a      	ldr	r0, [sp, #40]	; 0x28
 1aa:	f7ff fffe 	bl	0 <_ZN6memchr8fallback8memrchr217hb3b78525947b7432E>
 1ae:	9026      	str	r0, [sp, #152]	; 0x98
 1b0:	e7ff      	b.n	1b2 <_ZN6memchr8fallback8memrchr217hb3b78525947b7432E+0x1b2>
/Users/Luppy/.cargo/registry/src/github.com-1ecc6299db9ec823/memchr-2.2.0/src/fallback.rs:220
        let eq1 = contains_zero_byte(chunk ^ vn1);
 1b2:	9826      	ldr	r0, [sp, #152]	; 0x98
 1b4:	991d      	ldr	r1, [sp, #116]	; 0x74
 1b6:	4048      	eors	r0, r1
 1b8:	9048      	str	r0, [sp, #288]	; 0x120
_ZN6memchr8fallback18contains_zero_byte17hcf05c92d2c728c95E():
/Users/Luppy/.cargo/registry/src/github.com-1ecc6299db9ec823/memchr-2.2.0/src/fallback.rs:33
    x.wrapping_sub(LO_USIZE) & !x & HI_USIZE != 0
 1ba:	9848      	ldr	r0, [sp, #288]	; 0x120
 1bc:	f04f 3101 	mov.w	r1, #16843009	; 0x1010101
 1c0:	f7ff fffe 	bl	0 <_ZN4core3num23_$LT$impl$u20$usize$GT$12wrapping_sub17h049a26b7a4ff5318E>
 1c4:	9948      	ldr	r1, [sp, #288]	; 0x120
 1c6:	4388      	bics	r0, r1
 1c8:	f020 307f 	bic.w	r0, r0, #2139062143	; 0x7f7f7f7f
 1cc:	2800      	cmp	r0, #0
 1ce:	bf18      	it	ne
 1d0:	2001      	movne	r0, #1
_ZN6memchr8fallback8memrchr217hb3b78525947b7432E():
/Users/Luppy/.cargo/registry/src/github.com-1ecc6299db9ec823/memchr-2.2.0/src/fallback.rs:220
        let eq1 = contains_zero_byte(chunk ^ vn1);
 1d2:	f88d 009c 	strb.w	r0, [sp, #156]	; 0x9c
 1d6:	e7ff      	b.n	1d8 <_ZN6memchr8fallback8memrchr217hb3b78525947b7432E+0x1d8>
/Users/Luppy/.cargo/registry/src/github.com-1ecc6299db9ec823/memchr-2.2.0/src/fallback.rs:221
        let eq2 = contains_zero_byte(chunk ^ vn2);
 1d8:	9826      	ldr	r0, [sp, #152]	; 0x98
 1da:	991e      	ldr	r1, [sp, #120]	; 0x78
 1dc:	4048      	eors	r0, r1
 1de:	9049      	str	r0, [sp, #292]	; 0x124
_ZN6memchr8fallback18contains_zero_byte17hcf05c92d2c728c95E():
/Users/Luppy/.cargo/registry/src/github.com-1ecc6299db9ec823/memchr-2.2.0/src/fallback.rs:33
    x.wrapping_sub(LO_USIZE) & !x & HI_USIZE != 0
 1e0:	9849      	ldr	r0, [sp, #292]	; 0x124
 1e2:	f04f 3101 	mov.w	r1, #16843009	; 0x1010101
 1e6:	f7ff fffe 	bl	0 <_ZN4core3num23_$LT$impl$u20$usize$GT$12wrapping_sub17h049a26b7a4ff5318E>
 1ea:	9949      	ldr	r1, [sp, #292]	; 0x124
 1ec:	4388      	bics	r0, r1
 1ee:	f020 307f 	bic.w	r0, r0, #2139062143	; 0x7f7f7f7f
 1f2:	2800      	cmp	r0, #0
 1f4:	bf18      	it	ne
 1f6:	2001      	movne	r0, #1
_ZN6memchr8fallback8memrchr217hb3b78525947b7432E():
/Users/Luppy/.cargo/registry/src/github.com-1ecc6299db9ec823/memchr-2.2.0/src/fallback.rs:221
        let eq2 = contains_zero_byte(chunk ^ vn2);
 1f8:	f88d 009d 	strb.w	r0, [sp, #157]	; 0x9d
 1fc:	e7ff      	b.n	1fe <_ZN6memchr8fallback8memrchr217hb3b78525947b7432E+0x1fe>
/Users/Luppy/.cargo/registry/src/github.com-1ecc6299db9ec823/memchr-2.2.0/src/fallback.rs:222
        if eq1 || eq2 {
 1fe:	f89d 009c 	ldrb.w	r0, [sp, #156]	; 0x9c
 202:	07c0      	lsls	r0, r0, #31
 204:	2800      	cmp	r0, #0
 206:	d004      	beq.n	212 <_ZN6memchr8fallback8memrchr217hb3b78525947b7432E+0x212>
 208:	e7ff      	b.n	20a <_ZN6memchr8fallback8memrchr217hb3b78525947b7432E+0x20a>
 20a:	2001      	movs	r0, #1
 20c:	f88d 009e 	strb.w	r0, [sp, #158]	; 0x9e
 210:	e004      	b.n	21c <_ZN6memchr8fallback8memrchr217hb3b78525947b7432E+0x21c>
 212:	f89d 009d 	ldrb.w	r0, [sp, #157]	; 0x9d
 216:	f88d 009e 	strb.w	r0, [sp, #158]	; 0x9e
 21a:	e7ff      	b.n	21c <_ZN6memchr8fallback8memrchr217hb3b78525947b7432E+0x21c>
 21c:	f89d 009e 	ldrb.w	r0, [sp, #158]	; 0x9e
 220:	07c0      	lsls	r0, r0, #31
 222:	2800      	cmp	r0, #0
 224:	d04e      	beq.n	2c4 <_ZN6memchr8fallback8memrchr217hb3b78525947b7432E+0x2c4>
 226:	e7ff      	b.n	228 <_ZN6memchr8fallback8memrchr217hb3b78525947b7432E+0x228>
/Users/Luppy/.cargo/registry/src/github.com-1ecc6299db9ec823/memchr-2.2.0/src/fallback.rs:223
            return reverse_search(start_ptr, end_ptr, ptr, confirm);
 228:	9822      	ldr	r0, [sp, #136]	; 0x88
 22a:	9923      	ldr	r1, [sp, #140]	; 0x8c
 22c:	9a25      	ldr	r2, [sp, #148]	; 0x94
 22e:	9b1f      	ldr	r3, [sp, #124]	; 0x7c
 230:	f8dd c080 	ldr.w	ip, [sp, #128]	; 0x80
 234:	904a      	str	r0, [sp, #296]	; 0x128
 236:	914b      	str	r1, [sp, #300]	; 0x12c
 238:	924c      	str	r2, [sp, #304]	; 0x130
 23a:	934d      	str	r3, [sp, #308]	; 0x134
 23c:	f8cd c138 	str.w	ip, [sp, #312]	; 0x138
_ZN6memchr8fallback14reverse_search17hcb8726e52fd19798E():
/Users/Luppy/.cargo/registry/src/github.com-1ecc6299db9ec823/memchr-2.2.0/src/fallback.rs:311
    debug_assert!(start_ptr <= ptr);
 240:	984a      	ldr	r0, [sp, #296]	; 0x128
 242:	994c      	ldr	r1, [sp, #304]	; 0x130
 244:	4288      	cmp	r0, r1
 246:	d907      	bls.n	258 <_ZN6memchr8fallback8memrchr217hb3b78525947b7432E+0x258>
 248:	e7ff      	b.n	24a <_ZN6memchr8fallback8memrchr217hb3b78525947b7432E+0x24a>
 24a:	f240 0000 	movw	r0, #0
 24e:	f2c0 0000 	movt	r0, #0
 252:	f7ff fffe 	bl	0 <_ZN4core9panicking5panic17h53ca63c6ac6312f8E>
 256:	defe      	udf	#254	; 0xfe
/Users/Luppy/.cargo/registry/src/github.com-1ecc6299db9ec823/memchr-2.2.0/src/fallback.rs:312
    debug_assert!(ptr <= end_ptr);
 258:	984c      	ldr	r0, [sp, #304]	; 0x130
 25a:	994b      	ldr	r1, [sp, #300]	; 0x12c
 25c:	4288      	cmp	r0, r1
 25e:	d907      	bls.n	270 <_ZN6memchr8fallback8memrchr217hb3b78525947b7432E+0x270>
 260:	e7ff      	b.n	262 <_ZN6memchr8fallback8memrchr217hb3b78525947b7432E+0x262>
 262:	f240 0000 	movw	r0, #0
 266:	f2c0 0000 	movt	r0, #0
 26a:	f7ff fffe 	bl	0 <_ZN4core9panicking5panic17h53ca63c6ac6312f8E>
 26e:	defe      	udf	#254	; 0xfe
/Users/Luppy/.cargo/registry/src/github.com-1ecc6299db9ec823/memchr-2.2.0/src/fallback.rs:314
    while ptr > start_ptr {
 270:	e7ff      	b.n	272 <_ZN6memchr8fallback8memrchr217hb3b78525947b7432E+0x272>
 272:	984c      	ldr	r0, [sp, #304]	; 0x130
 274:	994a      	ldr	r1, [sp, #296]	; 0x128
 276:	4288      	cmp	r0, r1
 278:	d803      	bhi.n	282 <_ZN6memchr8fallback8memrchr217hb3b78525947b7432E+0x282>
 27a:	e7ff      	b.n	27c <_ZN6memchr8fallback8memrchr217hb3b78525947b7432E+0x27c>
 27c:	2000      	movs	r0, #0
/Users/Luppy/.cargo/registry/src/github.com-1ecc6299db9ec823/memchr-2.2.0/src/fallback.rs:320
    None
 27e:	904f      	str	r0, [sp, #316]	; 0x13c
/Users/Luppy/.cargo/registry/src/github.com-1ecc6299db9ec823/memchr-2.2.0/src/fallback.rs:321
}
 280:	e01a      	b.n	2b8 <_ZN6memchr8fallback8memrchr217hb3b78525947b7432E+0x2b8>
/Users/Luppy/.cargo/registry/src/github.com-1ecc6299db9ec823/memchr-2.2.0/src/fallback.rs:315
        ptr = ptr.offset(-1);
 282:	984c      	ldr	r0, [sp, #304]	; 0x130
 284:	f04f 31ff 	mov.w	r1, #4294967295	; 0xffffffff
 288:	f7ff fffe 	bl	0 <_ZN4core3ptr33_$LT$impl$u20$$BP$const$u20$T$GT$6offset17h1b1bd4fc0c06f6a7E>
 28c:	904c      	str	r0, [sp, #304]	; 0x130
/Users/Luppy/.cargo/registry/src/github.com-1ecc6299db9ec823/memchr-2.2.0/src/fallback.rs:316
        if confirm(*ptr) {
 28e:	984c      	ldr	r0, [sp, #304]	; 0x130
 290:	7800      	ldrb	r0, [r0, #0]
 292:	f88d 0147 	strb.w	r0, [sp, #327]	; 0x147
 296:	f89d 1147 	ldrb.w	r1, [sp, #327]	; 0x147
 29a:	a84d      	add	r0, sp, #308	; 0x134
 29c:	f7ff fffe 	bl	0 <_ZN6memchr8fallback8memrchr217hb3b78525947b7432E>
 2a0:	2800      	cmp	r0, #0
 2a2:	d008      	beq.n	2b6 <_ZN6memchr8fallback8memrchr217hb3b78525947b7432E+0x2b6>
 2a4:	e7ff      	b.n	2a6 <_ZN6memchr8fallback8memrchr217hb3b78525947b7432E+0x2a6>
/Users/Luppy/.cargo/registry/src/github.com-1ecc6299db9ec823/memchr-2.2.0/src/fallback.rs:317
            return Some(sub(ptr, start_ptr));
 2a6:	984c      	ldr	r0, [sp, #304]	; 0x130
 2a8:	994a      	ldr	r1, [sp, #296]	; 0x128
 2aa:	f7ff fffe 	bl	0 <_ZN6memchr8fallback8memrchr217hb3b78525947b7432E>
 2ae:	9050      	str	r0, [sp, #320]	; 0x140
 2b0:	2001      	movs	r0, #1
 2b2:	904f      	str	r0, [sp, #316]	; 0x13c
/Users/Luppy/.cargo/registry/src/github.com-1ecc6299db9ec823/memchr-2.2.0/src/fallback.rs:321
}
 2b4:	e000      	b.n	2b8 <_ZN6memchr8fallback8memrchr217hb3b78525947b7432E+0x2b8>
/Users/Luppy/.cargo/registry/src/github.com-1ecc6299db9ec823/memchr-2.2.0/src/fallback.rs:314
    while ptr > start_ptr {
 2b6:	e7dc      	b.n	272 <_ZN6memchr8fallback8memrchr217hb3b78525947b7432E+0x272>
/Users/Luppy/.cargo/registry/src/github.com-1ecc6299db9ec823/memchr-2.2.0/src/fallback.rs:321
}
 2b8:	984f      	ldr	r0, [sp, #316]	; 0x13c
 2ba:	9950      	ldr	r1, [sp, #320]	; 0x140
_ZN6memchr8fallback8memrchr217hb3b78525947b7432E():
/Users/Luppy/.cargo/registry/src/github.com-1ecc6299db9ec823/memchr-2.2.0/src/fallback.rs:223
            return reverse_search(start_ptr, end_ptr, ptr, confirm);
 2bc:	911c      	str	r1, [sp, #112]	; 0x70
 2be:	901b      	str	r0, [sp, #108]	; 0x6c
 2c0:	e7ff      	b.n	2c2 <_ZN6memchr8fallback8memrchr217hb3b78525947b7432E+0x2c2>
 2c2:	e76a      	b.n	19a <_ZN6memchr8fallback8memrchr217hb3b78525947b7432E+0x19a>
/Users/Luppy/.cargo/registry/src/github.com-1ecc6299db9ec823/memchr-2.2.0/src/fallback.rs:226
        ptr = (end_ptr as usize & !align) as *const u8;
 2c4:	9823      	ldr	r0, [sp, #140]	; 0x8c
 2c6:	9921      	ldr	r1, [sp, #132]	; 0x84
 2c8:	4388      	bics	r0, r1
 2ca:	9025      	str	r0, [sp, #148]	; 0x94
 2cc:	2000      	movs	r0, #0
/Users/Luppy/.cargo/registry/src/github.com-1ecc6299db9ec823/memchr-2.2.0/src/fallback.rs:227
        debug_assert!(start_ptr <= ptr && ptr <= end_ptr);
 2ce:	2800      	cmp	r0, #0
 2d0:	d120      	bne.n	314 <_ZN6memchr8fallback8memrchr217hb3b78525947b7432E+0x314>
 2d2:	e7ff      	b.n	2d4 <_ZN6memchr8fallback8memrchr217hb3b78525947b7432E+0x2d4>
 2d4:	9822      	ldr	r0, [sp, #136]	; 0x88
 2d6:	9925      	ldr	r1, [sp, #148]	; 0x94
 2d8:	4288      	cmp	r0, r1
 2da:	d904      	bls.n	2e6 <_ZN6memchr8fallback8memrchr217hb3b78525947b7432E+0x2e6>
 2dc:	e7ff      	b.n	2de <_ZN6memchr8fallback8memrchr217hb3b78525947b7432E+0x2de>
 2de:	2000      	movs	r0, #0
 2e0:	f88d 009f 	strb.w	r0, [sp, #159]	; 0x9f
 2e4:	e008      	b.n	2f8 <_ZN6memchr8fallback8memrchr217hb3b78525947b7432E+0x2f8>
 2e6:	9825      	ldr	r0, [sp, #148]	; 0x94
 2e8:	9923      	ldr	r1, [sp, #140]	; 0x8c
 2ea:	2200      	movs	r2, #0
 2ec:	4288      	cmp	r0, r1
 2ee:	bf98      	it	ls
 2f0:	2201      	movls	r2, #1
 2f2:	f88d 209f 	strb.w	r2, [sp, #159]	; 0x9f
 2f6:	e7ff      	b.n	2f8 <_ZN6memchr8fallback8memrchr217hb3b78525947b7432E+0x2f8>
 2f8:	f89d 009f 	ldrb.w	r0, [sp, #159]	; 0x9f
 2fc:	07c0      	lsls	r0, r0, #31
 2fe:	2800      	cmp	r0, #0
 300:	d107      	bne.n	312 <_ZN6memchr8fallback8memrchr217hb3b78525947b7432E+0x312>
 302:	e7ff      	b.n	304 <_ZN6memchr8fallback8memrchr217hb3b78525947b7432E+0x304>
 304:	f240 0000 	movw	r0, #0
 308:	f2c0 0000 	movt	r0, #0
 30c:	f7ff fffe 	bl	0 <_ZN4core9panicking5panic17h53ca63c6ac6312f8E>
 310:	defe      	udf	#254	; 0xfe
 312:	e7ff      	b.n	314 <_ZN6memchr8fallback8memrchr217hb3b78525947b7432E+0x314>
/Users/Luppy/.cargo/registry/src/github.com-1ecc6299db9ec823/memchr-2.2.0/src/fallback.rs:228
        while ptr >= ptr_add(start_ptr, USIZE_BYTES) {
 314:	e7ff      	b.n	316 <_ZN6memchr8fallback8memrchr217hb3b78525947b7432E+0x316>
 316:	9825      	ldr	r0, [sp, #148]	; 0x94
 318:	9922      	ldr	r1, [sp, #136]	; 0x88
 31a:	2204      	movs	r2, #4
 31c:	9009      	str	r0, [sp, #36]	; 0x24
 31e:	4608      	mov	r0, r1
 320:	4611      	mov	r1, r2
 322:	f7ff fffe 	bl	0 <_ZN6memchr8fallback8memrchr217hb3b78525947b7432E>
 326:	9008      	str	r0, [sp, #32]
 328:	e04c      	b.n	3c4 <_ZN6memchr8fallback8memrchr217hb3b78525947b7432E+0x3c4>
/Users/Luppy/.cargo/registry/src/github.com-1ecc6299db9ec823/memchr-2.2.0/src/fallback.rs:239
        reverse_search(start_ptr, end_ptr, ptr, confirm)
 32a:	9822      	ldr	r0, [sp, #136]	; 0x88
 32c:	9923      	ldr	r1, [sp, #140]	; 0x8c
 32e:	9a25      	ldr	r2, [sp, #148]	; 0x94
 330:	9b1f      	ldr	r3, [sp, #124]	; 0x7c
 332:	f8dd c080 	ldr.w	ip, [sp, #128]	; 0x80
 336:	9052      	str	r0, [sp, #328]	; 0x148
 338:	9153      	str	r1, [sp, #332]	; 0x14c
 33a:	9254      	str	r2, [sp, #336]	; 0x150
 33c:	9355      	str	r3, [sp, #340]	; 0x154
 33e:	f8cd c158 	str.w	ip, [sp, #344]	; 0x158
_ZN6memchr8fallback14reverse_search17hcb8726e52fd19798E():
/Users/Luppy/.cargo/registry/src/github.com-1ecc6299db9ec823/memchr-2.2.0/src/fallback.rs:311
    debug_assert!(start_ptr <= ptr);
 342:	9852      	ldr	r0, [sp, #328]	; 0x148
 344:	9954      	ldr	r1, [sp, #336]	; 0x150
 346:	4288      	cmp	r0, r1
 348:	d907      	bls.n	35a <_ZN6memchr8fallback8memrchr217hb3b78525947b7432E+0x35a>
 34a:	e7ff      	b.n	34c <_ZN6memchr8fallback8memrchr217hb3b78525947b7432E+0x34c>
 34c:	f240 0000 	movw	r0, #0
 350:	f2c0 0000 	movt	r0, #0
 354:	f7ff fffe 	bl	0 <_ZN4core9panicking5panic17h53ca63c6ac6312f8E>
 358:	defe      	udf	#254	; 0xfe
/Users/Luppy/.cargo/registry/src/github.com-1ecc6299db9ec823/memchr-2.2.0/src/fallback.rs:312
    debug_assert!(ptr <= end_ptr);
 35a:	9854      	ldr	r0, [sp, #336]	; 0x150
 35c:	9953      	ldr	r1, [sp, #332]	; 0x14c
 35e:	4288      	cmp	r0, r1
 360:	d907      	bls.n	372 <_ZN6memchr8fallback8memrchr217hb3b78525947b7432E+0x372>
 362:	e7ff      	b.n	364 <_ZN6memchr8fallback8memrchr217hb3b78525947b7432E+0x364>
 364:	f240 0000 	movw	r0, #0
 368:	f2c0 0000 	movt	r0, #0
 36c:	f7ff fffe 	bl	0 <_ZN4core9panicking5panic17h53ca63c6ac6312f8E>
 370:	defe      	udf	#254	; 0xfe
/Users/Luppy/.cargo/registry/src/github.com-1ecc6299db9ec823/memchr-2.2.0/src/fallback.rs:314
    while ptr > start_ptr {
 372:	e7ff      	b.n	374 <_ZN6memchr8fallback8memrchr217hb3b78525947b7432E+0x374>
 374:	9854      	ldr	r0, [sp, #336]	; 0x150
 376:	9952      	ldr	r1, [sp, #328]	; 0x148
 378:	4288      	cmp	r0, r1
 37a:	d803      	bhi.n	384 <_ZN6memchr8fallback8memrchr217hb3b78525947b7432E+0x384>
 37c:	e7ff      	b.n	37e <_ZN6memchr8fallback8memrchr217hb3b78525947b7432E+0x37e>
 37e:	2000      	movs	r0, #0
/Users/Luppy/.cargo/registry/src/github.com-1ecc6299db9ec823/memchr-2.2.0/src/fallback.rs:320
    None
 380:	9057      	str	r0, [sp, #348]	; 0x15c
/Users/Luppy/.cargo/registry/src/github.com-1ecc6299db9ec823/memchr-2.2.0/src/fallback.rs:321
}
 382:	e01a      	b.n	3ba <_ZN6memchr8fallback8memrchr217hb3b78525947b7432E+0x3ba>
/Users/Luppy/.cargo/registry/src/github.com-1ecc6299db9ec823/memchr-2.2.0/src/fallback.rs:315
        ptr = ptr.offset(-1);
 384:	9854      	ldr	r0, [sp, #336]	; 0x150
 386:	f04f 31ff 	mov.w	r1, #4294967295	; 0xffffffff
 38a:	f7ff fffe 	bl	0 <_ZN4core3ptr33_$LT$impl$u20$$BP$const$u20$T$GT$6offset17h1b1bd4fc0c06f6a7E>
 38e:	9054      	str	r0, [sp, #336]	; 0x150
/Users/Luppy/.cargo/registry/src/github.com-1ecc6299db9ec823/memchr-2.2.0/src/fallback.rs:316
        if confirm(*ptr) {
 390:	9854      	ldr	r0, [sp, #336]	; 0x150
 392:	7800      	ldrb	r0, [r0, #0]
 394:	f88d 0167 	strb.w	r0, [sp, #359]	; 0x167
 398:	f89d 1167 	ldrb.w	r1, [sp, #359]	; 0x167
 39c:	a855      	add	r0, sp, #340	; 0x154
 39e:	f7ff fffe 	bl	0 <_ZN6memchr8fallback8memrchr217hb3b78525947b7432E>
 3a2:	2800      	cmp	r0, #0
 3a4:	d008      	beq.n	3b8 <_ZN6memchr8fallback8memrchr217hb3b78525947b7432E+0x3b8>
 3a6:	e7ff      	b.n	3a8 <_ZN6memchr8fallback8memrchr217hb3b78525947b7432E+0x3a8>
/Users/Luppy/.cargo/registry/src/github.com-1ecc6299db9ec823/memchr-2.2.0/src/fallback.rs:317
            return Some(sub(ptr, start_ptr));
 3a8:	9854      	ldr	r0, [sp, #336]	; 0x150
 3aa:	9952      	ldr	r1, [sp, #328]	; 0x148
 3ac:	f7ff fffe 	bl	0 <_ZN6memchr8fallback8memrchr217hb3b78525947b7432E>
 3b0:	9058      	str	r0, [sp, #352]	; 0x160
 3b2:	2001      	movs	r0, #1
 3b4:	9057      	str	r0, [sp, #348]	; 0x15c
/Users/Luppy/.cargo/registry/src/github.com-1ecc6299db9ec823/memchr-2.2.0/src/fallback.rs:321
}
 3b6:	e000      	b.n	3ba <_ZN6memchr8fallback8memrchr217hb3b78525947b7432E+0x3ba>
/Users/Luppy/.cargo/registry/src/github.com-1ecc6299db9ec823/memchr-2.2.0/src/fallback.rs:314
    while ptr > start_ptr {
 3b8:	e7dc      	b.n	374 <_ZN6memchr8fallback8memrchr217hb3b78525947b7432E+0x374>
/Users/Luppy/.cargo/registry/src/github.com-1ecc6299db9ec823/memchr-2.2.0/src/fallback.rs:321
}
 3ba:	9857      	ldr	r0, [sp, #348]	; 0x15c
 3bc:	9958      	ldr	r1, [sp, #352]	; 0x160
_ZN6memchr8fallback8memrchr217hb3b78525947b7432E():
/Users/Luppy/.cargo/registry/src/github.com-1ecc6299db9ec823/memchr-2.2.0/src/fallback.rs:239
        reverse_search(start_ptr, end_ptr, ptr, confirm)
 3be:	911c      	str	r1, [sp, #112]	; 0x70
 3c0:	901b      	str	r0, [sp, #108]	; 0x6c
 3c2:	e0af      	b.n	524 <_ZN6memchr8fallback8memrchr217hb3b78525947b7432E+0x524>
/Users/Luppy/.cargo/registry/src/github.com-1ecc6299db9ec823/memchr-2.2.0/src/fallback.rs:228
        while ptr >= ptr_add(start_ptr, USIZE_BYTES) {
 3c4:	9809      	ldr	r0, [sp, #36]	; 0x24
 3c6:	9908      	ldr	r1, [sp, #32]
 3c8:	4288      	cmp	r0, r1
 3ca:	d3ae      	bcc.n	32a <_ZN6memchr8fallback8memrchr217hb3b78525947b7432E+0x32a>
 3cc:	e7ff      	b.n	3ce <_ZN6memchr8fallback8memrchr217hb3b78525947b7432E+0x3ce>
 3ce:	2000      	movs	r0, #0
/Users/Luppy/.cargo/registry/src/github.com-1ecc6299db9ec823/memchr-2.2.0/src/fallback.rs:229
            debug_assert_eq!(0, (ptr as usize) % USIZE_BYTES);
 3d0:	2800      	cmp	r0, #0
 3d2:	d159      	bne.n	488 <_ZN6memchr8fallback8memrchr217hb3b78525947b7432E+0x488>
 3d4:	e7ff      	b.n	3d6 <_ZN6memchr8fallback8memrchr217hb3b78525947b7432E+0x3d6>
 3d6:	9825      	ldr	r0, [sp, #148]	; 0x94
 3d8:	9007      	str	r0, [sp, #28]
 3da:	e7ff      	b.n	3dc <_ZN6memchr8fallback8memrchr217hb3b78525947b7432E+0x3dc>
 3dc:	9807      	ldr	r0, [sp, #28]
 3de:	f000 0103 	and.w	r1, r0, #3
 3e2:	912a      	str	r1, [sp, #168]	; 0xa8
 3e4:	f240 0100 	movw	r1, #0
 3e8:	f2c0 0100 	movt	r1, #0
 3ec:	9128      	str	r1, [sp, #160]	; 0xa0
 3ee:	a92a      	add	r1, sp, #168	; 0xa8
 3f0:	9129      	str	r1, [sp, #164]	; 0xa4
 3f2:	9928      	ldr	r1, [sp, #160]	; 0xa0
 3f4:	912b      	str	r1, [sp, #172]	; 0xac
 3f6:	9929      	ldr	r1, [sp, #164]	; 0xa4
 3f8:	912c      	str	r1, [sp, #176]	; 0xb0
 3fa:	992b      	ldr	r1, [sp, #172]	; 0xac
 3fc:	6809      	ldr	r1, [r1, #0]
 3fe:	9a2c      	ldr	r2, [sp, #176]	; 0xb0
 400:	6812      	ldr	r2, [r2, #0]
 402:	4291      	cmp	r1, r2
 404:	d016      	beq.n	434 <_ZN6memchr8fallback8memrchr217hb3b78525947b7432E+0x434>
 406:	e7ff      	b.n	408 <_ZN6memchr8fallback8memrchr217hb3b78525947b7432E+0x408>
 408:	982b      	ldr	r0, [sp, #172]	; 0xac
 40a:	9039      	str	r0, [sp, #228]	; 0xe4
 40c:	982c      	ldr	r0, [sp, #176]	; 0xb0
 40e:	903a      	str	r0, [sp, #232]	; 0xe8
 410:	a839      	add	r0, sp, #228	; 0xe4
 412:	9037      	str	r0, [sp, #220]	; 0xdc
 414:	a83a      	add	r0, sp, #232	; 0xe8
 416:	9038      	str	r0, [sp, #224]	; 0xe0
 418:	9837      	ldr	r0, [sp, #220]	; 0xdc
 41a:	903b      	str	r0, [sp, #236]	; 0xec
 41c:	9838      	ldr	r0, [sp, #224]	; 0xe0
 41e:	903c      	str	r0, [sp, #240]	; 0xf0
 420:	983b      	ldr	r0, [sp, #236]	; 0xec
 422:	f240 0100 	movw	r1, #0
 426:	f2c0 0100 	movt	r1, #0
 42a:	f7ff fffe 	bl	0 <_ZN4core3fmt10ArgumentV13new17he7aeb924cd1c8272E>
 42e:	9006      	str	r0, [sp, #24]
 430:	9105      	str	r1, [sp, #20]
 432:	e000      	b.n	436 <_ZN6memchr8fallback8memrchr217hb3b78525947b7432E+0x436>
 434:	e028      	b.n	488 <_ZN6memchr8fallback8memrchr217hb3b78525947b7432E+0x488>
 436:	983c      	ldr	r0, [sp, #240]	; 0xf0
 438:	f240 0100 	movw	r1, #0
 43c:	f2c0 0100 	movt	r1, #0
 440:	f7ff fffe 	bl	0 <_ZN4core3fmt10ArgumentV13new17he7aeb924cd1c8272E>
 444:	9004      	str	r0, [sp, #16]
 446:	9103      	str	r1, [sp, #12]
 448:	e7ff      	b.n	44a <_ZN6memchr8fallback8memrchr217hb3b78525947b7432E+0x44a>
 44a:	9806      	ldr	r0, [sp, #24]
 44c:	9033      	str	r0, [sp, #204]	; 0xcc
 44e:	9905      	ldr	r1, [sp, #20]
 450:	9134      	str	r1, [sp, #208]	; 0xd0
 452:	9a04      	ldr	r2, [sp, #16]
 454:	9235      	str	r2, [sp, #212]	; 0xd4
 456:	9b03      	ldr	r3, [sp, #12]
 458:	9336      	str	r3, [sp, #216]	; 0xd8
 45a:	46ec      	mov	ip, sp
 45c:	f04f 0e02 	mov.w	lr, #2
 460:	f8cc e000 	str.w	lr, [ip]
 464:	f240 0100 	movw	r1, #0
 468:	f2c0 0100 	movt	r1, #0
 46c:	a82d      	add	r0, sp, #180	; 0xb4
 46e:	2203      	movs	r2, #3
 470:	ab33      	add	r3, sp, #204	; 0xcc
 472:	f7ff fffe 	bl	0 <_ZN4core3fmt9Arguments6new_v117h97fab7064a36d1a4E>
 476:	e7ff      	b.n	2 <_ZN6memchr8fallback8memrchr217hb3b78525947b7432E+0x2>
 478:	f240 0100 	movw	r1, #0
 47c:	f2c0 0100 	movt	r1, #0
 480:	a82d      	add	r0, sp, #180	; 0xb4
 482:	f7ff fffe 	bl	0 <_ZN4core9panicking9panic_fmt17h6b4d8e87b0965449E>
 486:	defe      	udf	#254	; 0xfe
/Users/Luppy/.cargo/registry/src/github.com-1ecc6299db9ec823/memchr-2.2.0/src/fallback.rs:231
            let chunk = *(ptr_sub(ptr, USIZE_BYTES) as *const usize);
 488:	9825      	ldr	r0, [sp, #148]	; 0x94
 48a:	2104      	movs	r1, #4
 48c:	f7ff fffe 	bl	0 <_ZN6memchr8fallback8memrchr217hb3b78525947b7432E>
 490:	9002      	str	r0, [sp, #8]
 492:	e7ff      	b.n	494 <_ZN6memchr8fallback8memrchr217hb3b78525947b7432E+0x494>
 494:	9802      	ldr	r0, [sp, #8]
 496:	6801      	ldr	r1, [r0, #0]
 498:	913d      	str	r1, [sp, #244]	; 0xf4
/Users/Luppy/.cargo/registry/src/github.com-1ecc6299db9ec823/memchr-2.2.0/src/fallback.rs:232
            let eq1 = contains_zero_byte(chunk ^ vn1);
 49a:	993d      	ldr	r1, [sp, #244]	; 0xf4
 49c:	9a1d      	ldr	r2, [sp, #116]	; 0x74
 49e:	4051      	eors	r1, r2
 4a0:	915a      	str	r1, [sp, #360]	; 0x168
_ZN6memchr8fallback18contains_zero_byte17hcf05c92d2c728c95E():
/Users/Luppy/.cargo/registry/src/github.com-1ecc6299db9ec823/memchr-2.2.0/src/fallback.rs:33
    x.wrapping_sub(LO_USIZE) & !x & HI_USIZE != 0
 4a2:	985a      	ldr	r0, [sp, #360]	; 0x168
 4a4:	f04f 3101 	mov.w	r1, #16843009	; 0x1010101
 4a8:	f7ff fffe 	bl	0 <_ZN4core3num23_$LT$impl$u20$usize$GT$12wrapping_sub17h049a26b7a4ff5318E>
 4ac:	995a      	ldr	r1, [sp, #360]	; 0x168
 4ae:	4388      	bics	r0, r1
 4b0:	f020 307f 	bic.w	r0, r0, #2139062143	; 0x7f7f7f7f
 4b4:	2800      	cmp	r0, #0
 4b6:	bf18      	it	ne
 4b8:	2001      	movne	r0, #1
_ZN6memchr8fallback8memrchr217hb3b78525947b7432E():
/Users/Luppy/.cargo/registry/src/github.com-1ecc6299db9ec823/memchr-2.2.0/src/fallback.rs:232
            let eq1 = contains_zero_byte(chunk ^ vn1);
 4ba:	f88d 00fb 	strb.w	r0, [sp, #251]	; 0xfb
 4be:	e7ff      	b.n	4c0 <_ZN6memchr8fallback8memrchr217hb3b78525947b7432E+0x4c0>
/Users/Luppy/.cargo/registry/src/github.com-1ecc6299db9ec823/memchr-2.2.0/src/fallback.rs:233
            let eq2 = contains_zero_byte(chunk ^ vn2);
 4c0:	983d      	ldr	r0, [sp, #244]	; 0xf4
 4c2:	991e      	ldr	r1, [sp, #120]	; 0x78
 4c4:	4048      	eors	r0, r1
 4c6:	905b      	str	r0, [sp, #364]	; 0x16c
_ZN6memchr8fallback18contains_zero_byte17hcf05c92d2c728c95E():
/Users/Luppy/.cargo/registry/src/github.com-1ecc6299db9ec823/memchr-2.2.0/src/fallback.rs:33
    x.wrapping_sub(LO_USIZE) & !x & HI_USIZE != 0
 4c8:	985b      	ldr	r0, [sp, #364]	; 0x16c
 4ca:	f04f 3101 	mov.w	r1, #16843009	; 0x1010101
 4ce:	f7ff fffe 	bl	0 <_ZN4core3num23_$LT$impl$u20$usize$GT$12wrapping_sub17h049a26b7a4ff5318E>
 4d2:	995b      	ldr	r1, [sp, #364]	; 0x16c
 4d4:	4388      	bics	r0, r1
 4d6:	f020 307f 	bic.w	r0, r0, #2139062143	; 0x7f7f7f7f
 4da:	2800      	cmp	r0, #0
 4dc:	bf18      	it	ne
 4de:	2001      	movne	r0, #1
_ZN6memchr8fallback8memrchr217hb3b78525947b7432E():
/Users/Luppy/.cargo/registry/src/github.com-1ecc6299db9ec823/memchr-2.2.0/src/fallback.rs:233
            let eq2 = contains_zero_byte(chunk ^ vn2);
 4e0:	f88d 00fc 	strb.w	r0, [sp, #252]	; 0xfc
 4e4:	e7ff      	b.n	4e6 <_ZN6memchr8fallback8memrchr217hb3b78525947b7432E+0x4e6>
/Users/Luppy/.cargo/registry/src/github.com-1ecc6299db9ec823/memchr-2.2.0/src/fallback.rs:234
            if eq1 || eq2 {
 4e6:	f89d 00fb 	ldrb.w	r0, [sp, #251]	; 0xfb
 4ea:	07c0      	lsls	r0, r0, #31
 4ec:	2800      	cmp	r0, #0
 4ee:	d004      	beq.n	4fa <_ZN6memchr8fallback8memrchr217hb3b78525947b7432E+0x4fa>
 4f0:	e7ff      	b.n	4f2 <_ZN6memchr8fallback8memrchr217hb3b78525947b7432E+0x4f2>
 4f2:	2001      	movs	r0, #1
 4f4:	f88d 00fd 	strb.w	r0, [sp, #253]	; 0xfd
 4f8:	e004      	b.n	504 <_ZN6memchr8fallback8memrchr217hb3b78525947b7432E+0x504>
 4fa:	f89d 00fc 	ldrb.w	r0, [sp, #252]	; 0xfc
 4fe:	f88d 00fd 	strb.w	r0, [sp, #253]	; 0xfd
 502:	e7ff      	b.n	504 <_ZN6memchr8fallback8memrchr217hb3b78525947b7432E+0x504>
 504:	f89d 00fd 	ldrb.w	r0, [sp, #253]	; 0xfd
 508:	07c0      	lsls	r0, r0, #31
 50a:	2800      	cmp	r0, #0
 50c:	d001      	beq.n	512 <_ZN6memchr8fallback8memrchr217hb3b78525947b7432E+0x512>
 50e:	e7ff      	b.n	510 <_ZN6memchr8fallback8memrchr217hb3b78525947b7432E+0x510>
/Users/Luppy/.cargo/registry/src/github.com-1ecc6299db9ec823/memchr-2.2.0/src/fallback.rs:235
                break;
 510:	e70b      	b.n	32a <_ZN6memchr8fallback8memrchr217hb3b78525947b7432E+0x32a>
/Users/Luppy/.cargo/registry/src/github.com-1ecc6299db9ec823/memchr-2.2.0/src/fallback.rs:237
            ptr = ptr_sub(ptr, USIZE_BYTES);
 512:	9825      	ldr	r0, [sp, #148]	; 0x94
 514:	2104      	movs	r1, #4
 516:	f7ff fffe 	bl	0 <_ZN6memchr8fallback8memrchr217hb3b78525947b7432E>
 51a:	9001      	str	r0, [sp, #4]
 51c:	e7ff      	b.n	51e <_ZN6memchr8fallback8memrchr217hb3b78525947b7432E+0x51e>
 51e:	9801      	ldr	r0, [sp, #4]
 520:	9025      	str	r0, [sp, #148]	; 0x94
/Users/Luppy/.cargo/registry/src/github.com-1ecc6299db9ec823/memchr-2.2.0/src/fallback.rs:228
        while ptr >= ptr_add(start_ptr, USIZE_BYTES) {
 522:	e6f8      	b.n	316 <_ZN6memchr8fallback8memrchr217hb3b78525947b7432E+0x316>
/Users/Luppy/.cargo/registry/src/github.com-1ecc6299db9ec823/memchr-2.2.0/src/fallback.rs:241
}
 524:	e635      	b.n	192 <_ZN6memchr8fallback8memrchr217hb3b78525947b7432E+0x192>
/Users/Luppy/.cargo/registry/src/github.com-1ecc6299db9ec823/memchr-2.2.0/src/fallback.rs:209
    let align = USIZE_BYTES - 1;
 526:	f240 0000 	movw	r0, #0
 52a:	f2c0 0000 	movt	r0, #0
 52e:	f7ff fffe 	bl	0 <_ZN4core9panicking5panic17h53ca63c6ac6312f8E>
 532:	defe      	udf	#254	; 0xfe

Disassembly of section .text._ZN6memchr8fallback8memrchr228_$u7b$$u7b$closure$u7d$$u7d$17h2dd476c951dec92aE:

00000000 <_ZN6memchr8fallback8memrchr228_$u7b$$u7b$closure$u7d$$u7d$17h2dd476c951dec92aE>:
_ZN6memchr8fallback8memrchr228_$u7b$$u7b$closure$u7d$$u7d$17h2dd476c951dec92aE():
/Users/Luppy/.cargo/registry/src/github.com-1ecc6299db9ec823/memchr-2.2.0/src/fallback.rs:208
    let confirm = |byte| byte == n1 || byte == n2;
   0:	b084      	sub	sp, #16
   2:	460a      	mov	r2, r1
   4:	4603      	mov	r3, r0
   6:	9002      	str	r0, [sp, #8]
   8:	f88d 100e 	strb.w	r1, [sp, #14]
   c:	f89d 000e 	ldrb.w	r0, [sp, #14]
  10:	9902      	ldr	r1, [sp, #8]
  12:	6809      	ldr	r1, [r1, #0]
  14:	7809      	ldrb	r1, [r1, #0]
  16:	4288      	cmp	r0, r1
  18:	9201      	str	r2, [sp, #4]
  1a:	9300      	str	r3, [sp, #0]
  1c:	d104      	bne.n	28 <_ZN6memchr8fallback8memrchr228_$u7b$$u7b$closure$u7d$$u7d$17h2dd476c951dec92aE+0x28>
  1e:	e7ff      	b.n	20 <_ZN6memchr8fallback8memrchr228_$u7b$$u7b$closure$u7d$$u7d$17h2dd476c951dec92aE+0x20>
  20:	2001      	movs	r0, #1
  22:	f88d 000f 	strb.w	r0, [sp, #15]
  26:	e00b      	b.n	40 <_ZN6memchr8fallback8memrchr228_$u7b$$u7b$closure$u7d$$u7d$17h2dd476c951dec92aE+0x40>
  28:	f89d 000e 	ldrb.w	r0, [sp, #14]
  2c:	9902      	ldr	r1, [sp, #8]
  2e:	6849      	ldr	r1, [r1, #4]
  30:	7809      	ldrb	r1, [r1, #0]
  32:	1a40      	subs	r0, r0, r1
  34:	fab0 f080 	clz	r0, r0
  38:	0940      	lsrs	r0, r0, #5
  3a:	f88d 000f 	strb.w	r0, [sp, #15]
  3e:	e7ff      	b.n	40 <_ZN6memchr8fallback8memrchr228_$u7b$$u7b$closure$u7d$$u7d$17h2dd476c951dec92aE+0x40>
  40:	f89d 000f 	ldrb.w	r0, [sp, #15]
  44:	b004      	add	sp, #16
  46:	4770      	bx	lr

Disassembly of section .text._ZN6memchr8fallback8memrchr317he5f44dbc7e59aa13E:

00000000 <_ZN6memchr8fallback8memrchr317he5f44dbc7e59aa13E>:
_ZN6memchr8fallback8memrchr317he5f44dbc7e59aa13E():
/Users/Luppy/.cargo/registry/src/github.com-1ecc6299db9ec823/memchr-2.2.0/src/fallback.rs:244
pub fn memrchr3(n1: u8, n2: u8, n3: u8, haystack: &[u8]) -> Option<usize> {
   0:	b570      	push	{r4, r5, r6, lr}
   2:	b0e8      	sub	sp, #416	; 0x1a0
   4:	f8dd c1b0 	ldr.w	ip, [sp, #432]	; 0x1b0
   8:	469e      	mov	lr, r3
   a:	4614      	mov	r4, r2
   c:	460d      	mov	r5, r1
   e:	4606      	mov	r6, r0
  10:	f88d 0069 	strb.w	r0, [sp, #105]	; 0x69
  14:	f88d 106a 	strb.w	r1, [sp, #106]	; 0x6a
  18:	f88d 206b 	strb.w	r2, [sp, #107]	; 0x6b
  1c:	931b      	str	r3, [sp, #108]	; 0x6c
  1e:	f8cd c070 	str.w	ip, [sp, #112]	; 0x70
/Users/Luppy/.cargo/registry/src/github.com-1ecc6299db9ec823/memchr-2.2.0/src/fallback.rs:245
    let vn1 = repeat_byte(n1);
  22:	f89d 0069 	ldrb.w	r0, [sp, #105]	; 0x69
  26:	f88d 013d 	strb.w	r0, [sp, #317]	; 0x13d
_ZN6memchr8fallback11repeat_byte17h6374a9c8a738a5e1E():
/Users/Luppy/.cargo/registry/src/github.com-1ecc6299db9ec823/memchr-2.2.0/src/fallback.rs:42
    (b as usize) * (usize::MAX / 255)
  2a:	f89d 013d 	ldrb.w	r0, [sp, #317]	; 0x13d
  2e:	f04f 3101 	mov.w	r1, #16843009	; 0x1010101
  32:	fba0 0101 	umull	r0, r1, r0, r1
  36:	2900      	cmp	r1, #0
  38:	f8cd e064 	str.w	lr, [sp, #100]	; 0x64
  3c:	9418      	str	r4, [sp, #96]	; 0x60
  3e:	9517      	str	r5, [sp, #92]	; 0x5c
  40:	9616      	str	r6, [sp, #88]	; 0x58
  42:	9015      	str	r0, [sp, #84]	; 0x54
  44:	d007      	beq.n	56 <_ZN6memchr8fallback8memrchr317he5f44dbc7e59aa13E+0x56>
  46:	e7ff      	b.n	48 <_ZN6memchr8fallback8memrchr317he5f44dbc7e59aa13E+0x48>
  48:	f240 0000 	movw	r0, #0
  4c:	f2c0 0000 	movt	r0, #0
  50:	f7ff fffe 	bl	0 <_ZN4core9panicking5panic17h53ca63c6ac6312f8E>
  54:	defe      	udf	#254	; 0xfe
_ZN6memchr8fallback8memrchr317he5f44dbc7e59aa13E():
/Users/Luppy/.cargo/registry/src/github.com-1ecc6299db9ec823/memchr-2.2.0/src/fallback.rs:245
    let vn1 = repeat_byte(n1);
  56:	9815      	ldr	r0, [sp, #84]	; 0x54
  58:	901f      	str	r0, [sp, #124]	; 0x7c
  5a:	e7ff      	b.n	5c <_ZN6memchr8fallback8memrchr317he5f44dbc7e59aa13E+0x5c>
/Users/Luppy/.cargo/registry/src/github.com-1ecc6299db9ec823/memchr-2.2.0/src/fallback.rs:246
    let vn2 = repeat_byte(n2);
  5c:	f89d 006a 	ldrb.w	r0, [sp, #106]	; 0x6a
  60:	f88d 013e 	strb.w	r0, [sp, #318]	; 0x13e
_ZN6memchr8fallback11repeat_byte17h6374a9c8a738a5e1E():
/Users/Luppy/.cargo/registry/src/github.com-1ecc6299db9ec823/memchr-2.2.0/src/fallback.rs:42
    (b as usize) * (usize::MAX / 255)
  64:	f89d 013e 	ldrb.w	r0, [sp, #318]	; 0x13e
  68:	f04f 3101 	mov.w	r1, #16843009	; 0x1010101
  6c:	fba0 0101 	umull	r0, r1, r0, r1
  70:	2900      	cmp	r1, #0
  72:	9014      	str	r0, [sp, #80]	; 0x50
  74:	d007      	beq.n	86 <_ZN6memchr8fallback8memrchr317he5f44dbc7e59aa13E+0x86>
  76:	e7ff      	b.n	78 <_ZN6memchr8fallback8memrchr317he5f44dbc7e59aa13E+0x78>
  78:	f240 0000 	movw	r0, #0
  7c:	f2c0 0000 	movt	r0, #0
  80:	f7ff fffe 	bl	0 <_ZN4core9panicking5panic17h53ca63c6ac6312f8E>
  84:	defe      	udf	#254	; 0xfe
_ZN6memchr8fallback8memrchr317he5f44dbc7e59aa13E():
/Users/Luppy/.cargo/registry/src/github.com-1ecc6299db9ec823/memchr-2.2.0/src/fallback.rs:246
    let vn2 = repeat_byte(n2);
  86:	9814      	ldr	r0, [sp, #80]	; 0x50
  88:	9020      	str	r0, [sp, #128]	; 0x80
  8a:	e7ff      	b.n	8c <_ZN6memchr8fallback8memrchr317he5f44dbc7e59aa13E+0x8c>
/Users/Luppy/.cargo/registry/src/github.com-1ecc6299db9ec823/memchr-2.2.0/src/fallback.rs:247
    let vn3 = repeat_byte(n3);
  8c:	f89d 006b 	ldrb.w	r0, [sp, #107]	; 0x6b
  90:	f88d 013f 	strb.w	r0, [sp, #319]	; 0x13f
_ZN6memchr8fallback11repeat_byte17h6374a9c8a738a5e1E():
/Users/Luppy/.cargo/registry/src/github.com-1ecc6299db9ec823/memchr-2.2.0/src/fallback.rs:42
    (b as usize) * (usize::MAX / 255)
  94:	f89d 013f 	ldrb.w	r0, [sp, #319]	; 0x13f
  98:	f04f 3101 	mov.w	r1, #16843009	; 0x1010101
  9c:	fba0 0101 	umull	r0, r1, r0, r1
  a0:	2900      	cmp	r1, #0
  a2:	9013      	str	r0, [sp, #76]	; 0x4c
  a4:	d007      	beq.n	b6 <_ZN6memchr8fallback8memrchr317he5f44dbc7e59aa13E+0xb6>
  a6:	e7ff      	b.n	a8 <_ZN6memchr8fallback8memrchr317he5f44dbc7e59aa13E+0xa8>
  a8:	f240 0000 	movw	r0, #0
  ac:	f2c0 0000 	movt	r0, #0
  b0:	f7ff fffe 	bl	0 <_ZN4core9panicking5panic17h53ca63c6ac6312f8E>
  b4:	defe      	udf	#254	; 0xfe
_ZN6memchr8fallback8memrchr317he5f44dbc7e59aa13E():
/Users/Luppy/.cargo/registry/src/github.com-1ecc6299db9ec823/memchr-2.2.0/src/fallback.rs:247
    let vn3 = repeat_byte(n3);
  b6:	9813      	ldr	r0, [sp, #76]	; 0x4c
  b8:	9021      	str	r0, [sp, #132]	; 0x84
  ba:	e7ff      	b.n	bc <_ZN6memchr8fallback8memrchr317he5f44dbc7e59aa13E+0xbc>
  bc:	f10d 0069 	add.w	r0, sp, #105	; 0x69
/Users/Luppy/.cargo/registry/src/github.com-1ecc6299db9ec823/memchr-2.2.0/src/fallback.rs:248
    let confirm = |byte| byte == n1 || byte == n2 || byte == n3;
  c0:	9022      	str	r0, [sp, #136]	; 0x88
  c2:	f10d 006a 	add.w	r0, sp, #106	; 0x6a
  c6:	9023      	str	r0, [sp, #140]	; 0x8c
  c8:	f10d 006b 	add.w	r0, sp, #107	; 0x6b
  cc:	9024      	str	r0, [sp, #144]	; 0x90
  ce:	2004      	movs	r0, #4
/Users/Luppy/.cargo/registry/src/github.com-1ecc6299db9ec823/memchr-2.2.0/src/fallback.rs:249
    let align = USIZE_BYTES - 1;
  d0:	1e41      	subs	r1, r0, #1
  d2:	2801      	cmp	r0, #1
  d4:	9112      	str	r1, [sp, #72]	; 0x48
  d6:	f0c0 8295 	bcc.w	604 <_ZN6memchr8fallback8memrchr317he5f44dbc7e59aa13E+0x604>
  da:	e7ff      	b.n	dc <_ZN6memchr8fallback8memrchr317he5f44dbc7e59aa13E+0xdc>
  dc:	9812      	ldr	r0, [sp, #72]	; 0x48
  de:	9025      	str	r0, [sp, #148]	; 0x94
/Users/Luppy/.cargo/registry/src/github.com-1ecc6299db9ec823/memchr-2.2.0/src/fallback.rs:250
    let start_ptr = haystack.as_ptr();
  e0:	981b      	ldr	r0, [sp, #108]	; 0x6c
  e2:	991c      	ldr	r1, [sp, #112]	; 0x70
  e4:	f7ff fffe 	bl	0 <_ZN4core5slice29_$LT$impl$u20$$u5b$T$u5d$$GT$6as_ptr17hd0263209417be61aE>
  e8:	9026      	str	r0, [sp, #152]	; 0x98
  ea:	e7ff      	b.n	ec <_ZN6memchr8fallback8memrchr317he5f44dbc7e59aa13E+0xec>
/Users/Luppy/.cargo/registry/src/github.com-1ecc6299db9ec823/memchr-2.2.0/src/fallback.rs:251
    let end_ptr = haystack[haystack.len()..].as_ptr();
  ec:	981b      	ldr	r0, [sp, #108]	; 0x6c
  ee:	991c      	ldr	r1, [sp, #112]	; 0x70
  f0:	9011      	str	r0, [sp, #68]	; 0x44
  f2:	9110      	str	r1, [sp, #64]	; 0x40
  f4:	f7ff fffe 	bl	0 <_ZN4core5slice29_$LT$impl$u20$$u5b$T$u5d$$GT$3len17h63f985867d9f263fE>
  f8:	900f      	str	r0, [sp, #60]	; 0x3c
  fa:	e7ff      	b.n	fc <_ZN6memchr8fallback8memrchr317he5f44dbc7e59aa13E+0xfc>
  fc:	980f      	ldr	r0, [sp, #60]	; 0x3c
  fe:	9028      	str	r0, [sp, #160]	; 0xa0
 100:	9a28      	ldr	r2, [sp, #160]	; 0xa0
 102:	9811      	ldr	r0, [sp, #68]	; 0x44
 104:	9910      	ldr	r1, [sp, #64]	; 0x40
 106:	f7ff fffe 	bl	0 <_ZN4core5slice74_$LT$impl$u20$core..ops..index..Index$LT$I$GT$$u20$for$u20$$u5b$T$u5d$$GT$5index17hf116fad1d92ca796E>
 10a:	900e      	str	r0, [sp, #56]	; 0x38
 10c:	910d      	str	r1, [sp, #52]	; 0x34
 10e:	e7ff      	b.n	110 <_ZN6memchr8fallback8memrchr317he5f44dbc7e59aa13E+0x110>
 110:	980e      	ldr	r0, [sp, #56]	; 0x38
 112:	990d      	ldr	r1, [sp, #52]	; 0x34
 114:	f7ff fffe 	bl	0 <_ZN4core5slice29_$LT$impl$u20$$u5b$T$u5d$$GT$6as_ptr17hd0263209417be61aE>
 118:	9027      	str	r0, [sp, #156]	; 0x9c
 11a:	e7ff      	b.n	11c <_ZN6memchr8fallback8memrchr317he5f44dbc7e59aa13E+0x11c>
/Users/Luppy/.cargo/registry/src/github.com-1ecc6299db9ec823/memchr-2.2.0/src/fallback.rs:252
    let mut ptr = end_ptr;
 11c:	9827      	ldr	r0, [sp, #156]	; 0x9c
 11e:	9029      	str	r0, [sp, #164]	; 0xa4
/Users/Luppy/.cargo/registry/src/github.com-1ecc6299db9ec823/memchr-2.2.0/src/fallback.rs:255
        if haystack.len() < USIZE_BYTES {
 120:	981b      	ldr	r0, [sp, #108]	; 0x6c
 122:	991c      	ldr	r1, [sp, #112]	; 0x70
 124:	f7ff fffe 	bl	0 <_ZN4core5slice29_$LT$impl$u20$$u5b$T$u5d$$GT$3len17h63f985867d9f263fE>
 128:	900c      	str	r0, [sp, #48]	; 0x30
 12a:	e7ff      	b.n	12c <_ZN6memchr8fallback8memrchr317he5f44dbc7e59aa13E+0x12c>
 12c:	980c      	ldr	r0, [sp, #48]	; 0x30
 12e:	2803      	cmp	r0, #3
 130:	d857      	bhi.n	1e2 <_ZN6memchr8fallback8memrchr317he5f44dbc7e59aa13E+0x1e2>
 132:	e7ff      	b.n	134 <_ZN6memchr8fallback8memrchr317he5f44dbc7e59aa13E+0x134>
/Users/Luppy/.cargo/registry/src/github.com-1ecc6299db9ec823/memchr-2.2.0/src/fallback.rs:256
            return reverse_search(start_ptr, end_ptr, ptr, confirm);
 134:	9826      	ldr	r0, [sp, #152]	; 0x98
 136:	9927      	ldr	r1, [sp, #156]	; 0x9c
 138:	9a29      	ldr	r2, [sp, #164]	; 0xa4
 13a:	9b22      	ldr	r3, [sp, #136]	; 0x88
 13c:	f8dd c08c 	ldr.w	ip, [sp, #140]	; 0x8c
 140:	f8dd e090 	ldr.w	lr, [sp, #144]	; 0x90
 144:	f8cd e0b0 	str.w	lr, [sp, #176]	; 0xb0
 148:	f8cd c0ac 	str.w	ip, [sp, #172]	; 0xac
 14c:	932a      	str	r3, [sp, #168]	; 0xa8
 14e:	9050      	str	r0, [sp, #320]	; 0x140
 150:	9151      	str	r1, [sp, #324]	; 0x144
 152:	9252      	str	r2, [sp, #328]	; 0x148
_ZN6memchr8fallback14reverse_search17haf6eb9d9b4bae76bE():
/Users/Luppy/.cargo/registry/src/github.com-1ecc6299db9ec823/memchr-2.2.0/src/fallback.rs:311
    debug_assert!(start_ptr <= ptr);
 154:	9850      	ldr	r0, [sp, #320]	; 0x140
 156:	9952      	ldr	r1, [sp, #328]	; 0x148
 158:	4288      	cmp	r0, r1
 15a:	d907      	bls.n	16c <_ZN6memchr8fallback8memrchr317he5f44dbc7e59aa13E+0x16c>
 15c:	e7ff      	b.n	15e <_ZN6memchr8fallback8memrchr317he5f44dbc7e59aa13E+0x15e>
 15e:	f240 0000 	movw	r0, #0
 162:	f2c0 0000 	movt	r0, #0
 166:	f7ff fffe 	bl	0 <_ZN4core9panicking5panic17h53ca63c6ac6312f8E>
 16a:	defe      	udf	#254	; 0xfe
/Users/Luppy/.cargo/registry/src/github.com-1ecc6299db9ec823/memchr-2.2.0/src/fallback.rs:312
    debug_assert!(ptr <= end_ptr);
 16c:	9852      	ldr	r0, [sp, #328]	; 0x148
 16e:	9951      	ldr	r1, [sp, #324]	; 0x144
 170:	4288      	cmp	r0, r1
 172:	d907      	bls.n	184 <_ZN6memchr8fallback8memrchr317he5f44dbc7e59aa13E+0x184>
 174:	e7ff      	b.n	176 <_ZN6memchr8fallback8memrchr317he5f44dbc7e59aa13E+0x176>
 176:	f240 0000 	movw	r0, #0
 17a:	f2c0 0000 	movt	r0, #0
 17e:	f7ff fffe 	bl	0 <_ZN4core9panicking5panic17h53ca63c6ac6312f8E>
 182:	defe      	udf	#254	; 0xfe
/Users/Luppy/.cargo/registry/src/github.com-1ecc6299db9ec823/memchr-2.2.0/src/fallback.rs:314
    while ptr > start_ptr {
 184:	e7ff      	b.n	186 <_ZN6memchr8fallback8memrchr317he5f44dbc7e59aa13E+0x186>
 186:	9852      	ldr	r0, [sp, #328]	; 0x148
 188:	9950      	ldr	r1, [sp, #320]	; 0x140
 18a:	4288      	cmp	r0, r1
 18c:	d803      	bhi.n	196 <_ZN6memchr8fallback8memrchr317he5f44dbc7e59aa13E+0x196>
 18e:	e7ff      	b.n	190 <_ZN6memchr8fallback8memrchr317he5f44dbc7e59aa13E+0x190>
 190:	2000      	movs	r0, #0
/Users/Luppy/.cargo/registry/src/github.com-1ecc6299db9ec823/memchr-2.2.0/src/fallback.rs:320
    None
 192:	9053      	str	r0, [sp, #332]	; 0x14c
/Users/Luppy/.cargo/registry/src/github.com-1ecc6299db9ec823/memchr-2.2.0/src/fallback.rs:321
}
 194:	e01a      	b.n	1cc <_ZN6memchr8fallback8memrchr317he5f44dbc7e59aa13E+0x1cc>
/Users/Luppy/.cargo/registry/src/github.com-1ecc6299db9ec823/memchr-2.2.0/src/fallback.rs:315
        ptr = ptr.offset(-1);
 196:	9852      	ldr	r0, [sp, #328]	; 0x148
 198:	f04f 31ff 	mov.w	r1, #4294967295	; 0xffffffff
 19c:	f7ff fffe 	bl	0 <_ZN4core3ptr33_$LT$impl$u20$$BP$const$u20$T$GT$6offset17h1b1bd4fc0c06f6a7E>
 1a0:	9052      	str	r0, [sp, #328]	; 0x148
/Users/Luppy/.cargo/registry/src/github.com-1ecc6299db9ec823/memchr-2.2.0/src/fallback.rs:316
        if confirm(*ptr) {
 1a2:	9852      	ldr	r0, [sp, #328]	; 0x148
 1a4:	7800      	ldrb	r0, [r0, #0]
 1a6:	f88d 0157 	strb.w	r0, [sp, #343]	; 0x157
 1aa:	f89d 1157 	ldrb.w	r1, [sp, #343]	; 0x157
 1ae:	a82a      	add	r0, sp, #168	; 0xa8
 1b0:	f7ff fffe 	bl	0 <_ZN6memchr8fallback8memrchr317he5f44dbc7e59aa13E>
 1b4:	2800      	cmp	r0, #0
 1b6:	d008      	beq.n	1ca <_ZN6memchr8fallback8memrchr317he5f44dbc7e59aa13E+0x1ca>
 1b8:	e7ff      	b.n	1ba <_ZN6memchr8fallback8memrchr317he5f44dbc7e59aa13E+0x1ba>
/Users/Luppy/.cargo/registry/src/github.com-1ecc6299db9ec823/memchr-2.2.0/src/fallback.rs:317
            return Some(sub(ptr, start_ptr));
 1ba:	9852      	ldr	r0, [sp, #328]	; 0x148
 1bc:	9950      	ldr	r1, [sp, #320]	; 0x140
 1be:	f7ff fffe 	bl	0 <_ZN6memchr8fallback8memrchr317he5f44dbc7e59aa13E>
 1c2:	9054      	str	r0, [sp, #336]	; 0x150
 1c4:	2001      	movs	r0, #1
 1c6:	9053      	str	r0, [sp, #332]	; 0x14c
/Users/Luppy/.cargo/registry/src/github.com-1ecc6299db9ec823/memchr-2.2.0/src/fallback.rs:321
}
 1c8:	e000      	b.n	1cc <_ZN6memchr8fallback8memrchr317he5f44dbc7e59aa13E+0x1cc>
/Users/Luppy/.cargo/registry/src/github.com-1ecc6299db9ec823/memchr-2.2.0/src/fallback.rs:314
    while ptr > start_ptr {
 1ca:	e7dc      	b.n	186 <_ZN6memchr8fallback8memrchr317he5f44dbc7e59aa13E+0x186>
/Users/Luppy/.cargo/registry/src/github.com-1ecc6299db9ec823/memchr-2.2.0/src/fallback.rs:321
}
 1cc:	9853      	ldr	r0, [sp, #332]	; 0x14c
 1ce:	9954      	ldr	r1, [sp, #336]	; 0x150
_ZN6memchr8fallback8memrchr317he5f44dbc7e59aa13E():
/Users/Luppy/.cargo/registry/src/github.com-1ecc6299db9ec823/memchr-2.2.0/src/fallback.rs:256
            return reverse_search(start_ptr, end_ptr, ptr, confirm);
 1d0:	911e      	str	r1, [sp, #120]	; 0x78
 1d2:	901d      	str	r0, [sp, #116]	; 0x74
 1d4:	e7ff      	b.n	1d6 <_ZN6memchr8fallback8memrchr317he5f44dbc7e59aa13E+0x1d6>
 1d6:	e003      	b.n	1e0 <_ZN6memchr8fallback8memrchr317he5f44dbc7e59aa13E+0x1e0>
/Users/Luppy/.cargo/registry/src/github.com-1ecc6299db9ec823/memchr-2.2.0/src/fallback.rs:283
}
 1d8:	981d      	ldr	r0, [sp, #116]	; 0x74
 1da:	991e      	ldr	r1, [sp, #120]	; 0x78
 1dc:	b068      	add	sp, #416	; 0x1a0
 1de:	bd70      	pop	{r4, r5, r6, pc}
/Users/Luppy/.cargo/registry/src/github.com-1ecc6299db9ec823/memchr-2.2.0/src/fallback.rs:256
            return reverse_search(start_ptr, end_ptr, ptr, confirm);
 1e0:	e7fa      	b.n	1d8 <_ZN6memchr8fallback8memrchr317he5f44dbc7e59aa13E+0x1d8>
/Users/Luppy/.cargo/registry/src/github.com-1ecc6299db9ec823/memchr-2.2.0/src/fallback.rs:259
        let chunk = read_unaligned_usize(ptr_sub(ptr, USIZE_BYTES));
 1e2:	9829      	ldr	r0, [sp, #164]	; 0xa4
 1e4:	2104      	movs	r1, #4
 1e6:	f7ff fffe 	bl	0 <_ZN6memchr8fallback8memrchr317he5f44dbc7e59aa13E>
 1ea:	900b      	str	r0, [sp, #44]	; 0x2c
 1ec:	e7ff      	b.n	1ee <_ZN6memchr8fallback8memrchr317he5f44dbc7e59aa13E+0x1ee>
 1ee:	980b      	ldr	r0, [sp, #44]	; 0x2c
 1f0:	f7ff fffe 	bl	0 <_ZN6memchr8fallback8memrchr317he5f44dbc7e59aa13E>
 1f4:	902d      	str	r0, [sp, #180]	; 0xb4
 1f6:	e7ff      	b.n	1f8 <_ZN6memchr8fallback8memrchr317he5f44dbc7e59aa13E+0x1f8>
/Users/Luppy/.cargo/registry/src/github.com-1ecc6299db9ec823/memchr-2.2.0/src/fallback.rs:260
        let eq1 = contains_zero_byte(chunk ^ vn1);
 1f8:	982d      	ldr	r0, [sp, #180]	; 0xb4
 1fa:	991f      	ldr	r1, [sp, #124]	; 0x7c
 1fc:	4048      	eors	r0, r1
 1fe:	9056      	str	r0, [sp, #344]	; 0x158
_ZN6memchr8fallback18contains_zero_byte17hcf05c92d2c728c95E():
/Users/Luppy/.cargo/registry/src/github.com-1ecc6299db9ec823/memchr-2.2.0/src/fallback.rs:33
    x.wrapping_sub(LO_USIZE) & !x & HI_USIZE != 0
 200:	9856      	ldr	r0, [sp, #344]	; 0x158
 202:	f04f 3101 	mov.w	r1, #16843009	; 0x1010101
 206:	f7ff fffe 	bl	0 <_ZN4core3num23_$LT$impl$u20$usize$GT$12wrapping_sub17h049a26b7a4ff5318E>
 20a:	9956      	ldr	r1, [sp, #344]	; 0x158
 20c:	4388      	bics	r0, r1
 20e:	f020 307f 	bic.w	r0, r0, #2139062143	; 0x7f7f7f7f
 212:	2800      	cmp	r0, #0
 214:	bf18      	it	ne
 216:	2001      	movne	r0, #1
_ZN6memchr8fallback8memrchr317he5f44dbc7e59aa13E():
/Users/Luppy/.cargo/registry/src/github.com-1ecc6299db9ec823/memchr-2.2.0/src/fallback.rs:260
        let eq1 = contains_zero_byte(chunk ^ vn1);
 218:	f88d 00bb 	strb.w	r0, [sp, #187]	; 0xbb
 21c:	e7ff      	b.n	21e <_ZN6memchr8fallback8memrchr317he5f44dbc7e59aa13E+0x21e>
/Users/Luppy/.cargo/registry/src/github.com-1ecc6299db9ec823/memchr-2.2.0/src/fallback.rs:261
        let eq2 = contains_zero_byte(chunk ^ vn2);
 21e:	982d      	ldr	r0, [sp, #180]	; 0xb4
 220:	9920      	ldr	r1, [sp, #128]	; 0x80
 222:	4048      	eors	r0, r1
 224:	9057      	str	r0, [sp, #348]	; 0x15c
_ZN6memchr8fallback18contains_zero_byte17hcf05c92d2c728c95E():
/Users/Luppy/.cargo/registry/src/github.com-1ecc6299db9ec823/memchr-2.2.0/src/fallback.rs:33
    x.wrapping_sub(LO_USIZE) & !x & HI_USIZE != 0
 226:	9857      	ldr	r0, [sp, #348]	; 0x15c
 228:	f04f 3101 	mov.w	r1, #16843009	; 0x1010101
 22c:	f7ff fffe 	bl	0 <_ZN4core3num23_$LT$impl$u20$usize$GT$12wrapping_sub17h049a26b7a4ff5318E>
 230:	9957      	ldr	r1, [sp, #348]	; 0x15c
 232:	4388      	bics	r0, r1
 234:	f020 307f 	bic.w	r0, r0, #2139062143	; 0x7f7f7f7f
 238:	2800      	cmp	r0, #0
 23a:	bf18      	it	ne
 23c:	2001      	movne	r0, #1
_ZN6memchr8fallback8memrchr317he5f44dbc7e59aa13E():
/Users/Luppy/.cargo/registry/src/github.com-1ecc6299db9ec823/memchr-2.2.0/src/fallback.rs:261
        let eq2 = contains_zero_byte(chunk ^ vn2);
 23e:	f88d 00bc 	strb.w	r0, [sp, #188]	; 0xbc
 242:	e7ff      	b.n	244 <_ZN6memchr8fallback8memrchr317he5f44dbc7e59aa13E+0x244>
/Users/Luppy/.cargo/registry/src/github.com-1ecc6299db9ec823/memchr-2.2.0/src/fallback.rs:262
        let eq3 = contains_zero_byte(chunk ^ vn3);
 244:	982d      	ldr	r0, [sp, #180]	; 0xb4
 246:	9921      	ldr	r1, [sp, #132]	; 0x84
 248:	4048      	eors	r0, r1
 24a:	9058      	str	r0, [sp, #352]	; 0x160
_ZN6memchr8fallback18contains_zero_byte17hcf05c92d2c728c95E():
/Users/Luppy/.cargo/registry/src/github.com-1ecc6299db9ec823/memchr-2.2.0/src/fallback.rs:33
    x.wrapping_sub(LO_USIZE) & !x & HI_USIZE != 0
 24c:	9858      	ldr	r0, [sp, #352]	; 0x160
 24e:	f04f 3101 	mov.w	r1, #16843009	; 0x1010101
 252:	f7ff fffe 	bl	0 <_ZN4core3num23_$LT$impl$u20$usize$GT$12wrapping_sub17h049a26b7a4ff5318E>
 256:	9958      	ldr	r1, [sp, #352]	; 0x160
 258:	4388      	bics	r0, r1
 25a:	f020 307f 	bic.w	r0, r0, #2139062143	; 0x7f7f7f7f
 25e:	2800      	cmp	r0, #0
 260:	bf18      	it	ne
 262:	2001      	movne	r0, #1
_ZN6memchr8fallback8memrchr317he5f44dbc7e59aa13E():
/Users/Luppy/.cargo/registry/src/github.com-1ecc6299db9ec823/memchr-2.2.0/src/fallback.rs:262
        let eq3 = contains_zero_byte(chunk ^ vn3);
 264:	f88d 00bd 	strb.w	r0, [sp, #189]	; 0xbd
 268:	e7ff      	b.n	26a <_ZN6memchr8fallback8memrchr317he5f44dbc7e59aa13E+0x26a>
/Users/Luppy/.cargo/registry/src/github.com-1ecc6299db9ec823/memchr-2.2.0/src/fallback.rs:263
        if eq1 || eq2 || eq3 {
 26a:	f89d 00bb 	ldrb.w	r0, [sp, #187]	; 0xbb
 26e:	07c0      	lsls	r0, r0, #31
 270:	2800      	cmp	r0, #0
 272:	d10f      	bne.n	294 <_ZN6memchr8fallback8memrchr317he5f44dbc7e59aa13E+0x294>
 274:	e012      	b.n	29c <_ZN6memchr8fallback8memrchr317he5f44dbc7e59aa13E+0x29c>
 276:	2001      	movs	r0, #1
 278:	f88d 00be 	strb.w	r0, [sp, #190]	; 0xbe
 27c:	e004      	b.n	288 <_ZN6memchr8fallback8memrchr317he5f44dbc7e59aa13E+0x288>
 27e:	f89d 00bd 	ldrb.w	r0, [sp, #189]	; 0xbd
 282:	f88d 00be 	strb.w	r0, [sp, #190]	; 0xbe
 286:	e7ff      	b.n	288 <_ZN6memchr8fallback8memrchr317he5f44dbc7e59aa13E+0x288>
 288:	f89d 00be 	ldrb.w	r0, [sp, #190]	; 0xbe
 28c:	07c0      	lsls	r0, r0, #31
 28e:	2800      	cmp	r0, #0
 290:	d10f      	bne.n	2b2 <_ZN6memchr8fallback8memrchr317he5f44dbc7e59aa13E+0x2b2>
 292:	e060      	b.n	356 <_ZN6memchr8fallback8memrchr317he5f44dbc7e59aa13E+0x356>
 294:	2001      	movs	r0, #1
 296:	f88d 00bf 	strb.w	r0, [sp, #191]	; 0xbf
 29a:	e004      	b.n	2a6 <_ZN6memchr8fallback8memrchr317he5f44dbc7e59aa13E+0x2a6>
 29c:	f89d 00bc 	ldrb.w	r0, [sp, #188]	; 0xbc
 2a0:	f88d 00bf 	strb.w	r0, [sp, #191]	; 0xbf
 2a4:	e7ff      	b.n	2a6 <_ZN6memchr8fallback8memrchr317he5f44dbc7e59aa13E+0x2a6>
 2a6:	f89d 00bf 	ldrb.w	r0, [sp, #191]	; 0xbf
 2aa:	07c0      	lsls	r0, r0, #31
 2ac:	2800      	cmp	r0, #0
 2ae:	d1e2      	bne.n	276 <_ZN6memchr8fallback8memrchr317he5f44dbc7e59aa13E+0x276>
 2b0:	e7e5      	b.n	27e <_ZN6memchr8fallback8memrchr317he5f44dbc7e59aa13E+0x27e>
/Users/Luppy/.cargo/registry/src/github.com-1ecc6299db9ec823/memchr-2.2.0/src/fallback.rs:264
            return reverse_search(start_ptr, end_ptr, ptr, confirm);
 2b2:	9826      	ldr	r0, [sp, #152]	; 0x98
 2b4:	9927      	ldr	r1, [sp, #156]	; 0x9c
 2b6:	9a29      	ldr	r2, [sp, #164]	; 0xa4
 2b8:	9b22      	ldr	r3, [sp, #136]	; 0x88
 2ba:	f8dd c08c 	ldr.w	ip, [sp, #140]	; 0x8c
 2be:	f8dd e090 	ldr.w	lr, [sp, #144]	; 0x90
 2c2:	f8cd e0c8 	str.w	lr, [sp, #200]	; 0xc8
 2c6:	f8cd c0c4 	str.w	ip, [sp, #196]	; 0xc4
 2ca:	9330      	str	r3, [sp, #192]	; 0xc0
 2cc:	9059      	str	r0, [sp, #356]	; 0x164
 2ce:	915a      	str	r1, [sp, #360]	; 0x168
 2d0:	925b      	str	r2, [sp, #364]	; 0x16c
_ZN6memchr8fallback14reverse_search17haf6eb9d9b4bae76bE():
/Users/Luppy/.cargo/registry/src/github.com-1ecc6299db9ec823/memchr-2.2.0/src/fallback.rs:311
    debug_assert!(start_ptr <= ptr);
 2d2:	9859      	ldr	r0, [sp, #356]	; 0x164
 2d4:	995b      	ldr	r1, [sp, #364]	; 0x16c
 2d6:	4288      	cmp	r0, r1
 2d8:	d907      	bls.n	2ea <_ZN6memchr8fallback8memrchr317he5f44dbc7e59aa13E+0x2ea>
 2da:	e7ff      	b.n	2dc <_ZN6memchr8fallback8memrchr317he5f44dbc7e59aa13E+0x2dc>
 2dc:	f240 0000 	movw	r0, #0
 2e0:	f2c0 0000 	movt	r0, #0
 2e4:	f7ff fffe 	bl	0 <_ZN4core9panicking5panic17h53ca63c6ac6312f8E>
 2e8:	defe      	udf	#254	; 0xfe
/Users/Luppy/.cargo/registry/src/github.com-1ecc6299db9ec823/memchr-2.2.0/src/fallback.rs:312
    debug_assert!(ptr <= end_ptr);
 2ea:	985b      	ldr	r0, [sp, #364]	; 0x16c
 2ec:	995a      	ldr	r1, [sp, #360]	; 0x168
 2ee:	4288      	cmp	r0, r1
 2f0:	d907      	bls.n	302 <_ZN6memchr8fallback8memrchr317he5f44dbc7e59aa13E+0x302>
 2f2:	e7ff      	b.n	2f4 <_ZN6memchr8fallback8memrchr317he5f44dbc7e59aa13E+0x2f4>
 2f4:	f240 0000 	movw	r0, #0
 2f8:	f2c0 0000 	movt	r0, #0
 2fc:	f7ff fffe 	bl	0 <_ZN4core9panicking5panic17h53ca63c6ac6312f8E>
 300:	defe      	udf	#254	; 0xfe
/Users/Luppy/.cargo/registry/src/github.com-1ecc6299db9ec823/memchr-2.2.0/src/fallback.rs:314
    while ptr > start_ptr {
 302:	e7ff      	b.n	304 <_ZN6memchr8fallback8memrchr317he5f44dbc7e59aa13E+0x304>
 304:	985b      	ldr	r0, [sp, #364]	; 0x16c
 306:	9959      	ldr	r1, [sp, #356]	; 0x164
 308:	4288      	cmp	r0, r1
 30a:	d803      	bhi.n	314 <_ZN6memchr8fallback8memrchr317he5f44dbc7e59aa13E+0x314>
 30c:	e7ff      	b.n	30e <_ZN6memchr8fallback8memrchr317he5f44dbc7e59aa13E+0x30e>
 30e:	2000      	movs	r0, #0
/Users/Luppy/.cargo/registry/src/github.com-1ecc6299db9ec823/memchr-2.2.0/src/fallback.rs:320
    None
 310:	905c      	str	r0, [sp, #368]	; 0x170
/Users/Luppy/.cargo/registry/src/github.com-1ecc6299db9ec823/memchr-2.2.0/src/fallback.rs:321
}
 312:	e01a      	b.n	34a <_ZN6memchr8fallback8memrchr317he5f44dbc7e59aa13E+0x34a>
/Users/Luppy/.cargo/registry/src/github.com-1ecc6299db9ec823/memchr-2.2.0/src/fallback.rs:315
        ptr = ptr.offset(-1);
 314:	985b      	ldr	r0, [sp, #364]	; 0x16c
 316:	f04f 31ff 	mov.w	r1, #4294967295	; 0xffffffff
 31a:	f7ff fffe 	bl	0 <_ZN4core3ptr33_$LT$impl$u20$$BP$const$u20$T$GT$6offset17h1b1bd4fc0c06f6a7E>
 31e:	905b      	str	r0, [sp, #364]	; 0x16c
/Users/Luppy/.cargo/registry/src/github.com-1ecc6299db9ec823/memchr-2.2.0/src/fallback.rs:316
        if confirm(*ptr) {
 320:	985b      	ldr	r0, [sp, #364]	; 0x16c
 322:	7800      	ldrb	r0, [r0, #0]
 324:	f88d 017b 	strb.w	r0, [sp, #379]	; 0x17b
 328:	f89d 117b 	ldrb.w	r1, [sp, #379]	; 0x17b
 32c:	a830      	add	r0, sp, #192	; 0xc0
 32e:	f7ff fffe 	bl	0 <_ZN6memchr8fallback8memrchr317he5f44dbc7e59aa13E>
 332:	2800      	cmp	r0, #0
 334:	d008      	beq.n	348 <_ZN6memchr8fallback8memrchr317he5f44dbc7e59aa13E+0x348>
 336:	e7ff      	b.n	338 <_ZN6memchr8fallback8memrchr317he5f44dbc7e59aa13E+0x338>
/Users/Luppy/.cargo/registry/src/github.com-1ecc6299db9ec823/memchr-2.2.0/src/fallback.rs:317
            return Some(sub(ptr, start_ptr));
 338:	985b      	ldr	r0, [sp, #364]	; 0x16c
 33a:	9959      	ldr	r1, [sp, #356]	; 0x164
 33c:	f7ff fffe 	bl	0 <_ZN6memchr8fallback8memrchr317he5f44dbc7e59aa13E>
 340:	905d      	str	r0, [sp, #372]	; 0x174
 342:	2001      	movs	r0, #1
 344:	905c      	str	r0, [sp, #368]	; 0x170
/Users/Luppy/.cargo/registry/src/github.com-1ecc6299db9ec823/memchr-2.2.0/src/fallback.rs:321
}
 346:	e000      	b.n	34a <_ZN6memchr8fallback8memrchr317he5f44dbc7e59aa13E+0x34a>
/Users/Luppy/.cargo/registry/src/github.com-1ecc6299db9ec823/memchr-2.2.0/src/fallback.rs:314
    while ptr > start_ptr {
 348:	e7dc      	b.n	304 <_ZN6memchr8fallback8memrchr317he5f44dbc7e59aa13E+0x304>
/Users/Luppy/.cargo/registry/src/github.com-1ecc6299db9ec823/memchr-2.2.0/src/fallback.rs:321
}
 34a:	985c      	ldr	r0, [sp, #368]	; 0x170
 34c:	995d      	ldr	r1, [sp, #372]	; 0x174
_ZN6memchr8fallback8memrchr317he5f44dbc7e59aa13E():
/Users/Luppy/.cargo/registry/src/github.com-1ecc6299db9ec823/memchr-2.2.0/src/fallback.rs:264
            return reverse_search(start_ptr, end_ptr, ptr, confirm);
 34e:	911e      	str	r1, [sp, #120]	; 0x78
 350:	901d      	str	r0, [sp, #116]	; 0x74
 352:	e7ff      	b.n	354 <_ZN6memchr8fallback8memrchr317he5f44dbc7e59aa13E+0x354>
 354:	e744      	b.n	1e0 <_ZN6memchr8fallback8memrchr317he5f44dbc7e59aa13E+0x1e0>
/Users/Luppy/.cargo/registry/src/github.com-1ecc6299db9ec823/memchr-2.2.0/src/fallback.rs:267
        ptr = (end_ptr as usize & !align) as *const u8;
 356:	9827      	ldr	r0, [sp, #156]	; 0x9c
 358:	9925      	ldr	r1, [sp, #148]	; 0x94
 35a:	4388      	bics	r0, r1
 35c:	9029      	str	r0, [sp, #164]	; 0xa4
 35e:	2000      	movs	r0, #0
/Users/Luppy/.cargo/registry/src/github.com-1ecc6299db9ec823/memchr-2.2.0/src/fallback.rs:268
        debug_assert!(start_ptr <= ptr && ptr <= end_ptr);
 360:	2800      	cmp	r0, #0
 362:	d120      	bne.n	3a6 <_ZN6memchr8fallback8memrchr317he5f44dbc7e59aa13E+0x3a6>
 364:	e7ff      	b.n	366 <_ZN6memchr8fallback8memrchr317he5f44dbc7e59aa13E+0x366>
 366:	9826      	ldr	r0, [sp, #152]	; 0x98
 368:	9929      	ldr	r1, [sp, #164]	; 0xa4
 36a:	4288      	cmp	r0, r1
 36c:	d904      	bls.n	378 <_ZN6memchr8fallback8memrchr317he5f44dbc7e59aa13E+0x378>
 36e:	e7ff      	b.n	370 <_ZN6memchr8fallback8memrchr317he5f44dbc7e59aa13E+0x370>
 370:	2000      	movs	r0, #0
 372:	f88d 00cf 	strb.w	r0, [sp, #207]	; 0xcf
 376:	e008      	b.n	38a <_ZN6memchr8fallback8memrchr317he5f44dbc7e59aa13E+0x38a>
 378:	9829      	ldr	r0, [sp, #164]	; 0xa4
 37a:	9927      	ldr	r1, [sp, #156]	; 0x9c
 37c:	2200      	movs	r2, #0
 37e:	4288      	cmp	r0, r1
 380:	bf98      	it	ls
 382:	2201      	movls	r2, #1
 384:	f88d 20cf 	strb.w	r2, [sp, #207]	; 0xcf
 388:	e7ff      	b.n	38a <_ZN6memchr8fallback8memrchr317he5f44dbc7e59aa13E+0x38a>
 38a:	f89d 00cf 	ldrb.w	r0, [sp, #207]	; 0xcf
 38e:	07c0      	lsls	r0, r0, #31
 390:	2800      	cmp	r0, #0
 392:	d107      	bne.n	3a4 <_ZN6memchr8fallback8memrchr317he5f44dbc7e59aa13E+0x3a4>
 394:	e7ff      	b.n	396 <_ZN6memchr8fallback8memrchr317he5f44dbc7e59aa13E+0x396>
 396:	f240 0000 	movw	r0, #0
 39a:	f2c0 0000 	movt	r0, #0
 39e:	f7ff fffe 	bl	0 <_ZN4core9panicking5panic17h53ca63c6ac6312f8E>
 3a2:	defe      	udf	#254	; 0xfe
 3a4:	e7ff      	b.n	3a6 <_ZN6memchr8fallback8memrchr317he5f44dbc7e59aa13E+0x3a6>
/Users/Luppy/.cargo/registry/src/github.com-1ecc6299db9ec823/memchr-2.2.0/src/fallback.rs:269
        while ptr >= ptr_add(start_ptr, USIZE_BYTES) {
 3a6:	e7ff      	b.n	3a8 <_ZN6memchr8fallback8memrchr317he5f44dbc7e59aa13E+0x3a8>
 3a8:	9829      	ldr	r0, [sp, #164]	; 0xa4
 3aa:	9926      	ldr	r1, [sp, #152]	; 0x98
 3ac:	2204      	movs	r2, #4
 3ae:	900a      	str	r0, [sp, #40]	; 0x28
 3b0:	4608      	mov	r0, r1
 3b2:	4611      	mov	r1, r2
 3b4:	f7ff fffe 	bl	0 <_ZN6memchr8fallback8memrchr317he5f44dbc7e59aa13E>
 3b8:	9009      	str	r0, [sp, #36]	; 0x24
 3ba:	e050      	b.n	45e <_ZN6memchr8fallback8memrchr317he5f44dbc7e59aa13E+0x45e>
/Users/Luppy/.cargo/registry/src/github.com-1ecc6299db9ec823/memchr-2.2.0/src/fallback.rs:281
        reverse_search(start_ptr, end_ptr, ptr, confirm)
 3bc:	9826      	ldr	r0, [sp, #152]	; 0x98
 3be:	9927      	ldr	r1, [sp, #156]	; 0x9c
 3c0:	9a29      	ldr	r2, [sp, #164]	; 0xa4
 3c2:	9b22      	ldr	r3, [sp, #136]	; 0x88
 3c4:	f8dd c08c 	ldr.w	ip, [sp, #140]	; 0x8c
 3c8:	f8dd e090 	ldr.w	lr, [sp, #144]	; 0x90
 3cc:	f8cd e138 	str.w	lr, [sp, #312]	; 0x138
 3d0:	f8cd c134 	str.w	ip, [sp, #308]	; 0x134
 3d4:	934c      	str	r3, [sp, #304]	; 0x130
 3d6:	905f      	str	r0, [sp, #380]	; 0x17c
 3d8:	9160      	str	r1, [sp, #384]	; 0x180
 3da:	9261      	str	r2, [sp, #388]	; 0x184
_ZN6memchr8fallback14reverse_search17haf6eb9d9b4bae76bE():
/Users/Luppy/.cargo/registry/src/github.com-1ecc6299db9ec823/memchr-2.2.0/src/fallback.rs:311
    debug_assert!(start_ptr <= ptr);
 3dc:	985f      	ldr	r0, [sp, #380]	; 0x17c
 3de:	9961      	ldr	r1, [sp, #388]	; 0x184
 3e0:	4288      	cmp	r0, r1
 3e2:	d907      	bls.n	3f4 <_ZN6memchr8fallback8memrchr317he5f44dbc7e59aa13E+0x3f4>
 3e4:	e7ff      	b.n	3e6 <_ZN6memchr8fallback8memrchr317he5f44dbc7e59aa13E+0x3e6>
 3e6:	f240 0000 	movw	r0, #0
 3ea:	f2c0 0000 	movt	r0, #0
 3ee:	f7ff fffe 	bl	0 <_ZN4core9panicking5panic17h53ca63c6ac6312f8E>
 3f2:	defe      	udf	#254	; 0xfe
/Users/Luppy/.cargo/registry/src/github.com-1ecc6299db9ec823/memchr-2.2.0/src/fallback.rs:312
    debug_assert!(ptr <= end_ptr);
 3f4:	9861      	ldr	r0, [sp, #388]	; 0x184
 3f6:	9960      	ldr	r1, [sp, #384]	; 0x180
 3f8:	4288      	cmp	r0, r1
 3fa:	d907      	bls.n	40c <_ZN6memchr8fallback8memrchr317he5f44dbc7e59aa13E+0x40c>
 3fc:	e7ff      	b.n	3fe <_ZN6memchr8fallback8memrchr317he5f44dbc7e59aa13E+0x3fe>
 3fe:	f240 0000 	movw	r0, #0
 402:	f2c0 0000 	movt	r0, #0
 406:	f7ff fffe 	bl	0 <_ZN4core9panicking5panic17h53ca63c6ac6312f8E>
 40a:	defe      	udf	#254	; 0xfe
/Users/Luppy/.cargo/registry/src/github.com-1ecc6299db9ec823/memchr-2.2.0/src/fallback.rs:314
    while ptr > start_ptr {
 40c:	e7ff      	b.n	40e <_ZN6memchr8fallback8memrchr317he5f44dbc7e59aa13E+0x40e>
 40e:	9861      	ldr	r0, [sp, #388]	; 0x184
 410:	995f      	ldr	r1, [sp, #380]	; 0x17c
 412:	4288      	cmp	r0, r1
 414:	d803      	bhi.n	41e <_ZN6memchr8fallback8memrchr317he5f44dbc7e59aa13E+0x41e>
 416:	e7ff      	b.n	418 <_ZN6memchr8fallback8memrchr317he5f44dbc7e59aa13E+0x418>
 418:	2000      	movs	r0, #0
/Users/Luppy/.cargo/registry/src/github.com-1ecc6299db9ec823/memchr-2.2.0/src/fallback.rs:320
    None
 41a:	9062      	str	r0, [sp, #392]	; 0x188
/Users/Luppy/.cargo/registry/src/github.com-1ecc6299db9ec823/memchr-2.2.0/src/fallback.rs:321
}
 41c:	e01a      	b.n	454 <_ZN6memchr8fallback8memrchr317he5f44dbc7e59aa13E+0x454>
/Users/Luppy/.cargo/registry/src/github.com-1ecc6299db9ec823/memchr-2.2.0/src/fallback.rs:315
        ptr = ptr.offset(-1);
 41e:	9861      	ldr	r0, [sp, #388]	; 0x184
 420:	f04f 31ff 	mov.w	r1, #4294967295	; 0xffffffff
 424:	f7ff fffe 	bl	0 <_ZN4core3ptr33_$LT$impl$u20$$BP$const$u20$T$GT$6offset17h1b1bd4fc0c06f6a7E>
 428:	9061      	str	r0, [sp, #388]	; 0x184
/Users/Luppy/.cargo/registry/src/github.com-1ecc6299db9ec823/memchr-2.2.0/src/fallback.rs:316
        if confirm(*ptr) {
 42a:	9861      	ldr	r0, [sp, #388]	; 0x184
 42c:	7800      	ldrb	r0, [r0, #0]
 42e:	f88d 0193 	strb.w	r0, [sp, #403]	; 0x193
 432:	f89d 1193 	ldrb.w	r1, [sp, #403]	; 0x193
 436:	a84c      	add	r0, sp, #304	; 0x130
 438:	f7ff fffe 	bl	0 <_ZN6memchr8fallback8memrchr317he5f44dbc7e59aa13E>
 43c:	2800      	cmp	r0, #0
 43e:	d008      	beq.n	452 <_ZN6memchr8fallback8memrchr317he5f44dbc7e59aa13E+0x452>
 440:	e7ff      	b.n	442 <_ZN6memchr8fallback8memrchr317he5f44dbc7e59aa13E+0x442>
/Users/Luppy/.cargo/registry/src/github.com-1ecc6299db9ec823/memchr-2.2.0/src/fallback.rs:317
            return Some(sub(ptr, start_ptr));
 442:	9861      	ldr	r0, [sp, #388]	; 0x184
 444:	995f      	ldr	r1, [sp, #380]	; 0x17c
 446:	f7ff fffe 	bl	0 <_ZN6memchr8fallback8memrchr317he5f44dbc7e59aa13E>
 44a:	9063      	str	r0, [sp, #396]	; 0x18c
 44c:	2001      	movs	r0, #1
 44e:	9062      	str	r0, [sp, #392]	; 0x188
/Users/Luppy/.cargo/registry/src/github.com-1ecc6299db9ec823/memchr-2.2.0/src/fallback.rs:321
}
 450:	e000      	b.n	454 <_ZN6memchr8fallback8memrchr317he5f44dbc7e59aa13E+0x454>
/Users/Luppy/.cargo/registry/src/github.com-1ecc6299db9ec823/memchr-2.2.0/src/fallback.rs:314
    while ptr > start_ptr {
 452:	e7dc      	b.n	40e <_ZN6memchr8fallback8memrchr317he5f44dbc7e59aa13E+0x40e>
/Users/Luppy/.cargo/registry/src/github.com-1ecc6299db9ec823/memchr-2.2.0/src/fallback.rs:321
}
 454:	9862      	ldr	r0, [sp, #392]	; 0x188
 456:	9963      	ldr	r1, [sp, #396]	; 0x18c
_ZN6memchr8fallback8memrchr317he5f44dbc7e59aa13E():
/Users/Luppy/.cargo/registry/src/github.com-1ecc6299db9ec823/memchr-2.2.0/src/fallback.rs:281
        reverse_search(start_ptr, end_ptr, ptr, confirm)
 458:	911e      	str	r1, [sp, #120]	; 0x78
 45a:	901d      	str	r0, [sp, #116]	; 0x74
 45c:	e0d1      	b.n	602 <_ZN6memchr8fallback8memrchr317he5f44dbc7e59aa13E+0x602>
/Users/Luppy/.cargo/registry/src/github.com-1ecc6299db9ec823/memchr-2.2.0/src/fallback.rs:269
        while ptr >= ptr_add(start_ptr, USIZE_BYTES) {
 45e:	980a      	ldr	r0, [sp, #40]	; 0x28
 460:	9909      	ldr	r1, [sp, #36]	; 0x24
 462:	4288      	cmp	r0, r1
 464:	d3aa      	bcc.n	3bc <_ZN6memchr8fallback8memrchr317he5f44dbc7e59aa13E+0x3bc>
 466:	e7ff      	b.n	468 <_ZN6memchr8fallback8memrchr317he5f44dbc7e59aa13E+0x468>
 468:	2000      	movs	r0, #0
/Users/Luppy/.cargo/registry/src/github.com-1ecc6299db9ec823/memchr-2.2.0/src/fallback.rs:270
            debug_assert_eq!(0, (ptr as usize) % USIZE_BYTES);
 46a:	2800      	cmp	r0, #0
 46c:	d159      	bne.n	522 <_ZN6memchr8fallback8memrchr317he5f44dbc7e59aa13E+0x522>
 46e:	e7ff      	b.n	470 <_ZN6memchr8fallback8memrchr317he5f44dbc7e59aa13E+0x470>
 470:	9829      	ldr	r0, [sp, #164]	; 0xa4
 472:	9008      	str	r0, [sp, #32]
 474:	e7ff      	b.n	476 <_ZN6memchr8fallback8memrchr317he5f44dbc7e59aa13E+0x476>
 476:	9808      	ldr	r0, [sp, #32]
 478:	f000 0103 	and.w	r1, r0, #3
 47c:	9136      	str	r1, [sp, #216]	; 0xd8
 47e:	f240 0100 	movw	r1, #0
 482:	f2c0 0100 	movt	r1, #0
 486:	9134      	str	r1, [sp, #208]	; 0xd0
 488:	a936      	add	r1, sp, #216	; 0xd8
 48a:	9135      	str	r1, [sp, #212]	; 0xd4
 48c:	9934      	ldr	r1, [sp, #208]	; 0xd0
 48e:	9137      	str	r1, [sp, #220]	; 0xdc
 490:	9935      	ldr	r1, [sp, #212]	; 0xd4
 492:	9138      	str	r1, [sp, #224]	; 0xe0
 494:	9937      	ldr	r1, [sp, #220]	; 0xdc
 496:	6809      	ldr	r1, [r1, #0]
 498:	9a38      	ldr	r2, [sp, #224]	; 0xe0
 49a:	6812      	ldr	r2, [r2, #0]
 49c:	4291      	cmp	r1, r2
 49e:	d016      	beq.n	4ce <_ZN6memchr8fallback8memrchr317he5f44dbc7e59aa13E+0x4ce>
 4a0:	e7ff      	b.n	4a2 <_ZN6memchr8fallback8memrchr317he5f44dbc7e59aa13E+0x4a2>
 4a2:	9837      	ldr	r0, [sp, #220]	; 0xdc
 4a4:	9045      	str	r0, [sp, #276]	; 0x114
 4a6:	9838      	ldr	r0, [sp, #224]	; 0xe0
 4a8:	9046      	str	r0, [sp, #280]	; 0x118
 4aa:	a845      	add	r0, sp, #276	; 0x114
 4ac:	9043      	str	r0, [sp, #268]	; 0x10c
 4ae:	a846      	add	r0, sp, #280	; 0x118
 4b0:	9044      	str	r0, [sp, #272]	; 0x110
 4b2:	9843      	ldr	r0, [sp, #268]	; 0x10c
 4b4:	9047      	str	r0, [sp, #284]	; 0x11c
 4b6:	9844      	ldr	r0, [sp, #272]	; 0x110
 4b8:	9048      	str	r0, [sp, #288]	; 0x120
 4ba:	9847      	ldr	r0, [sp, #284]	; 0x11c
 4bc:	f240 0100 	movw	r1, #0
 4c0:	f2c0 0100 	movt	r1, #0
 4c4:	f7ff fffe 	bl	0 <_ZN4core3fmt10ArgumentV13new17he7aeb924cd1c8272E>
 4c8:	9007      	str	r0, [sp, #28]
 4ca:	9106      	str	r1, [sp, #24]
 4cc:	e000      	b.n	4d0 <_ZN6memchr8fallback8memrchr317he5f44dbc7e59aa13E+0x4d0>
 4ce:	e028      	b.n	522 <_ZN6memchr8fallback8memrchr317he5f44dbc7e59aa13E+0x522>
 4d0:	9848      	ldr	r0, [sp, #288]	; 0x120
 4d2:	f240 0100 	movw	r1, #0
 4d6:	f2c0 0100 	movt	r1, #0
 4da:	f7ff fffe 	bl	0 <_ZN4core3fmt10ArgumentV13new17he7aeb924cd1c8272E>
 4de:	9005      	str	r0, [sp, #20]
 4e0:	9104      	str	r1, [sp, #16]
 4e2:	e7ff      	b.n	4e4 <_ZN6memchr8fallback8memrchr317he5f44dbc7e59aa13E+0x4e4>
 4e4:	9807      	ldr	r0, [sp, #28]
 4e6:	903f      	str	r0, [sp, #252]	; 0xfc
 4e8:	9906      	ldr	r1, [sp, #24]
 4ea:	9140      	str	r1, [sp, #256]	; 0x100
 4ec:	9a05      	ldr	r2, [sp, #20]
 4ee:	9241      	str	r2, [sp, #260]	; 0x104
 4f0:	9b04      	ldr	r3, [sp, #16]
 4f2:	9342      	str	r3, [sp, #264]	; 0x108
 4f4:	46ec      	mov	ip, sp
 4f6:	f04f 0e02 	mov.w	lr, #2
 4fa:	f8cc e000 	str.w	lr, [ip]
 4fe:	f240 0100 	movw	r1, #0
 502:	f2c0 0100 	movt	r1, #0
 506:	a839      	add	r0, sp, #228	; 0xe4
 508:	2203      	movs	r2, #3
 50a:	ab3f      	add	r3, sp, #252	; 0xfc
 50c:	f7ff fffe 	bl	0 <_ZN4core3fmt9Arguments6new_v117h97fab7064a36d1a4E>
 510:	e7ff      	b.n	2 <_ZN6memchr8fallback8memrchr317he5f44dbc7e59aa13E+0x2>
 512:	f240 0100 	movw	r1, #0
 516:	f2c0 0100 	movt	r1, #0
 51a:	a839      	add	r0, sp, #228	; 0xe4
 51c:	f7ff fffe 	bl	0 <_ZN4core9panicking9panic_fmt17h6b4d8e87b0965449E>
 520:	defe      	udf	#254	; 0xfe
/Users/Luppy/.cargo/registry/src/github.com-1ecc6299db9ec823/memchr-2.2.0/src/fallback.rs:272
            let chunk = *(ptr_sub(ptr, USIZE_BYTES) as *const usize);
 522:	9829      	ldr	r0, [sp, #164]	; 0xa4
 524:	2104      	movs	r1, #4
 526:	f7ff fffe 	bl	0 <_ZN6memchr8fallback8memrchr317he5f44dbc7e59aa13E>
 52a:	9003      	str	r0, [sp, #12]
 52c:	e7ff      	b.n	52e <_ZN6memchr8fallback8memrchr317he5f44dbc7e59aa13E+0x52e>
 52e:	9803      	ldr	r0, [sp, #12]
 530:	6801      	ldr	r1, [r0, #0]
 532:	9149      	str	r1, [sp, #292]	; 0x124
/Users/Luppy/.cargo/registry/src/github.com-1ecc6299db9ec823/memchr-2.2.0/src/fallback.rs:273
            let eq1 = contains_zero_byte(chunk ^ vn1);
 534:	9949      	ldr	r1, [sp, #292]	; 0x124
 536:	9a1f      	ldr	r2, [sp, #124]	; 0x7c
 538:	4051      	eors	r1, r2
 53a:	9165      	str	r1, [sp, #404]	; 0x194
_ZN6memchr8fallback18contains_zero_byte17hcf05c92d2c728c95E():
/Users/Luppy/.cargo/registry/src/github.com-1ecc6299db9ec823/memchr-2.2.0/src/fallback.rs:33
    x.wrapping_sub(LO_USIZE) & !x & HI_USIZE != 0
 53c:	9865      	ldr	r0, [sp, #404]	; 0x194
 53e:	f04f 3101 	mov.w	r1, #16843009	; 0x1010101
 542:	f7ff fffe 	bl	0 <_ZN4core3num23_$LT$impl$u20$usize$GT$12wrapping_sub17h049a26b7a4ff5318E>
 546:	9965      	ldr	r1, [sp, #404]	; 0x194
 548:	4388      	bics	r0, r1
 54a:	f020 307f 	bic.w	r0, r0, #2139062143	; 0x7f7f7f7f
 54e:	2800      	cmp	r0, #0
 550:	bf18      	it	ne
 552:	2001      	movne	r0, #1
_ZN6memchr8fallback8memrchr317he5f44dbc7e59aa13E():
/Users/Luppy/.cargo/registry/src/github.com-1ecc6299db9ec823/memchr-2.2.0/src/fallback.rs:273
            let eq1 = contains_zero_byte(chunk ^ vn1);
 554:	f88d 012b 	strb.w	r0, [sp, #299]	; 0x12b
 558:	e7ff      	b.n	55a <_ZN6memchr8fallback8memrchr317he5f44dbc7e59aa13E+0x55a>
/Users/Luppy/.cargo/registry/src/github.com-1ecc6299db9ec823/memchr-2.2.0/src/fallback.rs:274
            let eq2 = contains_zero_byte(chunk ^ vn2);
 55a:	9849      	ldr	r0, [sp, #292]	; 0x124
 55c:	9920      	ldr	r1, [sp, #128]	; 0x80
 55e:	4048      	eors	r0, r1
 560:	9066      	str	r0, [sp, #408]	; 0x198
_ZN6memchr8fallback18contains_zero_byte17hcf05c92d2c728c95E():
/Users/Luppy/.cargo/registry/src/github.com-1ecc6299db9ec823/memchr-2.2.0/src/fallback.rs:33
    x.wrapping_sub(LO_USIZE) & !x & HI_USIZE != 0
 562:	9866      	ldr	r0, [sp, #408]	; 0x198
 564:	f04f 3101 	mov.w	r1, #16843009	; 0x1010101
 568:	f7ff fffe 	bl	0 <_ZN4core3num23_$LT$impl$u20$usize$GT$12wrapping_sub17h049a26b7a4ff5318E>
 56c:	9966      	ldr	r1, [sp, #408]	; 0x198
 56e:	4388      	bics	r0, r1
 570:	f020 307f 	bic.w	r0, r0, #2139062143	; 0x7f7f7f7f
 574:	2800      	cmp	r0, #0
 576:	bf18      	it	ne
 578:	2001      	movne	r0, #1
_ZN6memchr8fallback8memrchr317he5f44dbc7e59aa13E():
/Users/Luppy/.cargo/registry/src/github.com-1ecc6299db9ec823/memchr-2.2.0/src/fallback.rs:274
            let eq2 = contains_zero_byte(chunk ^ vn2);
 57a:	f88d 012c 	strb.w	r0, [sp, #300]	; 0x12c
 57e:	e7ff      	b.n	580 <_ZN6memchr8fallback8memrchr317he5f44dbc7e59aa13E+0x580>
/Users/Luppy/.cargo/registry/src/github.com-1ecc6299db9ec823/memchr-2.2.0/src/fallback.rs:275
            let eq3 = contains_zero_byte(chunk ^ vn3);
 580:	9849      	ldr	r0, [sp, #292]	; 0x124
 582:	9921      	ldr	r1, [sp, #132]	; 0x84
 584:	4048      	eors	r0, r1
 586:	9067      	str	r0, [sp, #412]	; 0x19c
_ZN6memchr8fallback18contains_zero_byte17hcf05c92d2c728c95E():
/Users/Luppy/.cargo/registry/src/github.com-1ecc6299db9ec823/memchr-2.2.0/src/fallback.rs:33
    x.wrapping_sub(LO_USIZE) & !x & HI_USIZE != 0
 588:	9867      	ldr	r0, [sp, #412]	; 0x19c
 58a:	f04f 3101 	mov.w	r1, #16843009	; 0x1010101
 58e:	f7ff fffe 	bl	0 <_ZN4core3num23_$LT$impl$u20$usize$GT$12wrapping_sub17h049a26b7a4ff5318E>
 592:	9967      	ldr	r1, [sp, #412]	; 0x19c
 594:	4388      	bics	r0, r1
 596:	f020 307f 	bic.w	r0, r0, #2139062143	; 0x7f7f7f7f
 59a:	2800      	cmp	r0, #0
 59c:	bf18      	it	ne
 59e:	2001      	movne	r0, #1
_ZN6memchr8fallback8memrchr317he5f44dbc7e59aa13E():
/Users/Luppy/.cargo/registry/src/github.com-1ecc6299db9ec823/memchr-2.2.0/src/fallback.rs:275
            let eq3 = contains_zero_byte(chunk ^ vn3);
 5a0:	f88d 012d 	strb.w	r0, [sp, #301]	; 0x12d
 5a4:	e7ff      	b.n	5a6 <_ZN6memchr8fallback8memrchr317he5f44dbc7e59aa13E+0x5a6>
/Users/Luppy/.cargo/registry/src/github.com-1ecc6299db9ec823/memchr-2.2.0/src/fallback.rs:276
            if eq1 || eq2 || eq3 {
 5a6:	f89d 012b 	ldrb.w	r0, [sp, #299]	; 0x12b
 5aa:	07c0      	lsls	r0, r0, #31
 5ac:	2800      	cmp	r0, #0
 5ae:	d10f      	bne.n	5d0 <_ZN6memchr8fallback8memrchr317he5f44dbc7e59aa13E+0x5d0>
 5b0:	e012      	b.n	5d8 <_ZN6memchr8fallback8memrchr317he5f44dbc7e59aa13E+0x5d8>
 5b2:	2001      	movs	r0, #1
 5b4:	f88d 012e 	strb.w	r0, [sp, #302]	; 0x12e
 5b8:	e004      	b.n	5c4 <_ZN6memchr8fallback8memrchr317he5f44dbc7e59aa13E+0x5c4>
 5ba:	f89d 012d 	ldrb.w	r0, [sp, #301]	; 0x12d
 5be:	f88d 012e 	strb.w	r0, [sp, #302]	; 0x12e
 5c2:	e7ff      	b.n	5c4 <_ZN6memchr8fallback8memrchr317he5f44dbc7e59aa13E+0x5c4>
 5c4:	f89d 012e 	ldrb.w	r0, [sp, #302]	; 0x12e
 5c8:	07c0      	lsls	r0, r0, #31
 5ca:	2800      	cmp	r0, #0
 5cc:	d10f      	bne.n	5ee <_ZN6memchr8fallback8memrchr317he5f44dbc7e59aa13E+0x5ee>
 5ce:	e00f      	b.n	5f0 <_ZN6memchr8fallback8memrchr317he5f44dbc7e59aa13E+0x5f0>
 5d0:	2001      	movs	r0, #1
 5d2:	f88d 012f 	strb.w	r0, [sp, #303]	; 0x12f
 5d6:	e004      	b.n	5e2 <_ZN6memchr8fallback8memrchr317he5f44dbc7e59aa13E+0x5e2>
 5d8:	f89d 012c 	ldrb.w	r0, [sp, #300]	; 0x12c
 5dc:	f88d 012f 	strb.w	r0, [sp, #303]	; 0x12f
 5e0:	e7ff      	b.n	5e2 <_ZN6memchr8fallback8memrchr317he5f44dbc7e59aa13E+0x5e2>
 5e2:	f89d 012f 	ldrb.w	r0, [sp, #303]	; 0x12f
 5e6:	07c0      	lsls	r0, r0, #31
 5e8:	2800      	cmp	r0, #0
 5ea:	d1e2      	bne.n	5b2 <_ZN6memchr8fallback8memrchr317he5f44dbc7e59aa13E+0x5b2>
 5ec:	e7e5      	b.n	5ba <_ZN6memchr8fallback8memrchr317he5f44dbc7e59aa13E+0x5ba>
/Users/Luppy/.cargo/registry/src/github.com-1ecc6299db9ec823/memchr-2.2.0/src/fallback.rs:277
                break;
 5ee:	e6e5      	b.n	3bc <_ZN6memchr8fallback8memrchr317he5f44dbc7e59aa13E+0x3bc>
/Users/Luppy/.cargo/registry/src/github.com-1ecc6299db9ec823/memchr-2.2.0/src/fallback.rs:279
            ptr = ptr_sub(ptr, USIZE_BYTES);
 5f0:	9829      	ldr	r0, [sp, #164]	; 0xa4
 5f2:	2104      	movs	r1, #4
 5f4:	f7ff fffe 	bl	0 <_ZN6memchr8fallback8memrchr317he5f44dbc7e59aa13E>
 5f8:	9002      	str	r0, [sp, #8]
 5fa:	e7ff      	b.n	5fc <_ZN6memchr8fallback8memrchr317he5f44dbc7e59aa13E+0x5fc>
 5fc:	9802      	ldr	r0, [sp, #8]
 5fe:	9029      	str	r0, [sp, #164]	; 0xa4
/Users/Luppy/.cargo/registry/src/github.com-1ecc6299db9ec823/memchr-2.2.0/src/fallback.rs:269
        while ptr >= ptr_add(start_ptr, USIZE_BYTES) {
 600:	e6d2      	b.n	3a8 <_ZN6memchr8fallback8memrchr317he5f44dbc7e59aa13E+0x3a8>
/Users/Luppy/.cargo/registry/src/github.com-1ecc6299db9ec823/memchr-2.2.0/src/fallback.rs:283
}
 602:	e5e9      	b.n	1d8 <_ZN6memchr8fallback8memrchr317he5f44dbc7e59aa13E+0x1d8>
/Users/Luppy/.cargo/registry/src/github.com-1ecc6299db9ec823/memchr-2.2.0/src/fallback.rs:249
    let align = USIZE_BYTES - 1;
 604:	f240 0000 	movw	r0, #0
 608:	f2c0 0000 	movt	r0, #0
 60c:	f7ff fffe 	bl	0 <_ZN4core9panicking5panic17h53ca63c6ac6312f8E>
 610:	defe      	udf	#254	; 0xfe

Disassembly of section .text._ZN6memchr8fallback8memrchr328_$u7b$$u7b$closure$u7d$$u7d$17h5a7ccb2df36e9e3eE:

00000000 <_ZN6memchr8fallback8memrchr328_$u7b$$u7b$closure$u7d$$u7d$17h5a7ccb2df36e9e3eE>:
_ZN6memchr8fallback8memrchr328_$u7b$$u7b$closure$u7d$$u7d$17h5a7ccb2df36e9e3eE():
/Users/Luppy/.cargo/registry/src/github.com-1ecc6299db9ec823/memchr-2.2.0/src/fallback.rs:248
    let confirm = |byte| byte == n1 || byte == n2 || byte == n3;
   0:	b084      	sub	sp, #16
   2:	460a      	mov	r2, r1
   4:	4603      	mov	r3, r0
   6:	9002      	str	r0, [sp, #8]
   8:	f88d 100d 	strb.w	r1, [sp, #13]
   c:	f89d 000d 	ldrb.w	r0, [sp, #13]
  10:	9902      	ldr	r1, [sp, #8]
  12:	6809      	ldr	r1, [r1, #0]
  14:	7809      	ldrb	r1, [r1, #0]
  16:	4288      	cmp	r0, r1
  18:	9201      	str	r2, [sp, #4]
  1a:	9300      	str	r3, [sp, #0]
  1c:	d014      	beq.n	48 <_ZN6memchr8fallback8memrchr328_$u7b$$u7b$closure$u7d$$u7d$17h5a7ccb2df36e9e3eE+0x48>
  1e:	e017      	b.n	50 <_ZN6memchr8fallback8memrchr328_$u7b$$u7b$closure$u7d$$u7d$17h5a7ccb2df36e9e3eE+0x50>
  20:	2001      	movs	r0, #1
  22:	f88d 000e 	strb.w	r0, [sp, #14]
  26:	e00b      	b.n	40 <_ZN6memchr8fallback8memrchr328_$u7b$$u7b$closure$u7d$$u7d$17h5a7ccb2df36e9e3eE+0x40>
  28:	f89d 000d 	ldrb.w	r0, [sp, #13]
  2c:	9902      	ldr	r1, [sp, #8]
  2e:	6889      	ldr	r1, [r1, #8]
  30:	7809      	ldrb	r1, [r1, #0]
  32:	1a40      	subs	r0, r0, r1
  34:	fab0 f080 	clz	r0, r0
  38:	0940      	lsrs	r0, r0, #5
  3a:	f88d 000e 	strb.w	r0, [sp, #14]
  3e:	e7ff      	b.n	40 <_ZN6memchr8fallback8memrchr328_$u7b$$u7b$closure$u7d$$u7d$17h5a7ccb2df36e9e3eE+0x40>
  40:	f89d 000e 	ldrb.w	r0, [sp, #14]
  44:	b004      	add	sp, #16
  46:	4770      	bx	lr
  48:	2001      	movs	r0, #1
  4a:	f88d 000f 	strb.w	r0, [sp, #15]
  4e:	e00b      	b.n	68 <_ZN6memchr8fallback8memrchr328_$u7b$$u7b$closure$u7d$$u7d$17h5a7ccb2df36e9e3eE+0x68>
  50:	f89d 000d 	ldrb.w	r0, [sp, #13]
  54:	9902      	ldr	r1, [sp, #8]
  56:	6849      	ldr	r1, [r1, #4]
  58:	7809      	ldrb	r1, [r1, #0]
  5a:	1a40      	subs	r0, r0, r1
  5c:	fab0 f080 	clz	r0, r0
  60:	0940      	lsrs	r0, r0, #5
  62:	f88d 000f 	strb.w	r0, [sp, #15]
  66:	e7ff      	b.n	68 <_ZN6memchr8fallback8memrchr328_$u7b$$u7b$closure$u7d$$u7d$17h5a7ccb2df36e9e3eE+0x68>
  68:	f89d 000f 	ldrb.w	r0, [sp, #15]
  6c:	07c0      	lsls	r0, r0, #31
  6e:	2800      	cmp	r0, #0
  70:	d1d6      	bne.n	20 <_ZN6memchr8fallback8memrchr328_$u7b$$u7b$closure$u7d$$u7d$17h5a7ccb2df36e9e3eE+0x20>
  72:	e7d9      	b.n	28 <_ZN6memchr8fallback8memrchr328_$u7b$$u7b$closure$u7d$$u7d$17h5a7ccb2df36e9e3eE+0x28>

Disassembly of section .text._ZN6memchr8fallback7ptr_add17hf3c83648d18c1bd6E:

00000000 <_ZN6memchr8fallback7ptr_add17hf3c83648d18c1bd6E>:
_ZN6memchr8fallback7ptr_add17hf3c83648d18c1bd6E():
/Users/Luppy/.cargo/registry/src/github.com-1ecc6299db9ec823/memchr-2.2.0/src/fallback.rs:324

/// Increment the given pointer by the given amount.
unsafe fn ptr_add(ptr: *const u8, amt: usize) -> *const u8 {
   0:	b580      	push	{r7, lr}
   2:	b086      	sub	sp, #24
   4:	460a      	mov	r2, r1
   6:	4603      	mov	r3, r0
   8:	9004      	str	r0, [sp, #16]
   a:	9105      	str	r1, [sp, #20]
   c:	2000      	movs	r0, #0
/Users/Luppy/.cargo/registry/src/github.com-1ecc6299db9ec823/memchr-2.2.0/src/fallback.rs:325
    debug_assert!(amt < ::core::isize::MAX as usize);
   e:	2800      	cmp	r0, #0
  10:	9203      	str	r2, [sp, #12]
  12:	9302      	str	r3, [sp, #8]
  14:	d10e      	bne.n	34 <_ZN6memchr8fallback7ptr_add17hf3c83648d18c1bd6E+0x34>
  16:	e7ff      	b.n	18 <_ZN6memchr8fallback7ptr_add17hf3c83648d18c1bd6E+0x18>
  18:	9805      	ldr	r0, [sp, #20]
  1a:	f06f 4100 	mvn.w	r1, #2147483648	; 0x80000000
  1e:	4288      	cmp	r0, r1
  20:	d307      	bcc.n	32 <_ZN6memchr8fallback7ptr_add17hf3c83648d18c1bd6E+0x32>
  22:	e7ff      	b.n	24 <_ZN6memchr8fallback7ptr_add17hf3c83648d18c1bd6E+0x24>
  24:	f240 0000 	movw	r0, #0
  28:	f2c0 0000 	movt	r0, #0
  2c:	f7ff fffe 	bl	0 <_ZN4core9panicking5panic17h53ca63c6ac6312f8E>
  30:	defe      	udf	#254	; 0xfe
  32:	e7ff      	b.n	34 <_ZN6memchr8fallback7ptr_add17hf3c83648d18c1bd6E+0x34>
/Users/Luppy/.cargo/registry/src/github.com-1ecc6299db9ec823/memchr-2.2.0/src/fallback.rs:326
    ptr.offset(amt as isize)
  34:	9804      	ldr	r0, [sp, #16]
  36:	9905      	ldr	r1, [sp, #20]
  38:	f7ff fffe 	bl	0 <_ZN4core3ptr33_$LT$impl$u20$$BP$const$u20$T$GT$6offset17h1b1bd4fc0c06f6a7E>
  3c:	9001      	str	r0, [sp, #4]
  3e:	e7ff      	b.n	40 <_ZN6memchr8fallback7ptr_add17hf3c83648d18c1bd6E+0x40>
/Users/Luppy/.cargo/registry/src/github.com-1ecc6299db9ec823/memchr-2.2.0/src/fallback.rs:327
}
  40:	9801      	ldr	r0, [sp, #4]
  42:	b006      	add	sp, #24
  44:	bd80      	pop	{r7, pc}

Disassembly of section .text._ZN6memchr8fallback7ptr_sub17hc13a834bde1d8a49E:

00000000 <_ZN6memchr8fallback7ptr_sub17hc13a834bde1d8a49E>:
_ZN6memchr8fallback7ptr_sub17hc13a834bde1d8a49E():
/Users/Luppy/.cargo/registry/src/github.com-1ecc6299db9ec823/memchr-2.2.0/src/fallback.rs:330

/// Decrement the given pointer by the given amount.
unsafe fn ptr_sub(ptr: *const u8, amt: usize) -> *const u8 {
   0:	b580      	push	{r7, lr}
   2:	b088      	sub	sp, #32
   4:	460a      	mov	r2, r1
   6:	4603      	mov	r3, r0
   8:	9006      	str	r0, [sp, #24]
   a:	9107      	str	r1, [sp, #28]
   c:	2000      	movs	r0, #0
/Users/Luppy/.cargo/registry/src/github.com-1ecc6299db9ec823/memchr-2.2.0/src/fallback.rs:331
    debug_assert!(amt < ::core::isize::MAX as usize);
   e:	2800      	cmp	r0, #0
  10:	9205      	str	r2, [sp, #20]
  12:	9304      	str	r3, [sp, #16]
  14:	d10e      	bne.n	34 <_ZN6memchr8fallback7ptr_sub17hc13a834bde1d8a49E+0x34>
  16:	e7ff      	b.n	18 <_ZN6memchr8fallback7ptr_sub17hc13a834bde1d8a49E+0x18>
  18:	9807      	ldr	r0, [sp, #28]
  1a:	f06f 4100 	mvn.w	r1, #2147483648	; 0x80000000
  1e:	4288      	cmp	r0, r1
  20:	d307      	bcc.n	32 <_ZN6memchr8fallback7ptr_sub17hc13a834bde1d8a49E+0x32>
  22:	e7ff      	b.n	24 <_ZN6memchr8fallback7ptr_sub17hc13a834bde1d8a49E+0x24>
  24:	f240 0000 	movw	r0, #0
  28:	f2c0 0000 	movt	r0, #0
  2c:	f7ff fffe 	bl	0 <_ZN4core9panicking5panic17h53ca63c6ac6312f8E>
  30:	defe      	udf	#254	; 0xfe
  32:	e7ff      	b.n	34 <_ZN6memchr8fallback7ptr_sub17hc13a834bde1d8a49E+0x34>
/Users/Luppy/.cargo/registry/src/github.com-1ecc6299db9ec823/memchr-2.2.0/src/fallback.rs:332
    ptr.offset((amt as isize).wrapping_neg())
  34:	9806      	ldr	r0, [sp, #24]
  36:	9907      	ldr	r1, [sp, #28]
  38:	9003      	str	r0, [sp, #12]
  3a:	4608      	mov	r0, r1
  3c:	f7ff fffe 	bl	0 <_ZN4core3num23_$LT$impl$u20$isize$GT$12wrapping_neg17hf93fc63f2adf90ccE>
  40:	9002      	str	r0, [sp, #8]
  42:	e7ff      	b.n	44 <_ZN6memchr8fallback7ptr_sub17hc13a834bde1d8a49E+0x44>
  44:	9803      	ldr	r0, [sp, #12]
  46:	9902      	ldr	r1, [sp, #8]
  48:	f7ff fffe 	bl	0 <_ZN4core3ptr33_$LT$impl$u20$$BP$const$u20$T$GT$6offset17h1b1bd4fc0c06f6a7E>
  4c:	9001      	str	r0, [sp, #4]
  4e:	e7ff      	b.n	50 <_ZN6memchr8fallback7ptr_sub17hc13a834bde1d8a49E+0x50>
/Users/Luppy/.cargo/registry/src/github.com-1ecc6299db9ec823/memchr-2.2.0/src/fallback.rs:333
}
  50:	9801      	ldr	r0, [sp, #4]
  52:	b008      	add	sp, #32
  54:	bd80      	pop	{r7, pc}

Disassembly of section .text._ZN6memchr8fallback20read_unaligned_usize17h7c797d71009c1807E:

00000000 <_ZN6memchr8fallback20read_unaligned_usize17h7c797d71009c1807E>:
_ZN6memchr8fallback20read_unaligned_usize17h7c797d71009c1807E():
/Users/Luppy/.cargo/registry/src/github.com-1ecc6299db9ec823/memchr-2.2.0/src/fallback.rs:335

unsafe fn read_unaligned_usize(ptr: *const u8) -> usize {
   0:	b580      	push	{r7, lr}
   2:	b084      	sub	sp, #16
   4:	4601      	mov	r1, r0
   6:	9002      	str	r0, [sp, #8]
   8:	2000      	movs	r0, #0
/Users/Luppy/.cargo/registry/src/github.com-1ecc6299db9ec823/memchr-2.2.0/src/fallback.rs:336
    let mut n: usize = 0;
   a:	9003      	str	r0, [sp, #12]
/Users/Luppy/.cargo/registry/src/github.com-1ecc6299db9ec823/memchr-2.2.0/src/fallback.rs:337
    ptr::copy_nonoverlapping(ptr, &mut n as *mut _ as *mut u8, USIZE_BYTES);
   c:	9802      	ldr	r0, [sp, #8]
   e:	aa03      	add	r2, sp, #12
  10:	2304      	movs	r3, #4
  12:	9101      	str	r1, [sp, #4]
  14:	4611      	mov	r1, r2
  16:	461a      	mov	r2, r3
  18:	f7ff fffe 	bl	0 <_ZN4core10intrinsics19copy_nonoverlapping17h0bdf6ae081c159c2E>
  1c:	e7ff      	b.n	1e <_ZN6memchr8fallback20read_unaligned_usize17h7c797d71009c1807E+0x1e>
/Users/Luppy/.cargo/registry/src/github.com-1ecc6299db9ec823/memchr-2.2.0/src/fallback.rs:338
    n
  1e:	9803      	ldr	r0, [sp, #12]
/Users/Luppy/.cargo/registry/src/github.com-1ecc6299db9ec823/memchr-2.2.0/src/fallback.rs:339
}
  20:	b004      	add	sp, #16
  22:	bd80      	pop	{r7, pc}

Disassembly of section .text._ZN6memchr8fallback3sub17heb16f96665fc0060E:

00000000 <_ZN6memchr8fallback3sub17heb16f96665fc0060E>:
_ZN6memchr8fallback3sub17heb16f96665fc0060E():
/Users/Luppy/.cargo/registry/src/github.com-1ecc6299db9ec823/memchr-2.2.0/src/fallback.rs:343

/// Subtract `b` from `a` and return the difference. `a` should be greater than
/// or equal to `b`.
fn sub(a: *const u8, b: *const u8) -> usize {
   0:	b086      	sub	sp, #24
   2:	460a      	mov	r2, r1
   4:	4603      	mov	r3, r0
   6:	9004      	str	r0, [sp, #16]
   8:	9105      	str	r1, [sp, #20]
   a:	2000      	movs	r0, #0
/Users/Luppy/.cargo/registry/src/github.com-1ecc6299db9ec823/memchr-2.2.0/src/fallback.rs:344
    debug_assert!(a >= b);
   c:	2800      	cmp	r0, #0
   e:	9203      	str	r2, [sp, #12]
  10:	9302      	str	r3, [sp, #8]
  12:	d10d      	bne.n	30 <_ZN6memchr8fallback3sub17heb16f96665fc0060E+0x30>
  14:	e7ff      	b.n	16 <_ZN6memchr8fallback3sub17heb16f96665fc0060E+0x16>
  16:	9804      	ldr	r0, [sp, #16]
  18:	9905      	ldr	r1, [sp, #20]
  1a:	4288      	cmp	r0, r1
  1c:	d207      	bcs.n	2e <_ZN6memchr8fallback3sub17heb16f96665fc0060E+0x2e>
  1e:	e7ff      	b.n	20 <_ZN6memchr8fallback3sub17heb16f96665fc0060E+0x20>
  20:	f240 0000 	movw	r0, #0
  24:	f2c0 0000 	movt	r0, #0
  28:	f7ff fffe 	bl	0 <_ZN4core9panicking5panic17h53ca63c6ac6312f8E>
  2c:	defe      	udf	#254	; 0xfe
  2e:	e7ff      	b.n	30 <_ZN6memchr8fallback3sub17heb16f96665fc0060E+0x30>
/Users/Luppy/.cargo/registry/src/github.com-1ecc6299db9ec823/memchr-2.2.0/src/fallback.rs:345
    (a as usize) - (b as usize)
  30:	9804      	ldr	r0, [sp, #16]
  32:	9905      	ldr	r1, [sp, #20]
  34:	1a42      	subs	r2, r0, r1
  36:	4288      	cmp	r0, r1
  38:	9201      	str	r2, [sp, #4]
  3a:	d303      	bcc.n	44 <_ZN6memchr8fallback3sub17heb16f96665fc0060E+0x44>
  3c:	e7ff      	b.n	3e <_ZN6memchr8fallback3sub17heb16f96665fc0060E+0x3e>
/Users/Luppy/.cargo/registry/src/github.com-1ecc6299db9ec823/memchr-2.2.0/src/fallback.rs:346
}
  3e:	9801      	ldr	r0, [sp, #4]
  40:	b006      	add	sp, #24
  42:	4770      	bx	lr
/Users/Luppy/.cargo/registry/src/github.com-1ecc6299db9ec823/memchr-2.2.0/src/fallback.rs:345
    (a as usize) - (b as usize)
  44:	f240 0000 	movw	r0, #0
  48:	f2c0 0000 	movt	r0, #0
  4c:	f7ff fffe 	bl	0 <_ZN4core9panicking5panic17h53ca63c6ac6312f8E>
  50:	defe      	udf	#254	; 0xfe

memchr-e5ca130edfba2c24.memchr.2jnkkboq-cgu.3.rcgu.o:     file format elf32-littlearm

SYMBOL TABLE:
00000000 l    df *ABS*	00000000 memchr.2jnkkboq-cgu.3
000003d6 l       .debug_str	00000000 
000004cd l       .debug_str	00000000 
000004d8 l       .debug_str	00000000 
000004df l       .debug_str	00000000 
00000510 l       .debug_str	00000000 
0000051c l       .debug_str	00000000 
0000054e l       .debug_str	00000000 
00000555 l       .debug_str	00000000 
0000055a l       .debug_str	00000000 
00000562 l       .debug_str	00000000 
00000564 l       .debug_str	00000000 
00000566 l       .debug_str	00000000 
00000000 l       .debug_str	00000000 
00000041 l       .debug_str	00000000 
00000096 l       .debug_str	00000000 
000000e0 l       .debug_str	00000000 
000000e5 l       .debug_str	00000000 
000000ec l       .debug_str	00000000 
000000ef l       .debug_str	00000000 
000000f2 l       .debug_str	00000000 
000000f6 l       .debug_str	00000000 
000000fd l       .debug_str	00000000 
00000101 l       .debug_str	00000000 
00000104 l       .debug_str	00000000 
00000107 l       .debug_str	00000000 
0000010c l       .debug_str	00000000 
00000112 l       .debug_str	00000000 
00000119 l       .debug_str	00000000 
00000121 l       .debug_str	00000000 
0000012b l       .debug_str	00000000 
00000134 l       .debug_str	00000000 
0000013a l       .debug_str	00000000 
00000140 l       .debug_str	00000000 
00000143 l       .debug_str	00000000 
00000152 l       .debug_str	00000000 
00000159 l       .debug_str	00000000 
0000015d l       .debug_str	00000000 
00000166 l       .debug_str	00000000 
0000016e l       .debug_str	00000000 
00000176 l       .debug_str	00000000 
0000017d l       .debug_str	00000000 
00000183 l       .debug_str	00000000 
00000197 l       .debug_str	00000000 
000001a3 l       .debug_str	00000000 
000001af l       .debug_str	00000000 
000001b1 l       .debug_str	00000000 
000001ca l       .debug_str	00000000 
000001cf l       .debug_str	00000000 
000001e0 l       .debug_str	00000000 
000001ea l       .debug_str	00000000 
000001f0 l       .debug_str	00000000 
000001f4 l       .debug_str	00000000 
000001f9 l       .debug_str	00000000 
000001fe l       .debug_str	00000000 
00000204 l       .debug_str	00000000 
0000020a l       .debug_str	00000000 
00000211 l       .debug_str	00000000 
00000216 l       .debug_str	00000000 
0000021b l       .debug_str	00000000 
0000021f l       .debug_str	00000000 
0000022d l       .debug_str	00000000 
00000237 l       .debug_str	00000000 
0000023b l       .debug_str	00000000 
00000246 l       .debug_str	00000000 
0000024d l       .debug_str	00000000 
00000253 l       .debug_str	00000000 
00000257 l       .debug_str	00000000 
00000274 l       .debug_str	00000000 
00000278 l       .debug_str	00000000 
00000280 l       .debug_str	00000000 
00000297 l       .debug_str	00000000 
000002bb l       .debug_str	00000000 
000002d7 l       .debug_str	00000000 
000002dc l       .debug_str	00000000 
000002e5 l       .debug_str	00000000 
000002ec l       .debug_str	00000000 
00000305 l       .debug_str	00000000 
0000030f l       .debug_str	00000000 
00000329 l       .debug_str	00000000 
00000387 l       .debug_str	00000000 
00000392 l       .debug_str	00000000 
00000399 l       .debug_str	00000000 
000003a3 l       .debug_str	00000000 
000003a8 l       .debug_str	00000000 
000003b4 l       .debug_str	00000000 
000003bc l       .debug_str	00000000 
000003c5 l       .debug_str	00000000 
000003ca l       .debug_str	00000000 
000003cd l       .debug_str	00000000 
000003dd l       .debug_str	00000000 
000003e0 l       .debug_str	00000000 
000003e6 l       .debug_str	00000000 
000003f0 l       .debug_str	00000000 
000003f8 l       .debug_str	00000000 
000003fe l       .debug_str	00000000 
00000409 l       .debug_str	00000000 
00000412 l       .debug_str	00000000 
00000435 l       .debug_str	00000000 
00000454 l       .debug_str	00000000 
0000047b l       .debug_str	00000000 
00000485 l       .debug_str	00000000 
00000000 l    d  .text._ZN42_$LT$$RF$T$u20$as$u20$core..fmt..Debug$GT$3fmt17he0662d6d576dbc21E	00000000 .text._ZN42_$LT$$RF$T$u20$as$u20$core..fmt..Debug$GT$3fmt17he0662d6d576dbc21E
00000000 l    d  .text._ZN4core3fmt10ArgumentV13new17he7aeb924cd1c8272E	00000000 .text._ZN4core3fmt10ArgumentV13new17he7aeb924cd1c8272E
00000000 l    d  .text._ZN4core3fmt9Arguments6new_v117h97fab7064a36d1a4E	00000000 .text._ZN4core3fmt9Arguments6new_v117h97fab7064a36d1a4E
00000000 l    d  .debug_abbrev	00000000 .debug_abbrev
00000000 l    d  .debug_info	00000000 .debug_info
00000000 l    d  .debug_ranges	00000000 .debug_ranges
00000000 l    d  .debug_frame	00000000 .debug_frame
00000000 l    d  .debug_line	00000000 .debug_line
00000000 g     F .text._ZN42_$LT$$RF$T$u20$as$u20$core..fmt..Debug$GT$3fmt17he0662d6d576dbc21E	00000028 _ZN42_$LT$$RF$T$u20$as$u20$core..fmt..Debug$GT$3fmt17he0662d6d576dbc21E
00000000 g     F .text._ZN4core3fmt10ArgumentV13new17he7aeb924cd1c8272E	00000032 _ZN4core3fmt10ArgumentV13new17he7aeb924cd1c8272E
00000000         *UND*	00000000 .hidden _ZN4core3fmt3num52_$LT$impl$u20$core..fmt..Debug$u20$for$u20$usize$GT$3fmt17h2796edf2b2bb0bbfE
00000000 g     F .text._ZN4core3fmt9Arguments6new_v117h97fab7064a36d1a4E	0000004c .hidden _ZN4core3fmt9Arguments6new_v117h97fab7064a36d1a4E



Disassembly of section .text._ZN42_$LT$$RF$T$u20$as$u20$core..fmt..Debug$GT$3fmt17he0662d6d576dbc21E:

00000000 <_ZN42_$LT$$RF$T$u20$as$u20$core..fmt..Debug$GT$3fmt17he0662d6d576dbc21E>:
_ZN42_$LT$$RF$T$u20$as$u20$core..fmt..Debug$GT$3fmt17he0662d6d576dbc21E():
/rustc/50a0defd5a93523067ef239936cc2e0755220904/src/libcore/fmt/mod.rs:1914
   0:	b580      	push	{r7, lr}
   2:	b086      	sub	sp, #24
   4:	460a      	mov	r2, r1
   6:	4603      	mov	r3, r0
   8:	9004      	str	r0, [sp, #16]
   a:	9105      	str	r1, [sp, #20]
   c:	9804      	ldr	r0, [sp, #16]
   e:	6800      	ldr	r0, [r0, #0]
  10:	9905      	ldr	r1, [sp, #20]
  12:	9203      	str	r2, [sp, #12]
  14:	9302      	str	r3, [sp, #8]
  16:	f7ff fffe 	bl	0 <_ZN4core3fmt3num52_$LT$impl$u20$core..fmt..Debug$u20$for$u20$usize$GT$3fmt17h2796edf2b2bb0bbfE>
  1a:	9001      	str	r0, [sp, #4]
  1c:	e7ff      	b.n	1e <_ZN42_$LT$$RF$T$u20$as$u20$core..fmt..Debug$GT$3fmt17he0662d6d576dbc21E+0x1e>
  1e:	9801      	ldr	r0, [sp, #4]
  20:	f000 0001 	and.w	r0, r0, #1
  24:	b006      	add	sp, #24
  26:	bd80      	pop	{r7, pc}

Disassembly of section .text._ZN4core3fmt10ArgumentV13new17he7aeb924cd1c8272E:

00000000 <_ZN4core3fmt10ArgumentV13new17he7aeb924cd1c8272E>:
_ZN4core3fmt10ArgumentV13new17he7aeb924cd1c8272E():
/rustc/50a0defd5a93523067ef239936cc2e0755220904/src/libcore/fmt/mod.rs:278
   0:	b08a      	sub	sp, #40	; 0x28
   2:	460a      	mov	r2, r1
   4:	4603      	mov	r3, r0
   6:	9004      	str	r0, [sp, #16]
   8:	9105      	str	r1, [sp, #20]
/rustc/50a0defd5a93523067ef239936cc2e0755220904/src/libcore/fmt/mod.rs:282
   a:	9805      	ldr	r0, [sp, #20]
   c:	9008      	str	r0, [sp, #32]
   e:	9808      	ldr	r0, [sp, #32]
  10:	9203      	str	r2, [sp, #12]
  12:	9302      	str	r3, [sp, #8]
  14:	9001      	str	r0, [sp, #4]
  16:	e7ff      	b.n	18 <_ZN4core3fmt10ArgumentV13new17he7aeb924cd1c8272E+0x18>
/rustc/50a0defd5a93523067ef239936cc2e0755220904/src/libcore/fmt/mod.rs:283
  18:	9804      	ldr	r0, [sp, #16]
  1a:	9009      	str	r0, [sp, #36]	; 0x24
  1c:	9809      	ldr	r0, [sp, #36]	; 0x24
  1e:	9000      	str	r0, [sp, #0]
  20:	e7ff      	b.n	22 <_ZN4core3fmt10ArgumentV13new17he7aeb924cd1c8272E+0x22>
/rustc/50a0defd5a93523067ef239936cc2e0755220904/src/libcore/fmt/mod.rs:281
  22:	9800      	ldr	r0, [sp, #0]
  24:	9006      	str	r0, [sp, #24]
  26:	9901      	ldr	r1, [sp, #4]
  28:	9107      	str	r1, [sp, #28]
/rustc/50a0defd5a93523067ef239936cc2e0755220904/src/libcore/fmt/mod.rs:286
  2a:	9806      	ldr	r0, [sp, #24]
  2c:	9907      	ldr	r1, [sp, #28]
  2e:	b00a      	add	sp, #40	; 0x28
  30:	4770      	bx	lr

Disassembly of section .text._ZN4core3fmt9Arguments6new_v117h97fab7064a36d1a4E:

00000000 <_ZN4core3fmt9Arguments6new_v117h97fab7064a36d1a4E>:
_ZN4core3fmt9Arguments6new_v117h97fab7064a36d1a4E():
/rustc/50a0defd5a93523067ef239936cc2e0755220904/src/libcore/fmt/mod.rs:314
   0:	b570      	push	{r4, r5, r6, lr}
   2:	b08a      	sub	sp, #40	; 0x28
   4:	f8dd c038 	ldr.w	ip, [sp, #56]	; 0x38
   8:	469e      	mov	lr, r3
   a:	4614      	mov	r4, r2
   c:	460d      	mov	r5, r1
   e:	4606      	mov	r6, r0
  10:	9104      	str	r1, [sp, #16]
  12:	9205      	str	r2, [sp, #20]
  14:	9306      	str	r3, [sp, #24]
  16:	f8cd c01c 	str.w	ip, [sp, #28]
/rustc/50a0defd5a93523067ef239936cc2e0755220904/src/libcore/fmt/mod.rs:317
  1a:	9904      	ldr	r1, [sp, #16]
  1c:	9a05      	ldr	r2, [sp, #20]
  1e:	2300      	movs	r3, #0
/rustc/50a0defd5a93523067ef239936cc2e0755220904/src/libcore/fmt/mod.rs:318
  20:	9309      	str	r3, [sp, #36]	; 0x24
  22:	9308      	str	r3, [sp, #32]
  24:	9308      	str	r3, [sp, #32]
/rustc/50a0defd5a93523067ef239936cc2e0755220904/src/libcore/fmt/mod.rs:319
  26:	9b06      	ldr	r3, [sp, #24]
  28:	f8dd c01c 	ldr.w	ip, [sp, #28]
/rustc/50a0defd5a93523067ef239936cc2e0755220904/src/libcore/fmt/mod.rs:316
  2c:	6001      	str	r1, [r0, #0]
  2e:	6042      	str	r2, [r0, #4]
  30:	9908      	ldr	r1, [sp, #32]
  32:	9a09      	ldr	r2, [sp, #36]	; 0x24
  34:	6081      	str	r1, [r0, #8]
  36:	60c2      	str	r2, [r0, #12]
  38:	6103      	str	r3, [r0, #16]
  3a:	f8c0 c014 	str.w	ip, [r0, #20]
/rustc/50a0defd5a93523067ef239936cc2e0755220904/src/libcore/fmt/mod.rs:321
  3e:	f8cd e00c 	str.w	lr, [sp, #12]
  42:	9402      	str	r4, [sp, #8]
  44:	9501      	str	r5, [sp, #4]
  46:	9600      	str	r6, [sp, #0]
  48:	b00a      	add	sp, #40	; 0x28
  4a:	bd70      	pop	{r4, r5, r6, pc}

memchr-e5ca130edfba2c24.memchr.2jnkkboq-cgu.4.rcgu.o:     file format elf32-littlearm

SYMBOL TABLE:
00000000 l    df *ABS*	00000000 memchr.2jnkkboq-cgu.4
00000158 l       .debug_str	00000000 
00000153 l       .debug_str	00000000 
0000015e l       .debug_str	00000000 
00000161 l       .debug_str	00000000 
00000000 l       .debug_str	00000000 
00000041 l       .debug_str	00000000 
00000096 l       .debug_str	00000000 
000000e0 l       .debug_str	00000000 
000000e5 l       .debug_str	00000000 
000000e9 l       .debug_str	00000000 
000000ed l       .debug_str	00000000 
000000f3 l       .debug_str	00000000 
000000f8 l       .debug_str	00000000 
00000121 l       .debug_str	00000000 
0000012c l       .debug_str	00000000 
0000012e l       .debug_str	00000000 
00000000 l    d  .text._ZN4core3cmp3Ord3min17h563c891acf46b9c1E	00000000 .text._ZN4core3cmp3Ord3min17h563c891acf46b9c1E
00000000 l    d  .text._ZN4core3cmp3min17h092024cef1827f27E	00000000 .text._ZN4core3cmp3min17h092024cef1827f27E
00000000 l    d  .debug_abbrev	00000000 .debug_abbrev
00000000 l    d  .debug_info	00000000 .debug_info
00000000 l    d  .debug_ranges	00000000 .debug_ranges
00000000 l    d  .debug_frame	00000000 .debug_frame
00000000 l    d  .debug_line	00000000 .debug_line
00000000 g     F .text._ZN4core3cmp3Ord3min17h563c891acf46b9c1E	00000080 _ZN4core3cmp3Ord3min17h563c891acf46b9c1E
00000000 g     F .text._ZN4core3cmp3min17h092024cef1827f27E	00000022 _ZN4core3cmp3min17h092024cef1827f27E
00000000         *UND*	00000000 .hidden _ZN4core3cmp5impls57_$LT$impl$u20$core..cmp..PartialOrd$u20$for$u20$usize$GT$2le17h2d03918f3f4ce058E



Disassembly of section .text._ZN4core3cmp3Ord3min17h563c891acf46b9c1E:

00000000 <_ZN4core3cmp3Ord3min17h563c891acf46b9c1E>:
_ZN4core3cmp3Ord3min17h563c891acf46b9c1E():
/rustc/50a0defd5a93523067ef239936cc2e0755220904/src/libcore/cmp.rs:566
   0:	b580      	push	{r7, lr}
   2:	b088      	sub	sp, #32
   4:	460a      	mov	r2, r1
   6:	4603      	mov	r3, r0
   8:	9004      	str	r0, [sp, #16]
   a:	9105      	str	r1, [sp, #20]
   c:	2000      	movs	r0, #0
/rustc/50a0defd5a93523067ef239936cc2e0755220904/src/libcore/cmp.rs:568
   e:	f88d 001f 	strb.w	r0, [sp, #31]
  12:	f88d 001e 	strb.w	r0, [sp, #30]
  16:	2001      	movs	r0, #1
  18:	f88d 001f 	strb.w	r0, [sp, #31]
  1c:	f88d 001e 	strb.w	r0, [sp, #30]
  20:	a804      	add	r0, sp, #16
  22:	a905      	add	r1, sp, #20
  24:	9203      	str	r2, [sp, #12]
  26:	9302      	str	r3, [sp, #8]
  28:	f7ff fffe 	bl	0 <_ZN4core3cmp5impls57_$LT$impl$u20$core..cmp..PartialOrd$u20$for$u20$usize$GT$2le17h2d03918f3f4ce058E>
  2c:	9001      	str	r0, [sp, #4]
  2e:	e7ff      	b.n	30 <_ZN4core3cmp3Ord3min17h563c891acf46b9c1E+0x30>
  30:	9801      	ldr	r0, [sp, #4]
  32:	07c1      	lsls	r1, r0, #31
  34:	2900      	cmp	r1, #0
  36:	d006      	beq.n	46 <_ZN4core3cmp3Ord3min17h563c891acf46b9c1E+0x46>
  38:	e7ff      	b.n	3a <_ZN4core3cmp3Ord3min17h563c891acf46b9c1E+0x3a>
  3a:	2000      	movs	r0, #0
  3c:	f88d 001f 	strb.w	r0, [sp, #31]
  40:	9804      	ldr	r0, [sp, #16]
  42:	9006      	str	r0, [sp, #24]
  44:	e005      	b.n	52 <_ZN4core3cmp3Ord3min17h563c891acf46b9c1E+0x52>
  46:	2000      	movs	r0, #0
  48:	f88d 001e 	strb.w	r0, [sp, #30]
  4c:	9805      	ldr	r0, [sp, #20]
  4e:	9006      	str	r0, [sp, #24]
  50:	e7ff      	b.n	52 <_ZN4core3cmp3Ord3min17h563c891acf46b9c1E+0x52>
/rustc/50a0defd5a93523067ef239936cc2e0755220904/src/libcore/cmp.rs:569
  52:	f89d 001e 	ldrb.w	r0, [sp, #30]
  56:	07c0      	lsls	r0, r0, #31
  58:	2800      	cmp	r0, #0
  5a:	d109      	bne.n	70 <_ZN4core3cmp3Ord3min17h563c891acf46b9c1E+0x70>
  5c:	e7ff      	b.n	5e <_ZN4core3cmp3Ord3min17h563c891acf46b9c1E+0x5e>
  5e:	f89d 001f 	ldrb.w	r0, [sp, #31]
  62:	07c0      	lsls	r0, r0, #31
  64:	2800      	cmp	r0, #0
  66:	d107      	bne.n	78 <_ZN4core3cmp3Ord3min17h563c891acf46b9c1E+0x78>
  68:	e7ff      	b.n	6a <_ZN4core3cmp3Ord3min17h563c891acf46b9c1E+0x6a>
  6a:	9806      	ldr	r0, [sp, #24]
  6c:	b008      	add	sp, #32
  6e:	bd80      	pop	{r7, pc}
  70:	2000      	movs	r0, #0
  72:	f88d 001e 	strb.w	r0, [sp, #30]
  76:	e7f2      	b.n	5e <_ZN4core3cmp3Ord3min17h563c891acf46b9c1E+0x5e>
  78:	2000      	movs	r0, #0
  7a:	f88d 001f 	strb.w	r0, [sp, #31]
  7e:	e7f4      	b.n	6a <_ZN4core3cmp3Ord3min17h563c891acf46b9c1E+0x6a>

Disassembly of section .text._ZN4core3cmp3min17h092024cef1827f27E:

00000000 <_ZN4core3cmp3min17h092024cef1827f27E>:
_ZN4core3cmp3min17h092024cef1827f27E():
/rustc/50a0defd5a93523067ef239936cc2e0755220904/src/libcore/cmp.rs:861
   0:	b580      	push	{r7, lr}
   2:	b086      	sub	sp, #24
   4:	460a      	mov	r2, r1
   6:	4603      	mov	r3, r0
   8:	9004      	str	r0, [sp, #16]
   a:	9105      	str	r1, [sp, #20]
/rustc/50a0defd5a93523067ef239936cc2e0755220904/src/libcore/cmp.rs:862
   c:	9804      	ldr	r0, [sp, #16]
   e:	9905      	ldr	r1, [sp, #20]
  10:	9203      	str	r2, [sp, #12]
  12:	9302      	str	r3, [sp, #8]
  14:	f7ff fffe 	bl	0 <_ZN4core3cmp3min17h092024cef1827f27E>
  18:	9001      	str	r0, [sp, #4]
  1a:	e7ff      	b.n	1c <_ZN4core3cmp3min17h092024cef1827f27E+0x1c>
/rustc/50a0defd5a93523067ef239936cc2e0755220904/src/libcore/cmp.rs:863
  1c:	9801      	ldr	r0, [sp, #4]
  1e:	b006      	add	sp, #24
  20:	bd80      	pop	{r7, pc}

memchr-e5ca130edfba2c24.memchr.2jnkkboq-cgu.5.rcgu.o:     file format elf32-littlearm

SYMBOL TABLE:
00000000 l    df *ABS*	00000000 memchr.2jnkkboq-cgu.5
0000021b l       .debug_str	00000000 
000000f7 l       .debug_str	00000000 
000000f9 l       .debug_str	00000000 
0000012c l       .debug_str	00000000 
0000013f l       .debug_str	00000000 
00000148 l       .debug_str	00000000 
00000152 l       .debug_str	00000000 
00000159 l       .debug_str	00000000 
0000015f l       .debug_str	00000000 
00000165 l       .debug_str	00000000 
000001ab l       .debug_str	00000000 
000001b3 l       .debug_str	00000000 
000001fc l       .debug_str	00000000 
00000207 l       .debug_str	00000000 
0000020b l       .debug_str	00000000 
00000211 l       .debug_str	00000000 
00000217 l       .debug_str	00000000 
0000022c l       .debug_str	00000000 
0000022e l       .debug_str	00000000 
000002a3 l       .debug_str	00000000 
000002d0 l       .debug_str	00000000 
000002d5 l       .debug_str	00000000 
000002d9 l       .debug_str	00000000 
000002de l       .debug_str	00000000 
00000000 l       .debug_str	00000000 
00000041 l       .debug_str	00000000 
00000096 l       .debug_str	00000000 
000000e0 l       .debug_str	00000000 
000000e5 l       .debug_str	00000000 
000000eb l       .debug_str	00000000 
000000f4 l       .debug_str	00000000 
00000000 l     O .rodata..Lanon.22ab24294251aa43c30b8661cd4a5519.0	00000018 .Lanon.22ab24294251aa43c30b8661cd4a5519.0
00000000 l     O .rodata..Lanon.22ab24294251aa43c30b8661cd4a5519.3	00000018 .Lanon.22ab24294251aa43c30b8661cd4a5519.3
00000000 l     O .rodata..Lanon.22ab24294251aa43c30b8661cd4a5519.5	00000018 .Lanon.22ab24294251aa43c30b8661cd4a5519.5
00000000 l     O .rodata.str.0	00000048 str.0
00000000 l     O .rodata.str.1	00000039 str.1
00000000 l    d  .text._ZN4core5slice14from_raw_parts17h43814f7b9fdef66aE	00000000 .text._ZN4core5slice14from_raw_parts17h43814f7b9fdef66aE
00000000 l    d  .text._ZN4core5slice29_$LT$impl$u20$$u5b$T$u5d$$GT$3len17h63f985867d9f263fE	00000000 .text._ZN4core5slice29_$LT$impl$u20$$u5b$T$u5d$$GT$3len17h63f985867d9f263fE
00000000 l    d  .text._ZN4core5slice29_$LT$impl$u20$$u5b$T$u5d$$GT$6as_ptr17hd0263209417be61aE	00000000 .text._ZN4core5slice29_$LT$impl$u20$$u5b$T$u5d$$GT$6as_ptr17hd0263209417be61aE
00000000 l    d  .text._ZN4core5slice74_$LT$impl$u20$core..ops..index..Index$LT$I$GT$$u20$for$u20$$u5b$T$u5d$$GT$5index17hf116fad1d92ca796E	00000000 .text._ZN4core5slice74_$LT$impl$u20$core..ops..index..Index$LT$I$GT$$u20$for$u20$$u5b$T$u5d$$GT$5index17hf116fad1d92ca796E
00000000 l    d  .rodata.str.0	00000000 .rodata.str.0
00000000 l    d  .rodata.str.1	00000000 .rodata.str.1
00000000 l    d  .rodata..Lanon.22ab24294251aa43c30b8661cd4a5519.1	00000000 .rodata..Lanon.22ab24294251aa43c30b8661cd4a5519.1
00000000 l    d  .rodata..Lanon.22ab24294251aa43c30b8661cd4a5519.2	00000000 .rodata..Lanon.22ab24294251aa43c30b8661cd4a5519.2
00000000 l    d  .rodata..Lanon.22ab24294251aa43c30b8661cd4a5519.4	00000000 .rodata..Lanon.22ab24294251aa43c30b8661cd4a5519.4
00000000 l    d  .debug_abbrev	00000000 .debug_abbrev
00000000 l    d  .debug_info	00000000 .debug_info
00000000 l    d  .debug_ranges	00000000 .debug_ranges
00000000 l    d  .debug_frame	00000000 .debug_frame
00000000 l    d  .debug_line	00000000 .debug_line
00000000         *UND*	00000000 _ZN103_$LT$core..ops..range..RangeFrom$LT$usize$GT$$u20$as$u20$core..slice..SliceIndex$LT$$u5b$T$u5d$$GT$$GT$5index17h1803157cb2b374e1E
00000000         *UND*	00000000 _ZN4core3mem7size_of17h96e196a831b2ee50E
00000000         *UND*	00000000 _ZN4core3mem8align_of17h58768cca995720e6E
00000000         *UND*	00000000 .hidden _ZN4core3num23_$LT$impl$u20$usize$GT$14saturating_mul17hbe17bae9aebecc36E
00000000 g     F .text._ZN4core5slice14from_raw_parts17h43814f7b9fdef66aE	000000aa _ZN4core5slice14from_raw_parts17h43814f7b9fdef66aE
00000000 g     F .text._ZN4core5slice29_$LT$impl$u20$$u5b$T$u5d$$GT$3len17h63f985867d9f263fE	0000001c _ZN4core5slice29_$LT$impl$u20$$u5b$T$u5d$$GT$3len17h63f985867d9f263fE
00000000 g     F .text._ZN4core5slice29_$LT$impl$u20$$u5b$T$u5d$$GT$6as_ptr17hd0263209417be61aE	00000014 _ZN4core5slice29_$LT$impl$u20$$u5b$T$u5d$$GT$6as_ptr17hd0263209417be61aE
00000000 g     F .text._ZN4core5slice74_$LT$impl$u20$core..ops..index..Index$LT$I$GT$$u20$for$u20$$u5b$T$u5d$$GT$5index17hf116fad1d92ca796E	00000032 _ZN4core5slice74_$LT$impl$u20$core..ops..index..Index$LT$I$GT$$u20$for$u20$$u5b$T$u5d$$GT$5index17hf116fad1d92ca796E
00000000         *UND*	00000000 _ZN4core9panicking5panic17h53ca63c6ac6312f8E



Disassembly of section .text._ZN4core5slice14from_raw_parts17h43814f7b9fdef66aE:

00000000 <_ZN4core5slice14from_raw_parts17h43814f7b9fdef66aE>:
_ZN4core5slice14from_raw_parts17h43814f7b9fdef66aE():
/rustc/50a0defd5a93523067ef239936cc2e0755220904/src/libcore/slice/mod.rs:5112
   0:	b580      	push	{r7, lr}
   2:	b08c      	sub	sp, #48	; 0x30
   4:	460a      	mov	r2, r1
   6:	4603      	mov	r3, r0
   8:	9006      	str	r0, [sp, #24]
   a:	9107      	str	r1, [sp, #28]
   c:	2001      	movs	r0, #1
/rustc/50a0defd5a93523067ef239936cc2e0755220904/src/libcore/macros.rs:184
   e:	2800      	cmp	r0, #0
  10:	9205      	str	r2, [sp, #20]
  12:	9304      	str	r3, [sp, #16]
  14:	d11b      	bne.n	4e <_ZN4core5slice14from_raw_parts17h43814f7b9fdef66aE+0x4e>
  16:	e7ff      	b.n	18 <_ZN4core5slice14from_raw_parts17h43814f7b9fdef66aE+0x18>
/rustc/50a0defd5a93523067ef239936cc2e0755220904/src/libcore/slice/mod.rs:5113
  18:	9806      	ldr	r0, [sp, #24]
  1a:	9003      	str	r0, [sp, #12]
  1c:	f7ff fffe 	bl	0 <_ZN4core3mem8align_of17h58768cca995720e6E>
  20:	9002      	str	r0, [sp, #8]
  22:	e7ff      	b.n	24 <_ZN4core5slice14from_raw_parts17h43814f7b9fdef66aE+0x24>
  24:	9802      	ldr	r0, [sp, #8]
  26:	2800      	cmp	r0, #0
  28:	d038      	beq.n	9c <_ZN4core5slice14from_raw_parts17h43814f7b9fdef66aE+0x9c>
  2a:	e7ff      	b.n	2c <_ZN4core5slice14from_raw_parts17h43814f7b9fdef66aE+0x2c>
  2c:	9803      	ldr	r0, [sp, #12]
  2e:	9902      	ldr	r1, [sp, #8]
  30:	fbb0 f2f1 	udiv	r2, r0, r1
  34:	fb02 0211 	mls	r2, r2, r1, r0
/rustc/50a0defd5a93523067ef239936cc2e0755220904/src/libcore/macros.rs:184
  38:	2a00      	cmp	r2, #0
  3a:	d007      	beq.n	4c <_ZN4core5slice14from_raw_parts17h43814f7b9fdef66aE+0x4c>
  3c:	e7ff      	b.n	3e <_ZN4core5slice14from_raw_parts17h43814f7b9fdef66aE+0x3e>
/rustc/50a0defd5a93523067ef239936cc2e0755220904/src/libcore/macros.rs:12
  3e:	f240 0000 	movw	r0, #0
  42:	f2c0 0000 	movt	r0, #0
  46:	f7ff fffe 	bl	0 <_ZN4core9panicking5panic17h53ca63c6ac6312f8E>
  4a:	defe      	udf	#254	; 0xfe
/rustc/50a0defd5a93523067ef239936cc2e0755220904/src/libcore/macros.rs:184
  4c:	e7ff      	b.n	4e <_ZN4core5slice14from_raw_parts17h43814f7b9fdef66aE+0x4e>
  4e:	2001      	movs	r0, #1
  50:	2800      	cmp	r0, #0
  52:	d117      	bne.n	84 <_ZN4core5slice14from_raw_parts17h43814f7b9fdef66aE+0x84>
  54:	e7ff      	b.n	56 <_ZN4core5slice14from_raw_parts17h43814f7b9fdef66aE+0x56>
/rustc/50a0defd5a93523067ef239936cc2e0755220904/src/libcore/slice/mod.rs:5114
  56:	f7ff fffe 	bl	0 <_ZN4core3mem7size_of17h96e196a831b2ee50E>
  5a:	9001      	str	r0, [sp, #4]
  5c:	e7ff      	b.n	5e <_ZN4core5slice14from_raw_parts17h43814f7b9fdef66aE+0x5e>
  5e:	9907      	ldr	r1, [sp, #28]
  60:	9801      	ldr	r0, [sp, #4]
  62:	f7ff fffe 	bl	0 <_ZN4core3num23_$LT$impl$u20$usize$GT$14saturating_mul17hbe17bae9aebecc36E>
  66:	9000      	str	r0, [sp, #0]
  68:	e7ff      	b.n	6a <_ZN4core5slice14from_raw_parts17h43814f7b9fdef66aE+0x6a>
/rustc/50a0defd5a93523067ef239936cc2e0755220904/src/libcore/macros.rs:184
  6a:	9800      	ldr	r0, [sp, #0]
  6c:	f1b0 3fff 	cmp.w	r0, #4294967295	; 0xffffffff
  70:	dc07      	bgt.n	82 <_ZN4core5slice14from_raw_parts17h43814f7b9fdef66aE+0x82>
  72:	e7ff      	b.n	74 <_ZN4core5slice14from_raw_parts17h43814f7b9fdef66aE+0x74>
/rustc/50a0defd5a93523067ef239936cc2e0755220904/src/libcore/macros.rs:12
  74:	f240 0000 	movw	r0, #0
  78:	f2c0 0000 	movt	r0, #0
  7c:	f7ff fffe 	bl	0 <_ZN4core9panicking5panic17h53ca63c6ac6312f8E>
  80:	defe      	udf	#254	; 0xfe
/rustc/50a0defd5a93523067ef239936cc2e0755220904/src/libcore/macros.rs:184
  82:	e7ff      	b.n	84 <_ZN4core5slice14from_raw_parts17h43814f7b9fdef66aE+0x84>
/rustc/50a0defd5a93523067ef239936cc2e0755220904/src/libcore/slice/mod.rs:5116
  84:	9806      	ldr	r0, [sp, #24]
  86:	9907      	ldr	r1, [sp, #28]
  88:	900a      	str	r0, [sp, #40]	; 0x28
  8a:	910b      	str	r1, [sp, #44]	; 0x2c
  8c:	980a      	ldr	r0, [sp, #40]	; 0x28
  8e:	990b      	ldr	r1, [sp, #44]	; 0x2c
  90:	9008      	str	r0, [sp, #32]
  92:	9109      	str	r1, [sp, #36]	; 0x24
  94:	9808      	ldr	r0, [sp, #32]
  96:	9909      	ldr	r1, [sp, #36]	; 0x24
/rustc/50a0defd5a93523067ef239936cc2e0755220904/src/libcore/slice/mod.rs:5117
  98:	b00c      	add	sp, #48	; 0x30
  9a:	bd80      	pop	{r7, pc}
/rustc/50a0defd5a93523067ef239936cc2e0755220904/src/libcore/slice/mod.rs:5113
  9c:	f240 0000 	movw	r0, #0
  a0:	f2c0 0000 	movt	r0, #0
  a4:	f7ff fffe 	bl	0 <_ZN4core9panicking5panic17h53ca63c6ac6312f8E>
  a8:	defe      	udf	#254	; 0xfe

Disassembly of section .text._ZN4core5slice29_$LT$impl$u20$$u5b$T$u5d$$GT$3len17h63f985867d9f263fE:

00000000 <_ZN4core5slice29_$LT$impl$u20$$u5b$T$u5d$$GT$3len17h63f985867d9f263fE>:
_ZN4core5slice29_$LT$impl$u20$$u5b$T$u5d$$GT$3len17h63f985867d9f263fE():
/rustc/50a0defd5a93523067ef239936cc2e0755220904/src/libcore/slice/mod.rs:79
   0:	b086      	sub	sp, #24
   2:	460a      	mov	r2, r1
   4:	4603      	mov	r3, r0
   6:	9002      	str	r0, [sp, #8]
   8:	9103      	str	r1, [sp, #12]
/rustc/50a0defd5a93523067ef239936cc2e0755220904/src/libcore/slice/mod.rs:81
   a:	9802      	ldr	r0, [sp, #8]
   c:	9903      	ldr	r1, [sp, #12]
   e:	9004      	str	r0, [sp, #16]
  10:	9105      	str	r1, [sp, #20]
  12:	9805      	ldr	r0, [sp, #20]
/rustc/50a0defd5a93523067ef239936cc2e0755220904/src/libcore/slice/mod.rs:83
  14:	9201      	str	r2, [sp, #4]
  16:	9300      	str	r3, [sp, #0]
  18:	b006      	add	sp, #24
  1a:	4770      	bx	lr

Disassembly of section .text._ZN4core5slice29_$LT$impl$u20$$u5b$T$u5d$$GT$6as_ptr17hd0263209417be61aE:

00000000 <_ZN4core5slice29_$LT$impl$u20$$u5b$T$u5d$$GT$6as_ptr17hd0263209417be61aE>:
_ZN4core5slice29_$LT$impl$u20$$u5b$T$u5d$$GT$6as_ptr17hd0263209417be61aE():
/rustc/50a0defd5a93523067ef239936cc2e0755220904/src/libcore/slice/mod.rs:385
   0:	b084      	sub	sp, #16
   2:	460a      	mov	r2, r1
   4:	4603      	mov	r3, r0
   6:	9002      	str	r0, [sp, #8]
   8:	9103      	str	r1, [sp, #12]
/rustc/50a0defd5a93523067ef239936cc2e0755220904/src/libcore/slice/mod.rs:386
   a:	9802      	ldr	r0, [sp, #8]
/rustc/50a0defd5a93523067ef239936cc2e0755220904/src/libcore/slice/mod.rs:387
   c:	9201      	str	r2, [sp, #4]
   e:	9300      	str	r3, [sp, #0]
  10:	b004      	add	sp, #16
  12:	4770      	bx	lr

Disassembly of section .text._ZN4core5slice74_$LT$impl$u20$core..ops..index..Index$LT$I$GT$$u20$for$u20$$u5b$T$u5d$$GT$5index17hf116fad1d92ca796E:

00000000 <_ZN4core5slice74_$LT$impl$u20$core..ops..index..Index$LT$I$GT$$u20$for$u20$$u5b$T$u5d$$GT$5index17hf116fad1d92ca796E>:
_ZN4core5slice74_$LT$impl$u20$core..ops..index..Index$LT$I$GT$$u20$for$u20$$u5b$T$u5d$$GT$5index17hf116fad1d92ca796E():
/rustc/50a0defd5a93523067ef239936cc2e0755220904/src/libcore/slice/mod.rs:2551
   0:	b580      	push	{r7, lr}
   2:	b088      	sub	sp, #32
   4:	4613      	mov	r3, r2
   6:	468c      	mov	ip, r1
   8:	4686      	mov	lr, r0
   a:	9005      	str	r0, [sp, #20]
   c:	9106      	str	r1, [sp, #24]
   e:	9207      	str	r2, [sp, #28]
/rustc/50a0defd5a93523067ef239936cc2e0755220904/src/libcore/slice/mod.rs:2552
  10:	9807      	ldr	r0, [sp, #28]
  12:	9905      	ldr	r1, [sp, #20]
  14:	9a06      	ldr	r2, [sp, #24]
  16:	9304      	str	r3, [sp, #16]
  18:	f8cd c00c 	str.w	ip, [sp, #12]
  1c:	f8cd e008 	str.w	lr, [sp, #8]
  20:	f7ff fffe 	bl	0 <_ZN103_$LT$core..ops..range..RangeFrom$LT$usize$GT$$u20$as$u20$core..slice..SliceIndex$LT$$u5b$T$u5d$$GT$$GT$5index17h1803157cb2b374e1E>
  24:	9001      	str	r0, [sp, #4]
  26:	9100      	str	r1, [sp, #0]
  28:	e7ff      	b.n	2a <_ZN4core5slice74_$LT$impl$u20$core..ops..index..Index$LT$I$GT$$u20$for$u20$$u5b$T$u5d$$GT$5index17hf116fad1d92ca796E+0x2a>
/rustc/50a0defd5a93523067ef239936cc2e0755220904/src/libcore/slice/mod.rs:2553
  2a:	9801      	ldr	r0, [sp, #4]
  2c:	9900      	ldr	r1, [sp, #0]
  2e:	b008      	add	sp, #32
  30:	bd80      	pop	{r7, pc}

memchr-e5ca130edfba2c24.memchr.2jnkkboq-cgu.6.rcgu.o:     file format elf32-littlearm

SYMBOL TABLE:
00000000 l    df *ABS*	00000000 memchr.2jnkkboq-cgu.6
0000016b l       .debug_str	00000000 
00000000 l       .debug_str	00000000 
00000041 l       .debug_str	00000000 
00000096 l       .debug_str	00000000 
000000e0 l       .debug_str	00000000 
000000e5 l       .debug_str	00000000 
000000f0 l       .debug_str	00000000 
000000f3 l       .debug_str	00000000 
00000165 l       .debug_str	00000000 
000000f5 l       .debug_str	00000000 
00000133 l       .debug_str	00000000 
0000014b l       .debug_str	00000000 
0000014f l       .debug_str	00000000 
00000159 l       .debug_str	00000000 
0000015d l       .debug_str	00000000 
00000000 l    d  .text._ZN4core10intrinsics19copy_nonoverlapping17h0bdf6ae081c159c2E	00000000 .text._ZN4core10intrinsics19copy_nonoverlapping17h0bdf6ae081c159c2E
00000000 l    d  .debug_abbrev	00000000 .debug_abbrev
00000000 l    d  .debug_info	00000000 .debug_info
00000000 l    d  .debug_frame	00000000 .debug_frame
00000000 l    d  .debug_line	00000000 .debug_line
00000000 g     F .text._ZN4core10intrinsics19copy_nonoverlapping17h0bdf6ae081c159c2E	0000002c _ZN4core10intrinsics19copy_nonoverlapping17h0bdf6ae081c159c2E
00000000         *UND*	00000000 __aeabi_memcpy



Disassembly of section .text._ZN4core10intrinsics19copy_nonoverlapping17h0bdf6ae081c159c2E:

00000000 <_ZN4core10intrinsics19copy_nonoverlapping17h0bdf6ae081c159c2E>:
_ZN4core10intrinsics19copy_nonoverlapping17h0bdf6ae081c159c2E():
/rustc/50a0defd5a93523067ef239936cc2e0755220904/src/libcore/intrinsics.rs:1411
   0:	b580      	push	{r7, lr}
   2:	b088      	sub	sp, #32
   4:	4613      	mov	r3, r2
   6:	468c      	mov	ip, r1
   8:	4686      	mov	lr, r0
   a:	9005      	str	r0, [sp, #20]
   c:	9106      	str	r1, [sp, #24]
   e:	9207      	str	r2, [sp, #28]
/rustc/50a0defd5a93523067ef239936cc2e0755220904/src/libcore/intrinsics.rs:1412
  10:	9905      	ldr	r1, [sp, #20]
  12:	9806      	ldr	r0, [sp, #24]
  14:	9a07      	ldr	r2, [sp, #28]
  16:	9304      	str	r3, [sp, #16]
  18:	f8cd c00c 	str.w	ip, [sp, #12]
  1c:	f8cd e008 	str.w	lr, [sp, #8]
  20:	f7ff fffe 	bl	0 <__aeabi_memcpy>
  24:	9001      	str	r0, [sp, #4]
  26:	e7ff      	b.n	28 <_ZN4core10intrinsics19copy_nonoverlapping17h0bdf6ae081c159c2E+0x28>
/rustc/50a0defd5a93523067ef239936cc2e0755220904/src/libcore/intrinsics.rs:1413
  28:	b008      	add	sp, #32
  2a:	bd80      	pop	{r7, pc}

memchr-e5ca130edfba2c24.memchr.2jnkkboq-cgu.7.rcgu.o:     file format elf32-littlearm

SYMBOL TABLE:
00000000 l    df *ABS*	00000000 memchr.2jnkkboq-cgu.7
00000170 l       .debug_str	00000000 
00000000 l       .debug_str	00000000 
00000041 l       .debug_str	00000000 
00000096 l       .debug_str	00000000 
000000e0 l       .debug_str	00000000 
000000e5 l       .debug_str	00000000 
000000e9 l       .debug_str	00000000 
000000ef l       .debug_str	00000000 
00000177 l       .debug_str	00000000 
000000f8 l       .debug_str	00000000 
0000015d l       .debug_str	00000000 
00000160 l       .debug_str	00000000 
00000165 l       .debug_str	00000000 
0000016a l       .debug_str	00000000 
00000000 l    d  .text._ZN4core3cmp5impls57_$LT$impl$u20$core..cmp..PartialOrd$u20$for$u20$usize$GT$2le17h2d03918f3f4ce058E	00000000 .text._ZN4core3cmp5impls57_$LT$impl$u20$core..cmp..PartialOrd$u20$for$u20$usize$GT$2le17h2d03918f3f4ce058E
00000000 l    d  .debug_abbrev	00000000 .debug_abbrev
00000000 l    d  .debug_info	00000000 .debug_info
00000000 l    d  .debug_frame	00000000 .debug_frame
00000000 l    d  .debug_line	00000000 .debug_line
00000000 g     F .text._ZN4core3cmp5impls57_$LT$impl$u20$core..cmp..PartialOrd$u20$for$u20$usize$GT$2le17h2d03918f3f4ce058E	00000028 .hidden _ZN4core3cmp5impls57_$LT$impl$u20$core..cmp..PartialOrd$u20$for$u20$usize$GT$2le17h2d03918f3f4ce058E



Disassembly of section .text._ZN4core3cmp5impls57_$LT$impl$u20$core..cmp..PartialOrd$u20$for$u20$usize$GT$2le17h2d03918f3f4ce058E:

00000000 <_ZN4core3cmp5impls57_$LT$impl$u20$core..cmp..PartialOrd$u20$for$u20$usize$GT$2le17h2d03918f3f4ce058E>:
_ZN4core3cmp5impls57_$LT$impl$u20$core..cmp..PartialOrd$u20$for$u20$usize$GT$2le17h2d03918f3f4ce058E():
/rustc/50a0defd5a93523067ef239936cc2e0755220904/src/libcore/cmp.rs:976
   0:	b084      	sub	sp, #16
   2:	460a      	mov	r2, r1
   4:	4603      	mov	r3, r0
   6:	9002      	str	r0, [sp, #8]
   8:	9103      	str	r1, [sp, #12]
   a:	9802      	ldr	r0, [sp, #8]
   c:	6800      	ldr	r0, [r0, #0]
   e:	9903      	ldr	r1, [sp, #12]
  10:	6809      	ldr	r1, [r1, #0]
  12:	f04f 0c00 	mov.w	ip, #0
  16:	4288      	cmp	r0, r1
  18:	bf98      	it	ls
  1a:	f04f 0c01 	movls.w	ip, #1
  1e:	4660      	mov	r0, ip
  20:	9201      	str	r2, [sp, #4]
  22:	9300      	str	r3, [sp, #0]
  24:	b004      	add	sp, #16
  26:	4770      	bx	lr

memchr-e5ca130edfba2c24.memchr.2jnkkboq-cgu.8.rcgu.o:     file format elf32-littlearm

SYMBOL TABLE:
00000000 l    df *ABS*	00000000 memchr.2jnkkboq-cgu.8
000002be l       .debug_str	00000000 
000003b1 l       .debug_str	00000000 
000003b6 l       .debug_str	00000000 
000003bf l       .debug_str	00000000 
000003c6 l       .debug_str	00000000 
000003df l       .debug_str	00000000 
000003e9 l       .debug_str	00000000 
00000000 l       .debug_str	00000000 
00000041 l       .debug_str	00000000 
00000096 l       .debug_str	00000000 
000000e0 l       .debug_str	00000000 
000000e5 l       .debug_str	00000000 
000000ec l       .debug_str	00000000 
000000ef l       .debug_str	00000000 
000000f2 l       .debug_str	00000000 
000000f6 l       .debug_str	00000000 
000000fd l       .debug_str	00000000 
00000101 l       .debug_str	00000000 
00000104 l       .debug_str	00000000 
00000107 l       .debug_str	00000000 
0000010c l       .debug_str	00000000 
00000112 l       .debug_str	00000000 
00000119 l       .debug_str	00000000 
00000121 l       .debug_str	00000000 
0000012b l       .debug_str	00000000 
0000012f l       .debug_str	00000000 
00000138 l       .debug_str	00000000 
00000197 l       .debug_str	00000000 
0000019c l       .debug_str	00000000 
000001a2 l       .debug_str	00000000 
000001a9 l       .debug_str	00000000 
000001ab l       .debug_str	00000000 
000001b1 l       .debug_str	00000000 
000001b5 l       .debug_str	00000000 
000001ba l       .debug_str	00000000 
000001bf l       .debug_str	00000000 
000001c5 l       .debug_str	00000000 
000001cb l       .debug_str	00000000 
000001d2 l       .debug_str	00000000 
000001d7 l       .debug_str	00000000 
000001d9 l       .debug_str	00000000 
000001de l       .debug_str	00000000 
000001e2 l       .debug_str	00000000 
000001f0 l       .debug_str	00000000 
000001fa l       .debug_str	00000000 
000001fe l       .debug_str	00000000 
00000206 l       .debug_str	00000000 
0000020e l       .debug_str	00000000 
00000215 l       .debug_str	00000000 
00000229 l       .debug_str	00000000 
00000235 l       .debug_str	00000000 
00000240 l       .debug_str	00000000 
00000247 l       .debug_str	00000000 
0000024d l       .debug_str	00000000 
00000251 l       .debug_str	00000000 
00000257 l       .debug_str	00000000 
0000025d l       .debug_str	00000000 
00000260 l       .debug_str	00000000 
0000026f l       .debug_str	00000000 
00000276 l       .debug_str	00000000 
0000027a l       .debug_str	00000000 
00000283 l       .debug_str	00000000 
0000028f l       .debug_str	00000000 
000002a8 l       .debug_str	00000000 
000002ad l       .debug_str	00000000 
000002c8 l       .debug_str	00000000 
00000326 l       .debug_str	00000000 
00000331 l       .debug_str	00000000 
0000034e l       .debug_str	00000000 
00000352 l       .debug_str	00000000 
0000035a l       .debug_str	00000000 
00000371 l       .debug_str	00000000 
00000395 l       .debug_str	00000000 
00000000 l    d  .text._ZN4core3fmt3num52_$LT$impl$u20$core..fmt..Debug$u20$for$u20$usize$GT$3fmt17h2796edf2b2bb0bbfE	00000000 .text._ZN4core3fmt3num52_$LT$impl$u20$core..fmt..Debug$u20$for$u20$usize$GT$3fmt17h2796edf2b2bb0bbfE
00000000 l    d  .debug_abbrev	00000000 .debug_abbrev
00000000 l    d  .debug_info	00000000 .debug_info
00000000 l    d  .debug_frame	00000000 .debug_frame
00000000 l    d  .debug_line	00000000 .debug_line
00000000         *UND*	00000000 _ZN4core3fmt3num3imp54_$LT$impl$u20$core..fmt..Display$u20$for$u20$usize$GT$3fmt17h7160b6abac7a3a12E
00000000 g     F .text._ZN4core3fmt3num52_$LT$impl$u20$core..fmt..Debug$u20$for$u20$usize$GT$3fmt17h2796edf2b2bb0bbfE	00000072 .hidden _ZN4core3fmt3num52_$LT$impl$u20$core..fmt..Debug$u20$for$u20$usize$GT$3fmt17h2796edf2b2bb0bbfE
00000000         *UND*	00000000 _ZN4core3fmt3num55_$LT$impl$u20$core..fmt..LowerHex$u20$for$u20$usize$GT$3fmt17h562f60f4fbcc2e1dE
00000000         *UND*	00000000 _ZN4core3fmt3num55_$LT$impl$u20$core..fmt..UpperHex$u20$for$u20$usize$GT$3fmt17h27565ff90d14f5eeE
00000000         *UND*	00000000 _ZN4core3fmt9Formatter15debug_lower_hex17h6ead2f28bb05b574E
00000000         *UND*	00000000 _ZN4core3fmt9Formatter15debug_upper_hex17hd6d96e6aa5cb78d8E



Disassembly of section .text._ZN4core3fmt3num52_$LT$impl$u20$core..fmt..Debug$u20$for$u20$usize$GT$3fmt17h2796edf2b2bb0bbfE:

00000000 <_ZN4core3fmt3num52_$LT$impl$u20$core..fmt..Debug$u20$for$u20$usize$GT$3fmt17h2796edf2b2bb0bbfE>:
_ZN4core3fmt3num52_$LT$impl$u20$core..fmt..Debug$u20$for$u20$usize$GT$3fmt17h2796edf2b2bb0bbfE():
/rustc/50a0defd5a93523067ef239936cc2e0755220904/src/libcore/fmt/num.rs:146
   0:	b580      	push	{r7, lr}
   2:	b088      	sub	sp, #32
   4:	460a      	mov	r2, r1
   6:	4603      	mov	r3, r0
   8:	9005      	str	r0, [sp, #20]
   a:	9106      	str	r1, [sp, #24]
/rustc/50a0defd5a93523067ef239936cc2e0755220904/src/libcore/fmt/num.rs:147
   c:	9806      	ldr	r0, [sp, #24]
   e:	9204      	str	r2, [sp, #16]
  10:	9303      	str	r3, [sp, #12]
  12:	f7ff fffe 	bl	0 <_ZN4core3fmt9Formatter15debug_lower_hex17h6ead2f28bb05b574E>
  16:	9002      	str	r0, [sp, #8]
  18:	e7ff      	b.n	1a <_ZN4core3fmt3num52_$LT$impl$u20$core..fmt..Debug$u20$for$u20$usize$GT$3fmt17h2796edf2b2bb0bbfE+0x1a>
  1a:	9802      	ldr	r0, [sp, #8]
  1c:	07c1      	lsls	r1, r0, #31
  1e:	2900      	cmp	r1, #0
  20:	d008      	beq.n	34 <_ZN4core3fmt3num52_$LT$impl$u20$core..fmt..Debug$u20$for$u20$usize$GT$3fmt17h2796edf2b2bb0bbfE+0x34>
  22:	e7ff      	b.n	24 <_ZN4core3fmt3num52_$LT$impl$u20$core..fmt..Debug$u20$for$u20$usize$GT$3fmt17h2796edf2b2bb0bbfE+0x24>
/rustc/50a0defd5a93523067ef239936cc2e0755220904/src/libcore/fmt/num.rs:148
  24:	9805      	ldr	r0, [sp, #20]
  26:	9906      	ldr	r1, [sp, #24]
  28:	f7ff fffe 	bl	0 <_ZN4core3fmt3num55_$LT$impl$u20$core..fmt..LowerHex$u20$for$u20$usize$GT$3fmt17h562f60f4fbcc2e1dE>
  2c:	f88d 001f 	strb.w	r0, [sp, #31]
  30:	e7ff      	b.n	32 <_ZN4core3fmt3num52_$LT$impl$u20$core..fmt..Debug$u20$for$u20$usize$GT$3fmt17h2796edf2b2bb0bbfE+0x32>
/rustc/50a0defd5a93523067ef239936cc2e0755220904/src/libcore/fmt/num.rs:147
  32:	e01a      	b.n	6a <_ZN4core3fmt3num52_$LT$impl$u20$core..fmt..Debug$u20$for$u20$usize$GT$3fmt17h2796edf2b2bb0bbfE+0x6a>
/rustc/50a0defd5a93523067ef239936cc2e0755220904/src/libcore/fmt/num.rs:149
  34:	9806      	ldr	r0, [sp, #24]
  36:	f7ff fffe 	bl	0 <_ZN4core3fmt9Formatter15debug_upper_hex17hd6d96e6aa5cb78d8E>
  3a:	9001      	str	r0, [sp, #4]
  3c:	e7ff      	b.n	3e <_ZN4core3fmt3num52_$LT$impl$u20$core..fmt..Debug$u20$for$u20$usize$GT$3fmt17h2796edf2b2bb0bbfE+0x3e>
  3e:	9801      	ldr	r0, [sp, #4]
  40:	07c1      	lsls	r1, r0, #31
  42:	2900      	cmp	r1, #0
  44:	d008      	beq.n	58 <_ZN4core3fmt3num52_$LT$impl$u20$core..fmt..Debug$u20$for$u20$usize$GT$3fmt17h2796edf2b2bb0bbfE+0x58>
  46:	e7ff      	b.n	48 <_ZN4core3fmt3num52_$LT$impl$u20$core..fmt..Debug$u20$for$u20$usize$GT$3fmt17h2796edf2b2bb0bbfE+0x48>
/rustc/50a0defd5a93523067ef239936cc2e0755220904/src/libcore/fmt/num.rs:150
  48:	9805      	ldr	r0, [sp, #20]
  4a:	9906      	ldr	r1, [sp, #24]
  4c:	f7ff fffe 	bl	0 <_ZN4core3fmt3num55_$LT$impl$u20$core..fmt..UpperHex$u20$for$u20$usize$GT$3fmt17h27565ff90d14f5eeE>
  50:	f88d 001f 	strb.w	r0, [sp, #31]
  54:	e7ff      	b.n	56 <_ZN4core3fmt3num52_$LT$impl$u20$core..fmt..Debug$u20$for$u20$usize$GT$3fmt17h2796edf2b2bb0bbfE+0x56>
/rustc/50a0defd5a93523067ef239936cc2e0755220904/src/libcore/fmt/num.rs:149
  56:	e007      	b.n	68 <_ZN4core3fmt3num52_$LT$impl$u20$core..fmt..Debug$u20$for$u20$usize$GT$3fmt17h2796edf2b2bb0bbfE+0x68>
/rustc/50a0defd5a93523067ef239936cc2e0755220904/src/libcore/fmt/num.rs:152
  58:	9805      	ldr	r0, [sp, #20]
  5a:	9906      	ldr	r1, [sp, #24]
  5c:	f7ff fffe 	bl	0 <_ZN4core3fmt3num3imp54_$LT$impl$u20$core..fmt..Display$u20$for$u20$usize$GT$3fmt17h7160b6abac7a3a12E>
  60:	f88d 001f 	strb.w	r0, [sp, #31]
  64:	e7ff      	b.n	66 <_ZN4core3fmt3num52_$LT$impl$u20$core..fmt..Debug$u20$for$u20$usize$GT$3fmt17h2796edf2b2bb0bbfE+0x66>
/rustc/50a0defd5a93523067ef239936cc2e0755220904/src/libcore/fmt/num.rs:149
  66:	e7ff      	b.n	68 <_ZN4core3fmt3num52_$LT$impl$u20$core..fmt..Debug$u20$for$u20$usize$GT$3fmt17h2796edf2b2bb0bbfE+0x68>
/rustc/50a0defd5a93523067ef239936cc2e0755220904/src/libcore/fmt/num.rs:147
  68:	e7ff      	b.n	6a <_ZN4core3fmt3num52_$LT$impl$u20$core..fmt..Debug$u20$for$u20$usize$GT$3fmt17h2796edf2b2bb0bbfE+0x6a>
/rustc/50a0defd5a93523067ef239936cc2e0755220904/src/libcore/fmt/num.rs:154
  6a:	f89d 001f 	ldrb.w	r0, [sp, #31]
  6e:	b008      	add	sp, #32
  70:	bd80      	pop	{r7, pc}

memchr-e5ca130edfba2c24.memchr.2jnkkboq-cgu.9.rcgu.o:     file format elf32-littlearm

SYMBOL TABLE:
00000000 l    df *ABS*	00000000 memchr.2jnkkboq-cgu.9
000001ac l       .debug_str	00000000 
000001a7 l       .debug_str	00000000 
000001b2 l       .debug_str	00000000 
000001b8 l       .debug_str	00000000 
00000000 l       .debug_str	00000000 
00000041 l       .debug_str	00000000 
00000096 l       .debug_str	00000000 
000000e0 l       .debug_str	00000000 
000000e5 l       .debug_str	00000000 
000000e9 l       .debug_str	00000000 
000000f2 l       .debug_str	00000000 
000000f5 l       .debug_str	00000000 
000000f7 l       .debug_str	00000000 
0000013f l       .debug_str	00000000 
00000147 l       .debug_str	00000000 
00000151 l       .debug_str	00000000 
0000019c l       .debug_str	00000000 
00000000 l    d  .text._ZN4core3ptr33_$LT$impl$u20$$BP$const$u20$T$GT$3add17h070926fb062338c0E	00000000 .text._ZN4core3ptr33_$LT$impl$u20$$BP$const$u20$T$GT$3add17h070926fb062338c0E
00000000 l    d  .text._ZN4core3ptr33_$LT$impl$u20$$BP$const$u20$T$GT$6offset17h1b1bd4fc0c06f6a7E	00000000 .text._ZN4core3ptr33_$LT$impl$u20$$BP$const$u20$T$GT$6offset17h1b1bd4fc0c06f6a7E
00000000 l    d  .debug_abbrev	00000000 .debug_abbrev
00000000 l    d  .debug_info	00000000 .debug_info
00000000 l    d  .debug_ranges	00000000 .debug_ranges
00000000 l    d  .debug_frame	00000000 .debug_frame
00000000 l    d  .debug_line	00000000 .debug_line
00000000 g     F .text._ZN4core3ptr33_$LT$impl$u20$$BP$const$u20$T$GT$3add17h070926fb062338c0E	00000022 _ZN4core3ptr33_$LT$impl$u20$$BP$const$u20$T$GT$3add17h070926fb062338c0E
00000000 g     F .text._ZN4core3ptr33_$LT$impl$u20$$BP$const$u20$T$GT$6offset17h1b1bd4fc0c06f6a7E	00000022 _ZN4core3ptr33_$LT$impl$u20$$BP$const$u20$T$GT$6offset17h1b1bd4fc0c06f6a7E



Disassembly of section .text._ZN4core3ptr33_$LT$impl$u20$$BP$const$u20$T$GT$3add17h070926fb062338c0E:

00000000 <_ZN4core3ptr33_$LT$impl$u20$$BP$const$u20$T$GT$3add17h070926fb062338c0E>:
_ZN4core3ptr33_$LT$impl$u20$$BP$const$u20$T$GT$3add17h070926fb062338c0E():
/rustc/50a0defd5a93523067ef239936cc2e0755220904/src/libcore/ptr.rs:1294
   0:	b580      	push	{r7, lr}
   2:	b086      	sub	sp, #24
   4:	460a      	mov	r2, r1
   6:	4603      	mov	r3, r0
   8:	9004      	str	r0, [sp, #16]
   a:	9105      	str	r1, [sp, #20]
/rustc/50a0defd5a93523067ef239936cc2e0755220904/src/libcore/ptr.rs:1297
   c:	9804      	ldr	r0, [sp, #16]
   e:	9905      	ldr	r1, [sp, #20]
  10:	9203      	str	r2, [sp, #12]
  12:	9302      	str	r3, [sp, #8]
  14:	f7ff fffe 	bl	0 <_ZN4core3ptr33_$LT$impl$u20$$BP$const$u20$T$GT$3add17h070926fb062338c0E>
  18:	9001      	str	r0, [sp, #4]
  1a:	e7ff      	b.n	1c <_ZN4core3ptr33_$LT$impl$u20$$BP$const$u20$T$GT$3add17h070926fb062338c0E+0x1c>
/rustc/50a0defd5a93523067ef239936cc2e0755220904/src/libcore/ptr.rs:1298
  1c:	9801      	ldr	r0, [sp, #4]
  1e:	b006      	add	sp, #24
  20:	bd80      	pop	{r7, pc}

Disassembly of section .text._ZN4core3ptr33_$LT$impl$u20$$BP$const$u20$T$GT$6offset17h1b1bd4fc0c06f6a7E:

00000000 <_ZN4core3ptr33_$LT$impl$u20$$BP$const$u20$T$GT$6offset17h1b1bd4fc0c06f6a7E>:
_ZN4core3ptr33_$LT$impl$u20$$BP$const$u20$T$GT$6offset17h1b1bd4fc0c06f6a7E():
/rustc/50a0defd5a93523067ef239936cc2e0755220904/src/libcore/ptr.rs:1076
   0:	b086      	sub	sp, #24
   2:	460a      	mov	r2, r1
   4:	4603      	mov	r3, r0
   6:	9003      	str	r0, [sp, #12]
   8:	9104      	str	r1, [sp, #16]
/rustc/50a0defd5a93523067ef239936cc2e0755220904/src/libcore/ptr.rs:1077
   a:	9803      	ldr	r0, [sp, #12]
   c:	9904      	ldr	r1, [sp, #16]
   e:	4408      	add	r0, r1
  10:	9005      	str	r0, [sp, #20]
  12:	9805      	ldr	r0, [sp, #20]
  14:	9202      	str	r2, [sp, #8]
  16:	9301      	str	r3, [sp, #4]
  18:	9000      	str	r0, [sp, #0]
  1a:	e7ff      	b.n	1c <_ZN4core3ptr33_$LT$impl$u20$$BP$const$u20$T$GT$6offset17h1b1bd4fc0c06f6a7E+0x1c>
/rustc/50a0defd5a93523067ef239936cc2e0755220904/src/libcore/ptr.rs:1078
  1c:	9800      	ldr	r0, [sp, #0]
  1e:	b006      	add	sp, #24
  20:	4770      	bx	lr

mylib-50794855a3f9698d.19vpnfslw8lxmhl.rcgu.o:     file format elf32-littlearm

SYMBOL TABLE:
00000000 l    df *ABS*	00000000 19vpnfslw8lxmhl
000001b1 l       .debug_str	00000000 
00000194 l       .debug_str	00000000 
000001a1 l       .debug_str	00000000 
000001ab l       .debug_str	00000000 
000001c5 l       .debug_str	00000000 
000001ca l       .debug_str	00000000 
00000000 l       .debug_str	00000000 
00000041 l       .debug_str	00000000 
0000004c l       .debug_str	00000000 
0000007c l       .debug_str	00000000 
00000082 l       .debug_str	00000000 
0000008c l       .debug_str	00000000 
000000c8 l       .debug_str	00000000 
000000db l       .debug_str	00000000 
000000df l       .debug_str	00000000 
00000119 l       .debug_str	00000000 
0000012a l       .debug_str	00000000 
0000012f l       .debug_str	00000000 
00000134 l       .debug_str	00000000 
00000138 l       .debug_str	00000000 
0000013b l       .debug_str	00000000 
00000145 l       .debug_str	00000000 
0000014e l       .debug_str	00000000 
00000156 l       .debug_str	00000000 
0000015a l       .debug_str	00000000 
00000164 l       .debug_str	00000000 
00000168 l       .debug_str	00000000 
00000174 l       .debug_str	00000000 
00000000 l     O .rodata..Lanon.42a9704cae530334177a2eeb15ae1871.0	00000013 .Lanon.42a9704cae530334177a2eeb15ae1871.0
00000000 l     O .rodata..Lanon.42a9704cae530334177a2eeb15ae1871.1	00000011 .Lanon.42a9704cae530334177a2eeb15ae1871.1
00000000 l    d  .text._ZN5mylib9send_coap18start_network_task17ha418a4938a3513c8E	00000000 .text._ZN5mylib9send_coap18start_network_task17ha418a4938a3513c8E
00000000 l    d  .text._ZN5mylib9send_coap16send_sensor_data17h981b71f6817e0654E	00000000 .text._ZN5mylib9send_coap16send_sensor_data17h981b71f6817e0654E
00000000 l    d  .debug_abbrev	00000000 .debug_abbrev
00000000 l    d  .debug_info	00000000 .debug_info
00000000 l    d  .debug_ranges	00000000 .debug_ranges
00000000 l    d  .debug_frame	00000000 .debug_frame
00000000 l    d  .debug_line	00000000 .debug_line
00000000         *UND*	00000000 .hidden _ZN5mylib4base13console_print17h7239bde54deb9f31E
00000000 g     F .text._ZN5mylib9send_coap16send_sensor_data17h981b71f6817e0654E	00000030 .hidden _ZN5mylib9send_coap16send_sensor_data17h981b71f6817e0654E
00000000 g     F .text._ZN5mylib9send_coap18start_network_task17ha418a4938a3513c8E	00000016 .hidden _ZN5mylib9send_coap18start_network_task17ha418a4938a3513c8E



Disassembly of section .text._ZN5mylib9send_coap18start_network_task17ha418a4938a3513c8E:

00000000 <_ZN5mylib9send_coap18start_network_task17ha418a4938a3513c8E>:
_ZN5mylib9send_coap18start_network_task17ha418a4938a3513c8E():
/Users/Luppy/mynewt/stm32bluepill-mynewt-sensor/src/send_coap.rs:20

///  TODO: Start the Network Task in the background.  The Network Task prepares the network drivers
///  (ESP8266 and nRF24L01) for transmitting sensor data messages.  
///  Connecting the ESP8266 to the WiFi access point may be slow so we do this in the background.
///  Also perform WiFi Geolocation if it is enabled.  Return 0 if successful.
pub fn start_network_task() -> i32 {
   0:	b580      	push	{r7, lr}
/Users/Luppy/mynewt/stm32bluepill-mynewt-sensor/src/send_coap.rs:21
    console_print(b"start_network_task\n");
   2:	f240 0000 	movw	r0, #0
   6:	f2c0 0000 	movt	r0, #0
   a:	2113      	movs	r1, #19
   c:	f7ff fffe 	bl	0 <_ZN5mylib4base13console_print17h7239bde54deb9f31E>
  10:	e7ff      	b.n	12 <_ZN5mylib9send_coap18start_network_task17ha418a4938a3513c8E+0x12>
  12:	2000      	movs	r0, #0
/Users/Luppy/mynewt/stm32bluepill-mynewt-sensor/src/send_coap.rs:23
    0
}
  14:	bd80      	pop	{r7, pc}

Disassembly of section .text._ZN5mylib9send_coap16send_sensor_data17h981b71f6817e0654E:

00000000 <_ZN5mylib9send_coap16send_sensor_data17h981b71f6817e0654E>:
_ZN5mylib9send_coap16send_sensor_data17h981b71f6817e0654E():
/Users/Luppy/mynewt/stm32bluepill-mynewt-sensor/src/send_coap.rs:34
///  For Collector Node: sensor_node is the Sensor Node Address of the Sensor Node that transmitted
///  the sensor data (like `b3b4b5b6f1`)
///  The message will be enqueued for transmission by the CoAP / OIC Background Task 
///  so this function will return without waiting for the message to be transmitted.  
///  Return 0 if successful, SYS_EAGAIN if network is not ready yet.
pub fn send_sensor_data(_val: *const SensorValue, _sensor_node: &'static CStr) -> i32 {
   0:	b580      	push	{r7, lr}
   2:	b086      	sub	sp, #24
   4:	4613      	mov	r3, r2
   6:	468c      	mov	ip, r1
   8:	4686      	mov	lr, r0
   a:	9003      	str	r0, [sp, #12]
   c:	9104      	str	r1, [sp, #16]
   e:	9205      	str	r2, [sp, #20]
/Users/Luppy/mynewt/stm32bluepill-mynewt-sensor/src/send_coap.rs:35
    console_print(b"send_sensor_data\n");
  10:	f240 0000 	movw	r0, #0
  14:	f2c0 0000 	movt	r0, #0
  18:	2111      	movs	r1, #17
  1a:	9302      	str	r3, [sp, #8]
  1c:	f8cd c004 	str.w	ip, [sp, #4]
  20:	f8cd e000 	str.w	lr, [sp]
  24:	f7ff fffe 	bl	0 <_ZN5mylib4base13console_print17h7239bde54deb9f31E>
  28:	e7ff      	b.n	2a <_ZN5mylib9send_coap16send_sensor_data17h981b71f6817e0654E+0x2a>
  2a:	2000      	movs	r0, #0
/Users/Luppy/mynewt/stm32bluepill-mynewt-sensor/src/send_coap.rs:37
    0
}
  2c:	b006      	add	sp, #24
  2e:	bd80      	pop	{r7, pc}

mylib-50794855a3f9698d.2bwhitp1kuocnn5l.rcgu.o:     file format elf32-littlearm

SYMBOL TABLE:
00000000 l    df *ABS*	00000000 2bwhitp1kuocnn5l
000000f4 l       .debug_str	00000000 
00000000 l       .debug_str	00000000 
00000041 l       .debug_str	00000000 
0000004c l       .debug_str	00000000 
0000007c l       .debug_str	00000000 
00000082 l       .debug_str	00000000 
00000087 l       .debug_str	00000000 
000000b9 l       .debug_str	00000000 
000000ee l       .debug_str	00000000 
000000c7 l       .debug_str	00000000 
000000cb l       .debug_str	00000000 
000000d4 l       .debug_str	00000000 
000000d7 l       .debug_str	00000000 
000000e1 l       .debug_str	00000000 
000000e8 l       .debug_str	00000000 
00000000 l    d  .text._ZN5mylib4base13console_print17h7239bde54deb9f31E	00000000 .text._ZN5mylib4base13console_print17h7239bde54deb9f31E
00000000 l    d  .debug_abbrev	00000000 .debug_abbrev
00000000 l    d  .debug_info	00000000 .debug_info
00000000 l    d  .debug_frame	00000000 .debug_frame
00000000 l    d  .debug_line	00000000 .debug_line
00000000         *UND*	00000000 _ZN4core5slice29_$LT$impl$u20$$u5b$T$u5d$$GT$3len17h63f985867d9f263fE
00000000         *UND*	00000000 _ZN4core5slice29_$LT$impl$u20$$u5b$T$u5d$$GT$6as_ptr17hd0263209417be61aE
00000000 g     F .text._ZN5mylib4base13console_print17h7239bde54deb9f31E	0000003c .hidden _ZN5mylib4base13console_print17h7239bde54deb9f31E
00000000         *UND*	00000000 console_buffer
00000000         *UND*	00000000 console_flush



Disassembly of section .text._ZN5mylib4base13console_print17h7239bde54deb9f31E:

00000000 <_ZN5mylib4base13console_print17h7239bde54deb9f31E>:
_ZN5mylib4base13console_print17h7239bde54deb9f31E():
/Users/Luppy/mynewt/stm32bluepill-mynewt-sensor/src/base.rs:7

use cty::*;            //  Import string utilities from cty library: https://crates.io/crates/cty
use crate::sensor::*;  //  Import sensor.rs for Mynewt Sensor API

///  Display message `msg` on the Arm Semihosting console (via OpenOCD).
pub fn console_print(msg: &[u8]) {
   0:	b580      	push	{r7, lr}
   2:	b086      	sub	sp, #24
   4:	460a      	mov	r2, r1
   6:	4603      	mov	r3, r0
   8:	9003      	str	r0, [sp, #12]
   a:	9104      	str	r1, [sp, #16]
/Users/Luppy/mynewt/stm32bluepill-mynewt-sensor/src/base.rs:8
    let len = msg.len();
   c:	9803      	ldr	r0, [sp, #12]
   e:	9904      	ldr	r1, [sp, #16]
  10:	9202      	str	r2, [sp, #8]
  12:	9301      	str	r3, [sp, #4]
  14:	f7ff fffe 	bl	0 <_ZN4core5slice29_$LT$impl$u20$$u5b$T$u5d$$GT$3len17h63f985867d9f263fE>
  18:	9005      	str	r0, [sp, #20]
  1a:	e7ff      	b.n	1c <_ZN5mylib4base13console_print17h7239bde54deb9f31E+0x1c>
/Users/Luppy/mynewt/stm32bluepill-mynewt-sensor/src/base.rs:11
    unsafe {
        //  Call the Semihosting Console API, which is unsafe.
        console_buffer(msg.as_ptr(), len as u32);
  1c:	9803      	ldr	r0, [sp, #12]
  1e:	9904      	ldr	r1, [sp, #16]
  20:	f7ff fffe 	bl	0 <_ZN4core5slice29_$LT$impl$u20$$u5b$T$u5d$$GT$6as_ptr17hd0263209417be61aE>
  24:	9000      	str	r0, [sp, #0]
  26:	e7ff      	b.n	28 <_ZN5mylib4base13console_print17h7239bde54deb9f31E+0x28>
  28:	9905      	ldr	r1, [sp, #20]
  2a:	9800      	ldr	r0, [sp, #0]
  2c:	f7ff fffe 	bl	0 <console_buffer>
  30:	e7ff      	b.n	2 <console_flush+0x2>
/Users/Luppy/mynewt/stm32bluepill-mynewt-sensor/src/base.rs:12
        console_flush();  //  TODO: Remove this.
  32:	f7ff fffe 	bl	0 <console_flush>
  36:	e7ff      	b.n	38 <_ZN5mylib4base13console_print17h7239bde54deb9f31E+0x38>
/Users/Luppy/mynewt/stm32bluepill-mynewt-sensor/src/base.rs:14
    }
}
  38:	b006      	add	sp, #24
  3a:	bd80      	pop	{r7, pc}

mylib-50794855a3f9698d.2ui9vppr5zt78ili.rcgu.o:     file format elf32-littlearm

SYMBOL TABLE:
00000000 l    df *ABS*	00000000 2ui9vppr5zt78ili
00000147 l       .debug_str	00000000 
0000010b l       .debug_str	00000000 
0000014b l       .debug_str	00000000 
0000018a l       .debug_str	00000000 
00000000 l       .debug_str	00000000 
00000041 l       .debug_str	00000000 
0000004c l       .debug_str	00000000 
0000007c l       .debug_str	00000000 
00000081 l       .debug_str	00000000 
00000085 l       .debug_str	00000000 
0000008e l       .debug_str	00000000 
000000cf l       .debug_str	00000000 
000000d8 l       .debug_str	00000000 
000000e1 l       .debug_str	00000000 
000000e4 l       .debug_str	00000000 
000000ee l       .debug_str	00000000 
000000f5 l       .debug_str	00000000 
000000fb l       .debug_str	00000000 
00000101 l       .debug_str	00000000 
00000106 l       .debug_str	00000000 
00000000 l    d  .text._ZN4core3str21_$LT$impl$u20$str$GT$3len17h479876f0ed8d2071E	00000000 .text._ZN4core3str21_$LT$impl$u20$str$GT$3len17h479876f0ed8d2071E
00000000 l    d  .text._ZN4core3str21_$LT$impl$u20$str$GT$6as_ptr17habe097c6f7775d95E	00000000 .text._ZN4core3str21_$LT$impl$u20$str$GT$6as_ptr17habe097c6f7775d95E
00000000 l    d  .debug_abbrev	00000000 .debug_abbrev
00000000 l    d  .debug_info	00000000 .debug_info
00000000 l    d  .debug_ranges	00000000 .debug_ranges
00000000 l    d  .debug_frame	00000000 .debug_frame
00000000 l    d  .debug_line	00000000 .debug_line
00000000 g     F .text._ZN4core3str21_$LT$impl$u20$str$GT$3len17h479876f0ed8d2071E	0000003c .hidden _ZN4core3str21_$LT$impl$u20$str$GT$3len17h479876f0ed8d2071E
00000000 g     F .text._ZN4core3str21_$LT$impl$u20$str$GT$6as_ptr17habe097c6f7775d95E	00000014 .hidden _ZN4core3str21_$LT$impl$u20$str$GT$6as_ptr17habe097c6f7775d95E
00000000         *UND*	00000000 _ZN4core5slice29_$LT$impl$u20$$u5b$T$u5d$$GT$3len17h63f985867d9f263fE



Disassembly of section .text._ZN4core3str21_$LT$impl$u20$str$GT$3len17h479876f0ed8d2071E:

00000000 <_ZN4core3str21_$LT$impl$u20$str$GT$3len17h479876f0ed8d2071E>:
_ZN4core3str21_$LT$impl$u20$str$GT$3len17h479876f0ed8d2071E():
/rustc/50a0defd5a93523067ef239936cc2e0755220904/src/libcore/str/mod.rs:2070
   0:	b580      	push	{r7, lr}
   2:	b08c      	sub	sp, #48	; 0x30
   4:	460a      	mov	r2, r1
   6:	4603      	mov	r3, r0
   8:	9006      	str	r0, [sp, #24]
   a:	9107      	str	r1, [sp, #28]
/rustc/50a0defd5a93523067ef239936cc2e0755220904/src/libcore/str/mod.rs:2071
   c:	9806      	ldr	r0, [sp, #24]
   e:	9907      	ldr	r1, [sp, #28]
  10:	9008      	str	r0, [sp, #32]
  12:	9109      	str	r1, [sp, #36]	; 0x24
_ZN4core3str21_$LT$impl$u20$str$GT$8as_bytes17hbca31947ef6ad219E():
/rustc/50a0defd5a93523067ef239936cc2e0755220904/src/libcore/str/mod.rs:2153
  14:	9808      	ldr	r0, [sp, #32]
  16:	9909      	ldr	r1, [sp, #36]	; 0x24
  18:	900a      	str	r0, [sp, #40]	; 0x28
  1a:	910b      	str	r1, [sp, #44]	; 0x2c
  1c:	980a      	ldr	r0, [sp, #40]	; 0x28
  1e:	990b      	ldr	r1, [sp, #44]	; 0x2c
_ZN4core3str21_$LT$impl$u20$str$GT$3len17h479876f0ed8d2071E():
/rustc/50a0defd5a93523067ef239936cc2e0755220904/src/libcore/str/mod.rs:2071
  20:	9205      	str	r2, [sp, #20]
  22:	9304      	str	r3, [sp, #16]
  24:	9003      	str	r0, [sp, #12]
  26:	9102      	str	r1, [sp, #8]
  28:	e7ff      	b.n	2a <_ZN4core3str21_$LT$impl$u20$str$GT$3len17h479876f0ed8d2071E+0x2a>
  2a:	9803      	ldr	r0, [sp, #12]
  2c:	9902      	ldr	r1, [sp, #8]
  2e:	f7ff fffe 	bl	0 <_ZN4core5slice29_$LT$impl$u20$$u5b$T$u5d$$GT$3len17h63f985867d9f263fE>
  32:	9001      	str	r0, [sp, #4]
  34:	e7ff      	b.n	36 <_ZN4core3str21_$LT$impl$u20$str$GT$3len17h479876f0ed8d2071E+0x36>
/rustc/50a0defd5a93523067ef239936cc2e0755220904/src/libcore/str/mod.rs:2072
  36:	9801      	ldr	r0, [sp, #4]
  38:	b00c      	add	sp, #48	; 0x30
  3a:	bd80      	pop	{r7, pc}

Disassembly of section .text._ZN4core3str21_$LT$impl$u20$str$GT$6as_ptr17habe097c6f7775d95E:

00000000 <_ZN4core3str21_$LT$impl$u20$str$GT$6as_ptr17habe097c6f7775d95E>:
_ZN4core3str21_$LT$impl$u20$str$GT$6as_ptr17habe097c6f7775d95E():
/rustc/50a0defd5a93523067ef239936cc2e0755220904/src/libcore/str/mod.rs:2217
   0:	b084      	sub	sp, #16
   2:	460a      	mov	r2, r1
   4:	4603      	mov	r3, r0
   6:	9002      	str	r0, [sp, #8]
   8:	9103      	str	r1, [sp, #12]
/rustc/50a0defd5a93523067ef239936cc2e0755220904/src/libcore/str/mod.rs:2218
   a:	9802      	ldr	r0, [sp, #8]
/rustc/50a0defd5a93523067ef239936cc2e0755220904/src/libcore/str/mod.rs:2219
   c:	9201      	str	r2, [sp, #4]
   e:	9300      	str	r3, [sp, #0]
  10:	b004      	add	sp, #16
  12:	4770      	bx	lr

mylib-50794855a3f9698d.3k67uemb1cshb4cs.rcgu.o:     file format elf32-littlearm

SYMBOL TABLE:
00000000 l    df *ABS*	00000000 3k67uemb1cshb4cs
0000030a l       .debug_str	00000000 
0000023f l       .debug_str	00000000 
00000250 l       .debug_str	00000000 
0000028e l       .debug_str	00000000 
0000029e l       .debug_str	00000000 
000002a3 l       .debug_str	00000000 
000002a7 l       .debug_str	00000000 
000002aa l       .debug_str	00000000 
000002b4 l       .debug_str	00000000 
000002bd l       .debug_str	00000000 
000002c5 l       .debug_str	00000000 
000002c9 l       .debug_str	00000000 
000002d3 l       .debug_str	00000000 
000002d7 l       .debug_str	00000000 
000002e3 l       .debug_str	00000000 
000002e6 l       .debug_str	00000000 
000002eb l       .debug_str	00000000 
000002f7 l       .debug_str	00000000 
00000303 l       .debug_str	00000000 
00000310 l       .debug_str	00000000 
0000031c l       .debug_str	00000000 
00000326 l       .debug_str	00000000 
0000032c l       .debug_str	00000000 
00000340 l       .debug_str	00000000 
00000345 l       .debug_str	00000000 
00000356 l       .debug_str	00000000 
00000368 l       .debug_str	00000000 
00000375 l       .debug_str	00000000 
00000381 l       .debug_str	00000000 
0000038f l       .debug_str	00000000 
000003a6 l       .debug_str	00000000 
000003b8 l       .debug_str	00000000 
000003d8 l       .debug_str	00000000 
000003e1 l       .debug_str	00000000 
000003ea l       .debug_str	00000000 
000003fc l       .debug_str	00000000 
00000000 l       .debug_str	00000000 
00000041 l       .debug_str	00000000 
0000004c l       .debug_str	00000000 
0000007c l       .debug_str	00000000 
00000082 l       .debug_str	00000000 
00000090 l       .debug_str	00000000 
00000099 l       .debug_str	00000000 
000000a0 l       .debug_str	00000000 
000000af l       .debug_str	00000000 
000000b3 l       .debug_str	00000000 
000000bb l       .debug_str	00000000 
000000bf l       .debug_str	00000000 
000000c3 l       .debug_str	00000000 
000000cd l       .debug_str	00000000 
000000d7 l       .debug_str	00000000 
000000dd l       .debug_str	00000000 
000000f9 l       .debug_str	00000000 
00000152 l       .debug_str	00000000 
00000159 l       .debug_str	00000000 
00000161 l       .debug_str	00000000 
00000170 l       .debug_str	00000000 
000001a6 l       .debug_str	00000000 
000001ea l       .debug_str	00000000 
00000200 l       .debug_str	00000000 
00000000 l     O .rodata..Lanon.0b256f51abc682f8d65b4afaed11e7f9.0	0000000a .Lanon.0b256f51abc682f8d65b4afaed11e7f9.0
00000000 l     O .rodata..Lanon.0b256f51abc682f8d65b4afaed11e7f9.1	0000000d .Lanon.0b256f51abc682f8d65b4afaed11e7f9.1
00000000 l     O .rodata..Lanon.0b256f51abc682f8d65b4afaed11e7f9.10	00000018 .Lanon.0b256f51abc682f8d65b4afaed11e7f9.10
00000000 l     O .rodata..Lanon.0b256f51abc682f8d65b4afaed11e7f9.12	00000018 .Lanon.0b256f51abc682f8d65b4afaed11e7f9.12
00000000 l     O .rodata..Lanon.0b256f51abc682f8d65b4afaed11e7f9.13	00000016 .Lanon.0b256f51abc682f8d65b4afaed11e7f9.13
00000000 l     O .rodata..Lanon.0b256f51abc682f8d65b4afaed11e7f9.14	00000018 .Lanon.0b256f51abc682f8d65b4afaed11e7f9.14
00000000 l     O .rodata..Lanon.0b256f51abc682f8d65b4afaed11e7f9.15	00000001 .Lanon.0b256f51abc682f8d65b4afaed11e7f9.15
00000000 l     O .rodata..Lanon.0b256f51abc682f8d65b4afaed11e7f9.16	00000018 .Lanon.0b256f51abc682f8d65b4afaed11e7f9.16
00000000 l     O .rodata..Lanon.0b256f51abc682f8d65b4afaed11e7f9.17	00000018 .Lanon.0b256f51abc682f8d65b4afaed11e7f9.17
00000000 l     O .rodata..Lanon.0b256f51abc682f8d65b4afaed11e7f9.18	00000019 .Lanon.0b256f51abc682f8d65b4afaed11e7f9.18
00000000 l     O .rodata..Lanon.0b256f51abc682f8d65b4afaed11e7f9.19	00000002 .Lanon.0b256f51abc682f8d65b4afaed11e7f9.19
00000000 l     O .rodata..Lanon.0b256f51abc682f8d65b4afaed11e7f9.4	00000018 .Lanon.0b256f51abc682f8d65b4afaed11e7f9.4
00000000 l     O .rodata..Lanon.0b256f51abc682f8d65b4afaed11e7f9.6	00000018 .Lanon.0b256f51abc682f8d65b4afaed11e7f9.6
00000000 l     O .rodata..Lanon.0b256f51abc682f8d65b4afaed11e7f9.7	00000018 .Lanon.0b256f51abc682f8d65b4afaed11e7f9.7
00000000 l     O .rodata..Lanon.0b256f51abc682f8d65b4afaed11e7f9.8	00000011 .Lanon.0b256f51abc682f8d65b4afaed11e7f9.8
00000000 l     F .text._ZN5mylib13listen_sensor15get_temperature17h42fabeac78d97520E	0000014c _ZN5mylib13listen_sensor15get_temperature17h42fabeac78d97520E
00000000 l     F .text._ZN5mylib13listen_sensor16read_temperature17h53480a57fcc5ca50E	00000120 _ZN5mylib13listen_sensor16read_temperature17h53480a57fcc5ca50E
00000000 l     O .data._ZN5mylib13listen_sensor8LISTENER17h92a89e023daa9f84E	00000018 _ZN5mylib13listen_sensor8LISTENER17h92a89e023daa9f84E
00000000 l    d  .text._ZN5mylib13listen_sensor21start_sensor_listener17h2b855ed9b04189dfE	00000000 .text._ZN5mylib13listen_sensor21start_sensor_listener17h2b855ed9b04189dfE
00000000 l    d  .text._ZN5mylib13listen_sensor16read_temperature17h53480a57fcc5ca50E	00000000 .text._ZN5mylib13listen_sensor16read_temperature17h53480a57fcc5ca50E
00000000 l    d  .text._ZN5mylib13listen_sensor15get_temperature17h42fabeac78d97520E	00000000 .text._ZN5mylib13listen_sensor15get_temperature17h42fabeac78d97520E
00000000 l    d  .data._ZN5mylib13listen_sensor8LISTENER17h92a89e023daa9f84E	00000000 .data._ZN5mylib13listen_sensor8LISTENER17h92a89e023daa9f84E
00000000 l    d  .rodata..Lanon.0b256f51abc682f8d65b4afaed11e7f9.2	00000000 .rodata..Lanon.0b256f51abc682f8d65b4afaed11e7f9.2
00000000 l    d  .rodata..Lanon.0b256f51abc682f8d65b4afaed11e7f9.3	00000000 .rodata..Lanon.0b256f51abc682f8d65b4afaed11e7f9.3
00000000 l    d  .rodata..Lanon.0b256f51abc682f8d65b4afaed11e7f9.5	00000000 .rodata..Lanon.0b256f51abc682f8d65b4afaed11e7f9.5
00000000 l    d  .rodata..Lanon.0b256f51abc682f8d65b4afaed11e7f9.9	00000000 .rodata..Lanon.0b256f51abc682f8d65b4afaed11e7f9.9
00000000 l    d  .rodata..Lanon.0b256f51abc682f8d65b4afaed11e7f9.11	00000000 .rodata..Lanon.0b256f51abc682f8d65b4afaed11e7f9.11
00000000 l    d  .debug_abbrev	00000000 .debug_abbrev
00000000 l    d  .debug_info	00000000 .debug_info
00000000 l    d  .debug_ranges	00000000 .debug_ranges
00000000 l    d  .debug_frame	00000000 .debug_frame
00000000 l    d  .debug_line	00000000 .debug_line
00000000         *UND*	00000000 _ZN4core5slice29_$LT$impl$u20$$u5b$T$u5d$$GT$6as_ptr17hd0263209417be61aE
00000000         *UND*	00000000 _ZN4core9panicking5panic17h53ca63c6ac6312f8E
00000000 g     F .text._ZN5mylib13listen_sensor21start_sensor_listener17h2b855ed9b04189dfE	000000a8 .hidden _ZN5mylib13listen_sensor21start_sensor_listener17h2b855ed9b04189dfE
00000000         *UND*	00000000 .hidden _ZN5mylib4base13console_print17h7239bde54deb9f31E
00000000         *UND*	00000000 .hidden _ZN5mylib9send_coap16send_sensor_data17h981b71f6817e0654E
00000000         *UND*	00000000 _ZN9cstr_core4CStr8from_ptr17ha5d4992c233d069bE
00000000         *UND*	00000000 device_get_name
00000000         *UND*	00000000 get_temp_data
00000000         *UND*	00000000 get_temp_raw_data
00000000         *UND*	00000000 is_null_sensor
00000000         *UND*	00000000 is_null_sensor_data
00000000         *UND*	00000000 null_sensor
00000000         *UND*	00000000 sensor_get_device
00000000         *UND*	00000000 sensor_mgr_find_next_bydevname
00000000         *UND*	00000000 sensor_register_listener
00000000         *UND*	00000000 sensor_set_poll_rate_ms



Disassembly of section .text._ZN5mylib13listen_sensor21start_sensor_listener17h2b855ed9b04189dfE:

00000000 <_ZN5mylib13listen_sensor21start_sensor_listener17h2b855ed9b04189dfE>:
_ZN5mylib13listen_sensor21start_sensor_listener17h2b855ed9b04189dfE():
/Users/Luppy/mynewt/stm32bluepill-mynewt-sensor/src/listen_sensor.rs:38
///  Listener Function to send the sensor data to the Collector Node (if this is a Sensor Node)
///  or CoAP Server (is this is a Standalone Node).
///  For Collector Node: Start the Listeners for Remote Sensor 
///  Otherwise this is a Standalone Node with ESP8266, or a Sensor Node with nRF24L01.
///  Return 0 if successful.
pub fn start_sensor_listener() -> i32 {
   0:	b580      	push	{r7, lr}
   2:	b086      	sub	sp, #24
/Users/Luppy/mynewt/stm32bluepill-mynewt-sensor/src/listen_sensor.rs:39
    console_print(b"TMP poll \n");  //  SENSOR_DEVICE "\n";
   4:	f240 0000 	movw	r0, #0
   8:	f2c0 0000 	movt	r0, #0
   c:	210a      	movs	r1, #10
   e:	f7ff fffe 	bl	0 <_ZN5mylib4base13console_print17h7239bde54deb9f31E>
  12:	e7ff      	b.n	2 <_ZN5mylib13listen_sensor21start_sensor_listener17h2b855ed9b04189dfE+0x2>
/Users/Luppy/mynewt/stm32bluepill-mynewt-sensor/src/listen_sensor.rs:42

    //  Set the sensor polling time to 10 seconds.  SENSOR_DEVICE is either "bme280_0" or "temp_stm32_0"
    let rc = unsafe { sensor_set_poll_rate_ms(SENSOR_DEVICE, SENSOR_POLL_TIME) };
  14:	f240 0000 	movw	r0, #0
  18:	f2c0 0000 	movt	r0, #0
  1c:	f242 7110 	movw	r1, #10000	; 0x2710
  20:	f7ff fffe 	bl	0 <sensor_set_poll_rate_ms>
  24:	9003      	str	r0, [sp, #12]
  26:	e7ff      	b.n	28 <_ZN5mylib13listen_sensor21start_sensor_listener17h2b855ed9b04189dfE+0x28>
/Users/Luppy/mynewt/stm32bluepill-mynewt-sensor/src/listen_sensor.rs:43
    assert!(rc == 0);
  28:	9803      	ldr	r0, [sp, #12]
  2a:	2800      	cmp	r0, #0
  2c:	d007      	beq.n	3e <_ZN5mylib13listen_sensor21start_sensor_listener17h2b855ed9b04189dfE+0x3e>
  2e:	e7ff      	b.n	30 <_ZN5mylib13listen_sensor21start_sensor_listener17h2b855ed9b04189dfE+0x30>
  30:	f240 0000 	movw	r0, #0
  34:	f2c0 0000 	movt	r0, #0
  38:	f7ff fffe 	bl	0 <_ZN4core9panicking5panic17h53ca63c6ac6312f8E>
  3c:	defe      	udf	#254	; 0xfe
/Users/Luppy/mynewt/stm32bluepill-mynewt-sensor/src/listen_sensor.rs:46

    //  Fetch the sensor by name, without locking the driver for exclusive access.
    let listen_sensor = unsafe { sensor_mgr_find_next_bydevname(SENSOR_DEVICE, null_sensor()) };
  3e:	f7ff fffe 	bl	0 <null_sensor>
  42:	9002      	str	r0, [sp, #8]
  44:	e7ff      	b.n	46 <_ZN5mylib13listen_sensor21start_sensor_listener17h2b855ed9b04189dfE+0x46>
  46:	f240 0000 	movw	r0, #0
  4a:	f2c0 0000 	movt	r0, #0
  4e:	9902      	ldr	r1, [sp, #8]
  50:	f7ff fffe 	bl	0 <sensor_mgr_find_next_bydevname>
  54:	9004      	str	r0, [sp, #16]
  56:	e7ff      	b.n	58 <_ZN5mylib13listen_sensor21start_sensor_listener17h2b855ed9b04189dfE+0x58>
/Users/Luppy/mynewt/stm32bluepill-mynewt-sensor/src/listen_sensor.rs:47
    assert!(!unsafe{ is_null_sensor(listen_sensor) });
  58:	9804      	ldr	r0, [sp, #16]
  5a:	f7ff fffe 	bl	0 <is_null_sensor>
  5e:	9001      	str	r0, [sp, #4]
  60:	e7ff      	b.n	62 <_ZN5mylib13listen_sensor21start_sensor_listener17h2b855ed9b04189dfE+0x62>
  62:	9801      	ldr	r0, [sp, #4]
  64:	07c1      	lsls	r1, r0, #31
  66:	2900      	cmp	r1, #0
  68:	d007      	beq.n	7a <_ZN5mylib13listen_sensor21start_sensor_listener17h2b855ed9b04189dfE+0x7a>
  6a:	e7ff      	b.n	6c <_ZN5mylib13listen_sensor21start_sensor_listener17h2b855ed9b04189dfE+0x6c>
  6c:	f240 0000 	movw	r0, #0
  70:	f2c0 0000 	movt	r0, #0
  74:	f7ff fffe 	bl	0 <_ZN4core9panicking5panic17h53ca63c6ac6312f8E>
  78:	defe      	udf	#254	; 0xfe
/Users/Luppy/mynewt/stm32bluepill-mynewt-sensor/src/listen_sensor.rs:50

    //  Set the Listener Function to be called every 10 seconds, with the polled sensor data.
    let rc = unsafe { sensor_register_listener(listen_sensor, &mut LISTENER) };
  7a:	9804      	ldr	r0, [sp, #16]
  7c:	f240 0100 	movw	r1, #0
  80:	f2c0 0100 	movt	r1, #0
  84:	f7ff fffe 	bl	0 <sensor_register_listener>
  88:	9005      	str	r0, [sp, #20]
  8a:	e7ff      	b.n	8c <_ZN5mylib13listen_sensor21start_sensor_listener17h2b855ed9b04189dfE+0x8c>
/Users/Luppy/mynewt/stm32bluepill-mynewt-sensor/src/listen_sensor.rs:51
    assert!(rc == 0);
  8c:	9805      	ldr	r0, [sp, #20]
  8e:	2800      	cmp	r0, #0
  90:	d007      	beq.n	a2 <_ZN5mylib13listen_sensor21start_sensor_listener17h2b855ed9b04189dfE+0xa2>
  92:	e7ff      	b.n	94 <_ZN5mylib13listen_sensor21start_sensor_listener17h2b855ed9b04189dfE+0x94>
  94:	f240 0000 	movw	r0, #0
  98:	f2c0 0000 	movt	r0, #0
  9c:	f7ff fffe 	bl	0 <_ZN4core9panicking5panic17h53ca63c6ac6312f8E>
  a0:	defe      	udf	#254	; 0xfe
  a2:	2000      	movs	r0, #0
/Users/Luppy/mynewt/stm32bluepill-mynewt-sensor/src/listen_sensor.rs:55

    //  Return 0 to indicate success.  This line should not end with a semicolon (;).
    0
}
  a4:	b006      	add	sp, #24
  a6:	bd80      	pop	{r7, pc}

Disassembly of section .text._ZN5mylib13listen_sensor16read_temperature17h53480a57fcc5ca50E:

00000000 <_ZN5mylib13listen_sensor16read_temperature17h53480a57fcc5ca50E>:
_ZN5mylib13listen_sensor16read_temperature17h53480a57fcc5ca50E():
/Users/Luppy/mynewt/stm32bluepill-mynewt-sensor/src/listen_sensor.rs:70
///  This listener function is called by Mynewt every 10 seconds (for local sensors) or when sensor data is received
///  (for Remote Sensors).  Mynewt has fetched the raw or computed temperature value, passed through `sensor_data`.
///  If this is a Sensor Node, we send the sensor data to the Collector Node.
///  If this is a Collector Node or Standalone Node, we send the sensor data to the CoAP server.  
///  Return 0 if we have processed the sensor data successfully.
extern fn read_temperature(sensor: SensorPtr, _arg: SensorArg, sensor_data: SensorDataPtr, sensor_type: SensorType) -> i32 {
   0:	b5b0      	push	{r4, r5, r7, lr}
   2:	b096      	sub	sp, #88	; 0x58
   4:	9b1b      	ldr	r3, [sp, #108]	; 0x6c
   6:	f8dd c068 	ldr.w	ip, [sp, #104]	; 0x68
   a:	4696      	mov	lr, r2
   c:	460c      	mov	r4, r1
   e:	4605      	mov	r5, r0
  10:	9007      	str	r0, [sp, #28]
  12:	9108      	str	r1, [sp, #32]
  14:	9209      	str	r2, [sp, #36]	; 0x24
  16:	930b      	str	r3, [sp, #44]	; 0x2c
  18:	f8cd c028 	str.w	ip, [sp, #40]	; 0x28
/Users/Luppy/mynewt/stm32bluepill-mynewt-sensor/src/listen_sensor.rs:72
    unsafe {
        console_print(b"read_temperature\n");
  1c:	f240 0000 	movw	r0, #0
  20:	f2c0 0000 	movt	r0, #0
  24:	2111      	movs	r1, #17
  26:	f8cd e018 	str.w	lr, [sp, #24]
  2a:	9405      	str	r4, [sp, #20]
  2c:	9504      	str	r5, [sp, #16]
  2e:	f7ff fffe 	bl	0 <_ZN5mylib4base13console_print17h7239bde54deb9f31E>
  32:	e7ff      	b.n	34 <_ZN5mylib13listen_sensor16read_temperature17h53480a57fcc5ca50E+0x34>
/Users/Luppy/mynewt/stm32bluepill-mynewt-sensor/src/listen_sensor.rs:75
        //  Check that the temperature data is valid.
        //  TODO
        if is_null_sensor_data(sensor_data) { return SYS_EINVAL; }  //  Exit if data is missing
  34:	9809      	ldr	r0, [sp, #36]	; 0x24
  36:	f7ff fffe 	bl	0 <is_null_sensor_data>
  3a:	9003      	str	r0, [sp, #12]
  3c:	e7ff      	b.n	3e <_ZN5mylib13listen_sensor16read_temperature17h53480a57fcc5ca50E+0x3e>
  3e:	9803      	ldr	r0, [sp, #12]
  40:	07c1      	lsls	r1, r0, #31
  42:	2900      	cmp	r1, #0
  44:	d007      	beq.n	56 <_ZN5mylib13listen_sensor16read_temperature17h53480a57fcc5ca50E+0x56>
  46:	e7ff      	b.n	48 <_ZN5mylib13listen_sensor16read_temperature17h53480a57fcc5ca50E+0x48>
  48:	f06f 0001 	mvn.w	r0, #1
  4c:	900c      	str	r0, [sp, #48]	; 0x30
  4e:	e7ff      	b.n	50 <_ZN5mylib13listen_sensor16read_temperature17h53480a57fcc5ca50E+0x50>
/Users/Luppy/mynewt/stm32bluepill-mynewt-sensor/src/listen_sensor.rs:107
        }
        assert!(rc == 0);
        //#endif  //  MYNEWT_VAL(SENSOR_COAP)
    }
    0
}
  50:	980c      	ldr	r0, [sp, #48]	; 0x30
  52:	b016      	add	sp, #88	; 0x58
  54:	bdb0      	pop	{r4, r5, r7, pc}
/Users/Luppy/mynewt/stm32bluepill-mynewt-sensor/src/listen_sensor.rs:76
        assert!(!is_null_sensor(sensor));
  56:	9807      	ldr	r0, [sp, #28]
  58:	f7ff fffe 	bl	0 <is_null_sensor>
  5c:	9002      	str	r0, [sp, #8]
  5e:	e7ff      	b.n	60 <_ZN5mylib13listen_sensor16read_temperature17h53480a57fcc5ca50E+0x60>
  60:	9802      	ldr	r0, [sp, #8]
  62:	07c1      	lsls	r1, r0, #31
  64:	2900      	cmp	r1, #0
  66:	d007      	beq.n	78 <_ZN5mylib13listen_sensor16read_temperature17h53480a57fcc5ca50E+0x78>
  68:	e7ff      	b.n	6a <_ZN5mylib13listen_sensor16read_temperature17h53480a57fcc5ca50E+0x6a>
  6a:	f240 0000 	movw	r0, #0
  6e:	f2c0 0000 	movt	r0, #0
  72:	f7ff fffe 	bl	0 <_ZN4core9panicking5panic17h53ca63c6ac6312f8E>
  76:	defe      	udf	#254	; 0xfe
/Users/Luppy/mynewt/stm32bluepill-mynewt-sensor/src/listen_sensor.rs:80
        let device = sensor_get_device(sensor);
  78:	9807      	ldr	r0, [sp, #28]
  7a:	f7ff fffe 	bl	0 <sensor_get_device>
  7e:	900d      	str	r0, [sp, #52]	; 0x34
  80:	e7ff      	b.n	82 <_ZN5mylib13listen_sensor16read_temperature17h53480a57fcc5ca50E+0x82>
/Users/Luppy/mynewt/stm32bluepill-mynewt-sensor/src/listen_sensor.rs:81
        let c_buf: *const c_char = device_get_name(device);
  82:	980d      	ldr	r0, [sp, #52]	; 0x34
  84:	f7ff fffe 	bl	0 <device_get_name>
  88:	900e      	str	r0, [sp, #56]	; 0x38
  8a:	e7ff      	b.n	8c <_ZN5mylib13listen_sensor16read_temperature17h53480a57fcc5ca50E+0x8c>
/Users/Luppy/mynewt/stm32bluepill-mynewt-sensor/src/listen_sensor.rs:82
        let device_name: &CStr = CStr::from_ptr(c_buf);
  8c:	980e      	ldr	r0, [sp, #56]	; 0x38
  8e:	f7ff fffe 	bl	0 <_ZN9cstr_core4CStr8from_ptr17ha5d4992c233d069bE>
  92:	9001      	str	r0, [sp, #4]
  94:	9100      	str	r1, [sp, #0]
  96:	e7ff      	b.n	98 <_ZN5mylib13listen_sensor16read_temperature17h53480a57fcc5ca50E+0x98>
  98:	9801      	ldr	r0, [sp, #4]
  9a:	900f      	str	r0, [sp, #60]	; 0x3c
  9c:	9900      	ldr	r1, [sp, #0]
  9e:	9110      	str	r1, [sp, #64]	; 0x40
/Users/Luppy/mynewt/stm32bluepill-mynewt-sensor/src/listen_sensor.rs:86
        let temp_sensor_value = get_temperature(sensor_data, sensor_type);
  a0:	9909      	ldr	r1, [sp, #36]	; 0x24
  a2:	9a0a      	ldr	r2, [sp, #40]	; 0x28
  a4:	9b0b      	ldr	r3, [sp, #44]	; 0x2c
  a6:	a811      	add	r0, sp, #68	; 0x44
  a8:	f7ff fffe 	bl	0 <_ZN5mylib13listen_sensor16read_temperature17h53480a57fcc5ca50E>
  ac:	e7ff      	b.n	ae <_ZN5mylib13listen_sensor16read_temperature17h53480a57fcc5ca50E+0xae>
/Users/Luppy/mynewt/stm32bluepill-mynewt-sensor/src/listen_sensor.rs:87
        assert!(temp_sensor_value.val_type != 0);
  ae:	9812      	ldr	r0, [sp, #72]	; 0x48
  b0:	2800      	cmp	r0, #0
  b2:	d107      	bne.n	c4 <_ZN5mylib13listen_sensor16read_temperature17h53480a57fcc5ca50E+0xc4>
  b4:	e7ff      	b.n	b6 <_ZN5mylib13listen_sensor16read_temperature17h53480a57fcc5ca50E+0xb6>
  b6:	f240 0000 	movw	r0, #0
  ba:	f2c0 0000 	movt	r0, #0
  be:	f7ff fffe 	bl	0 <_ZN4core9panicking5panic17h53ca63c6ac6312f8E>
  c2:	defe      	udf	#254	; 0xfe
/Users/Luppy/mynewt/stm32bluepill-mynewt-sensor/src/listen_sensor.rs:88
        if temp_sensor_value.val_type == 0 { return -1; }  //  Invalid type.
  c4:	9812      	ldr	r0, [sp, #72]	; 0x48
  c6:	2800      	cmp	r0, #0
  c8:	d105      	bne.n	d6 <_ZN5mylib13listen_sensor16read_temperature17h53480a57fcc5ca50E+0xd6>
  ca:	e7ff      	b.n	cc <_ZN5mylib13listen_sensor16read_temperature17h53480a57fcc5ca50E+0xcc>
  cc:	f04f 30ff 	mov.w	r0, #4294967295	; 0xffffffff
  d0:	900c      	str	r0, [sp, #48]	; 0x30
  d2:	e7ff      	b.n	d4 <_ZN5mylib13listen_sensor16read_temperature17h53480a57fcc5ca50E+0xd4>
  d4:	e7bc      	b.n	50 <_ZN5mylib13listen_sensor16read_temperature17h53480a57fcc5ca50E+0x50>
/Users/Luppy/mynewt/stm32bluepill-mynewt-sensor/src/listen_sensor.rs:95
        let rc = send_sensor_data(&temp_sensor_value, device_name);
  d6:	990f      	ldr	r1, [sp, #60]	; 0x3c
  d8:	9a10      	ldr	r2, [sp, #64]	; 0x40
  da:	a811      	add	r0, sp, #68	; 0x44
  dc:	f7ff fffe 	bl	0 <_ZN5mylib9send_coap16send_sensor_data17h981b71f6817e0654E>
  e0:	9015      	str	r0, [sp, #84]	; 0x54
  e2:	e7ff      	b.n	e4 <_ZN5mylib13listen_sensor16read_temperature17h53480a57fcc5ca50E+0xe4>
/Users/Luppy/mynewt/stm32bluepill-mynewt-sensor/src/listen_sensor.rs:99
        if rc == SYS_EAGAIN {
  e4:	9815      	ldr	r0, [sp, #84]	; 0x54
  e6:	3006      	adds	r0, #6
  e8:	2800      	cmp	r0, #0
  ea:	d10b      	bne.n	104 <_ZN5mylib13listen_sensor16read_temperature17h53480a57fcc5ca50E+0x104>
  ec:	e7ff      	b.n	ee <_ZN5mylib13listen_sensor16read_temperature17h53480a57fcc5ca50E+0xee>
/Users/Luppy/mynewt/stm32bluepill-mynewt-sensor/src/listen_sensor.rs:100
            console_print(b"TMP network not ready\n");
  ee:	f240 0000 	movw	r0, #0
  f2:	f2c0 0000 	movt	r0, #0
  f6:	2116      	movs	r1, #22
  f8:	f7ff fffe 	bl	0 <_ZN5mylib4base13console_print17h7239bde54deb9f31E>
  fc:	e7ff      	b.n	fe <_ZN5mylib13listen_sensor16read_temperature17h53480a57fcc5ca50E+0xfe>
  fe:	2000      	movs	r0, #0
/Users/Luppy/mynewt/stm32bluepill-mynewt-sensor/src/listen_sensor.rs:101
            return 0; 
 100:	900c      	str	r0, [sp, #48]	; 0x30
 102:	e7e7      	b.n	d4 <_ZN5mylib13listen_sensor16read_temperature17h53480a57fcc5ca50E+0xd4>
/Users/Luppy/mynewt/stm32bluepill-mynewt-sensor/src/listen_sensor.rs:103
        assert!(rc == 0);
 104:	9815      	ldr	r0, [sp, #84]	; 0x54
 106:	2800      	cmp	r0, #0
 108:	d007      	beq.n	11a <_ZN5mylib13listen_sensor16read_temperature17h53480a57fcc5ca50E+0x11a>
 10a:	e7ff      	b.n	10c <_ZN5mylib13listen_sensor16read_temperature17h53480a57fcc5ca50E+0x10c>
 10c:	f240 0000 	movw	r0, #0
 110:	f2c0 0000 	movt	r0, #0
 114:	f7ff fffe 	bl	0 <_ZN4core9panicking5panic17h53ca63c6ac6312f8E>
 118:	defe      	udf	#254	; 0xfe
 11a:	2000      	movs	r0, #0
/Users/Luppy/mynewt/stm32bluepill-mynewt-sensor/src/listen_sensor.rs:106
    0
 11c:	900c      	str	r0, [sp, #48]	; 0x30
/Users/Luppy/mynewt/stm32bluepill-mynewt-sensor/src/listen_sensor.rs:107
}
 11e:	e797      	b.n	50 <_ZN5mylib13listen_sensor16read_temperature17h53480a57fcc5ca50E+0x50>

Disassembly of section .text._ZN5mylib13listen_sensor15get_temperature17h42fabeac78d97520E:

00000000 <_ZN5mylib13listen_sensor15get_temperature17h42fabeac78d97520E>:
_ZN5mylib13listen_sensor15get_temperature17h42fabeac78d97520E():
/Users/Luppy/mynewt/stm32bluepill-mynewt-sensor/src/listen_sensor.rs:112

///  Get the temperature value, raw or computed.  `sensor_data` contains the raw or computed temperature. 
///  `sensor_type` indicates whether `sensor_data` contains raw or computed temperature.  We return 
///  the raw or computed temperature, as well as the key and value type.
fn get_temperature(sensor_data: *const CVoid, sensor_type: SensorType) -> SensorValue {
   0:	b510      	push	{r4, lr}
   2:	b096      	sub	sp, #88	; 0x58
   4:	469c      	mov	ip, r3
   6:	4696      	mov	lr, r2
   8:	460c      	mov	r4, r1
   a:	9105      	str	r1, [sp, #20]
   c:	9307      	str	r3, [sp, #28]
   e:	9206      	str	r2, [sp, #24]
/Users/Luppy/mynewt/stm32bluepill-mynewt-sensor/src/listen_sensor.rs:114
    let mut return_value = SensorValue {
        key: b"\0".as_ptr(),
  10:	f240 0100 	movw	r1, #0
  14:	f2c0 0100 	movt	r1, #0
  18:	2201      	movs	r2, #1
  1a:	9004      	str	r0, [sp, #16]
  1c:	4608      	mov	r0, r1
  1e:	4611      	mov	r1, r2
  20:	f8cd c00c 	str.w	ip, [sp, #12]
  24:	f8cd e008 	str.w	lr, [sp, #8]
  28:	9401      	str	r4, [sp, #4]
  2a:	f7ff fffe 	bl	0 <_ZN4core5slice29_$LT$impl$u20$$u5b$T$u5d$$GT$6as_ptr17hd0263209417be61aE>
  2e:	9000      	str	r0, [sp, #0]
  30:	e7ff      	b.n	32 <_ZN5mylib13listen_sensor15get_temperature17h42fabeac78d97520E+0x32>
/Users/Luppy/mynewt/stm32bluepill-mynewt-sensor/src/listen_sensor.rs:113
    let mut return_value = SensorValue {
  32:	9800      	ldr	r0, [sp, #0]
  34:	9009      	str	r0, [sp, #36]	; 0x24
  36:	2100      	movs	r1, #0
  38:	910a      	str	r1, [sp, #40]	; 0x28
  3a:	f8ad 102c 	strh.w	r1, [sp, #44]	; 0x2c
  3e:	910c      	str	r1, [sp, #48]	; 0x30
/Users/Luppy/mynewt/stm32bluepill-mynewt-sensor/src/listen_sensor.rs:122
        float_val: 0.0,
    };
    unsafe {
        //assert!(sensor_data);
        match sensor_type {                                //  Is this raw or computed temperature?
            SENSOR_TYPE_AMBIENT_TEMPERATURE_RAW => {  //  If this is raw temperature...
  40:	9906      	ldr	r1, [sp, #24]
  42:	9a07      	ldr	r2, [sp, #28]
  44:	f081 6180 	eor.w	r1, r1, #67108864	; 0x4000000
  48:	4311      	orrs	r1, r2
  4a:	2900      	cmp	r1, #0
  4c:	d138      	bne.n	c0 <_ZN5mylib13listen_sensor15get_temperature17h42fabeac78d97520E+0xc0>
  4e:	e7ff      	b.n	50 <_ZN5mylib13listen_sensor15get_temperature17h42fabeac78d97520E+0x50>
  50:	2000      	movs	r0, #0
/Users/Luppy/mynewt/stm32bluepill-mynewt-sensor/src/listen_sensor.rs:124
                //  Interpret the sensor data as a sensor_temp_raw_data struct that contains raw temp.
                let mut rawtempdata = SensorTempRawData {
  52:	900d      	str	r0, [sp, #52]	; 0x34
  54:	f88d 0038 	strb.w	r0, [sp, #56]	; 0x38
/Users/Luppy/mynewt/stm32bluepill-mynewt-sensor/src/listen_sensor.rs:128
                    strd_temp_raw: 0,
                    strd_temp_raw_is_valid: 0,
                };
                let rc = get_temp_raw_data(sensor_data, &mut rawtempdata);
  58:	9805      	ldr	r0, [sp, #20]
  5a:	a90d      	add	r1, sp, #52	; 0x34
  5c:	f7ff fffe 	bl	0 <get_temp_raw_data>
  60:	900f      	str	r0, [sp, #60]	; 0x3c
  62:	e7ff      	b.n	64 <_ZN5mylib13listen_sensor15get_temperature17h42fabeac78d97520E+0x64>
/Users/Luppy/mynewt/stm32bluepill-mynewt-sensor/src/listen_sensor.rs:129
                assert!(rc == 0);
  64:	980f      	ldr	r0, [sp, #60]	; 0x3c
  66:	2800      	cmp	r0, #0
  68:	d007      	beq.n	7a <_ZN5mylib13listen_sensor15get_temperature17h42fabeac78d97520E+0x7a>
  6a:	e7ff      	b.n	6c <_ZN5mylib13listen_sensor15get_temperature17h42fabeac78d97520E+0x6c>
  6c:	f240 0000 	movw	r0, #0
  70:	f2c0 0000 	movt	r0, #0
  74:	f7ff fffe 	bl	0 <_ZN4core9panicking5panic17h53ca63c6ac6312f8E>
  78:	defe      	udf	#254	; 0xfe
/Users/Luppy/mynewt/stm32bluepill-mynewt-sensor/src/listen_sensor.rs:132

                //  Check that the raw temperature data is valid.
                if rawtempdata.strd_temp_raw_is_valid == 0 { return return_value; }  //  Exit if data is not valid
  7a:	f89d 0038 	ldrb.w	r0, [sp, #56]	; 0x38
  7e:	2800      	cmp	r0, #0
  80:	d112      	bne.n	a8 <_ZN5mylib13listen_sensor15get_temperature17h42fabeac78d97520E+0xa8>
  82:	e7ff      	b.n	84 <_ZN5mylib13listen_sensor15get_temperature17h42fabeac78d97520E+0x84>
  84:	9809      	ldr	r0, [sp, #36]	; 0x24
  86:	990a      	ldr	r1, [sp, #40]	; 0x28
  88:	9a0b      	ldr	r2, [sp, #44]	; 0x2c
  8a:	9b0c      	ldr	r3, [sp, #48]	; 0x30
  8c:	f8dd c010 	ldr.w	ip, [sp, #16]
  90:	f8cc 300c 	str.w	r3, [ip, #12]
  94:	f8cc 2008 	str.w	r2, [ip, #8]
  98:	f8cc 1004 	str.w	r1, [ip, #4]
  9c:	f8cc 0000 	str.w	r0, [ip]
  a0:	e001      	b.n	a6 <_ZN5mylib13listen_sensor15get_temperature17h42fabeac78d97520E+0xa6>
/Users/Luppy/mynewt/stm32bluepill-mynewt-sensor/src/listen_sensor.rs:168
        //  Return the key and value type for raw or computed temperature, as defined in temp_stm32.h.
        return_value.key = TEMP_SENSOR_KEY;
        return_value.val_type = TEMP_SENSOR_VALUE_TYPE;
    };
    return_value
}
  a2:	b016      	add	sp, #88	; 0x58
  a4:	bd10      	pop	{r4, pc}
/Users/Luppy/mynewt/stm32bluepill-mynewt-sensor/src/listen_sensor.rs:132
                if rawtempdata.strd_temp_raw_is_valid == 0 { return return_value; }  //  Exit if data is not valid
  a6:	e7fc      	b.n	a2 <_ZN5mylib13listen_sensor15get_temperature17h42fabeac78d97520E+0xa2>
/Users/Luppy/mynewt/stm32bluepill-mynewt-sensor/src/listen_sensor.rs:135
                return_value.int_val = rawtempdata.strd_temp_raw as u16;  //  Raw Temperature in integer (0 to 4095)
  a8:	980d      	ldr	r0, [sp, #52]	; 0x34
  aa:	f8ad 002c 	strh.w	r0, [sp, #44]	; 0x2c
/Users/Luppy/mynewt/stm32bluepill-mynewt-sensor/src/listen_sensor.rs:136
                console_print(b"TMP listener got rawtmp \n");  // return_value->int_val);
  ae:	f240 0000 	movw	r0, #0
  b2:	f2c0 0000 	movt	r0, #0
  b6:	2119      	movs	r1, #25
  b8:	f7ff fffe 	bl	0 <_ZN5mylib4base13console_print17h7239bde54deb9f31E>
  bc:	e7ff      	b.n	be <_ZN5mylib13listen_sensor15get_temperature17h42fabeac78d97520E+0xbe>
/Users/Luppy/mynewt/stm32bluepill-mynewt-sensor/src/listen_sensor.rs:121
        match sensor_type {                                //  Is this raw or computed temperature?
  be:	e02f      	b.n	120 <_ZN5mylib13listen_sensor15get_temperature17h42fabeac78d97520E+0x120>
/Users/Luppy/mynewt/stm32bluepill-mynewt-sensor/src/listen_sensor.rs:138
            SENSOR_TYPE_AMBIENT_TEMPERATURE => {      //  If this is computed temperature...
  c0:	9806      	ldr	r0, [sp, #24]
  c2:	9907      	ldr	r1, [sp, #28]
  c4:	9111      	str	r1, [sp, #68]	; 0x44
  c6:	9010      	str	r0, [sp, #64]	; 0x40
  c8:	2000      	movs	r0, #0
/Users/Luppy/mynewt/stm32bluepill-mynewt-sensor/src/listen_sensor.rs:140
                let mut tempdata = SensorTempData {
  ca:	9013      	str	r0, [sp, #76]	; 0x4c
  cc:	f88d 0050 	strb.w	r0, [sp, #80]	; 0x50
/Users/Luppy/mynewt/stm32bluepill-mynewt-sensor/src/listen_sensor.rs:144
                let rc = get_temp_data(sensor_data, &mut tempdata);
  d0:	9805      	ldr	r0, [sp, #20]
  d2:	a913      	add	r1, sp, #76	; 0x4c
  d4:	f7ff fffe 	bl	0 <get_temp_data>
  d8:	9015      	str	r0, [sp, #84]	; 0x54
  da:	e7ff      	b.n	dc <_ZN5mylib13listen_sensor15get_temperature17h42fabeac78d97520E+0xdc>
/Users/Luppy/mynewt/stm32bluepill-mynewt-sensor/src/listen_sensor.rs:145
                assert!(rc == 0);
  dc:	9815      	ldr	r0, [sp, #84]	; 0x54
  de:	2800      	cmp	r0, #0
  e0:	d007      	beq.n	f2 <_ZN5mylib13listen_sensor15get_temperature17h42fabeac78d97520E+0xf2>
  e2:	e7ff      	b.n	e4 <_ZN5mylib13listen_sensor15get_temperature17h42fabeac78d97520E+0xe4>
  e4:	f240 0000 	movw	r0, #0
  e8:	f2c0 0000 	movt	r0, #0
  ec:	f7ff fffe 	bl	0 <_ZN4core9panicking5panic17h53ca63c6ac6312f8E>
  f0:	defe      	udf	#254	; 0xfe
/Users/Luppy/mynewt/stm32bluepill-mynewt-sensor/src/listen_sensor.rs:148
                if tempdata.std_temp_is_valid == 0 { return return_value; }  //  Exit if data is not valid
  f2:	f89d 0050 	ldrb.w	r0, [sp, #80]	; 0x50
  f6:	2800      	cmp	r0, #0
  f8:	d10f      	bne.n	11a <_ZN5mylib13listen_sensor15get_temperature17h42fabeac78d97520E+0x11a>
  fa:	e7ff      	b.n	fc <_ZN5mylib13listen_sensor15get_temperature17h42fabeac78d97520E+0xfc>
  fc:	9809      	ldr	r0, [sp, #36]	; 0x24
  fe:	990a      	ldr	r1, [sp, #40]	; 0x28
 100:	9a0b      	ldr	r2, [sp, #44]	; 0x2c
 102:	9b0c      	ldr	r3, [sp, #48]	; 0x30
 104:	f8dd c010 	ldr.w	ip, [sp, #16]
 108:	f8cc 300c 	str.w	r3, [ip, #12]
 10c:	f8cc 2008 	str.w	r2, [ip, #8]
 110:	f8cc 1004 	str.w	r1, [ip, #4]
 114:	f8cc 0000 	str.w	r0, [ip]
 118:	e7c5      	b.n	a6 <_ZN5mylib13listen_sensor15get_temperature17h42fabeac78d97520E+0xa6>
/Users/Luppy/mynewt/stm32bluepill-mynewt-sensor/src/listen_sensor.rs:151
                return_value.float_val = tempdata.std_temp;  //  Temperature in floating point.
 11a:	9813      	ldr	r0, [sp, #76]	; 0x4c
 11c:	900c      	str	r0, [sp, #48]	; 0x30
/Users/Luppy/mynewt/stm32bluepill-mynewt-sensor/src/listen_sensor.rs:121
        match sensor_type {                                //  Is this raw or computed temperature?
 11e:	e7ff      	b.n	120 <_ZN5mylib13listen_sensor15get_temperature17h42fabeac78d97520E+0x120>
/Users/Luppy/mynewt/stm32bluepill-mynewt-sensor/src/listen_sensor.rs:164
        return_value.key = TEMP_SENSOR_KEY;
 120:	f240 0000 	movw	r0, #0
 124:	f2c0 0000 	movt	r0, #0
 128:	9009      	str	r0, [sp, #36]	; 0x24
 12a:	2001      	movs	r0, #1
/Users/Luppy/mynewt/stm32bluepill-mynewt-sensor/src/listen_sensor.rs:165
        return_value.val_type = TEMP_SENSOR_VALUE_TYPE;
 12c:	900a      	str	r0, [sp, #40]	; 0x28
/Users/Luppy/mynewt/stm32bluepill-mynewt-sensor/src/listen_sensor.rs:167
    return_value
 12e:	9809      	ldr	r0, [sp, #36]	; 0x24
 130:	990a      	ldr	r1, [sp, #40]	; 0x28
 132:	9a0b      	ldr	r2, [sp, #44]	; 0x2c
 134:	9b0c      	ldr	r3, [sp, #48]	; 0x30
 136:	f8dd c010 	ldr.w	ip, [sp, #16]
 13a:	f8cc 300c 	str.w	r3, [ip, #12]
 13e:	f8cc 2008 	str.w	r2, [ip, #8]
 142:	f8cc 1004 	str.w	r1, [ip, #4]
 146:	f8cc 0000 	str.w	r0, [ip]
/Users/Luppy/mynewt/stm32bluepill-mynewt-sensor/src/listen_sensor.rs:168
}
 14a:	e7aa      	b.n	a2 <_ZN5mylib13listen_sensor15get_temperature17h42fabeac78d97520E+0xa2>

mylib-50794855a3f9698d.509tcgk6983yrx6c.rcgu.o:     file format elf32-littlearm

SYMBOL TABLE:
00000000 l    df *ABS*	00000000 509tcgk6983yrx6c
00000309 l       .debug_str	00000000 
0000037e l       .debug_str	00000000 
0000039a l       .debug_str	00000000 
000003a4 l       .debug_str	00000000 
000003be l       .debug_str	00000000 
0000041c l       .debug_str	00000000 
00000427 l       .debug_str	00000000 
00000444 l       .debug_str	00000000 
0000045d l       .debug_str	00000000 
00000467 l       .debug_str	00000000 
0000047d l       .debug_str	00000000 
0000049b l       .debug_str	00000000 
000004a4 l       .debug_str	00000000 
000004a9 l       .debug_str	00000000 
000004ae l       .debug_str	00000000 
000004b2 l       .debug_str	00000000 
000004bb l       .debug_str	00000000 
000004c5 l       .debug_str	00000000 
000004dd l       .debug_str	00000000 
00000000 l       .debug_str	00000000 
00000041 l       .debug_str	00000000 
0000004c l       .debug_str	00000000 
0000007c l       .debug_str	00000000 
00000081 l       .debug_str	00000000 
00000085 l       .debug_str	00000000 
00000088 l       .debug_str	00000000 
0000008b l       .debug_str	00000000 
0000008e l       .debug_str	00000000 
00000093 l       .debug_str	00000000 
00000099 l       .debug_str	00000000 
000000a0 l       .debug_str	00000000 
000000a8 l       .debug_str	00000000 
000000b2 l       .debug_str	00000000 
000000b9 l       .debug_str	00000000 
000000bc l       .debug_str	00000000 
000000c0 l       .debug_str	00000000 
000000c7 l       .debug_str	00000000 
000000cd l       .debug_str	00000000 
000000d2 l       .debug_str	00000000 
000000d4 l       .debug_str	00000000 
000000e6 l       .debug_str	00000000 
000000ec l       .debug_str	00000000 
000000f0 l       .debug_str	00000000 
000000f4 l       .debug_str	00000000 
000000f8 l       .debug_str	00000000 
000000fd l       .debug_str	00000000 
00000105 l       .debug_str	00000000 
00000109 l       .debug_str	00000000 
00000111 l       .debug_str	00000000 
00000119 l       .debug_str	00000000 
00000120 l       .debug_str	00000000 
00000126 l       .debug_str	00000000 
0000013a l       .debug_str	00000000 
00000146 l       .debug_str	00000000 
0000014b l       .debug_str	00000000 
00000153 l       .debug_str	00000000 
0000015a l       .debug_str	00000000 
0000015e l       .debug_str	00000000 
00000163 l       .debug_str	00000000 
0000016a l       .debug_str	00000000 
00000173 l       .debug_str	00000000 
0000017d l       .debug_str	00000000 
00000184 l       .debug_str	00000000 
00000189 l       .debug_str	00000000 
00000195 l       .debug_str	00000000 
0000019d l       .debug_str	00000000 
000001a6 l       .debug_str	00000000 
000001ab l       .debug_str	00000000 
000001ae l       .debug_str	00000000 
000001b2 l       .debug_str	00000000 
000001bb l       .debug_str	00000000 
000001c2 l       .debug_str	00000000 
000001c7 l       .debug_str	00000000 
000001cc l       .debug_str	00000000 
000001d2 l       .debug_str	00000000 
000001d8 l       .debug_str	00000000 
000001e2 l       .debug_str	00000000 
000001e5 l       .debug_str	00000000 
000001eb l       .debug_str	00000000 
000001f5 l       .debug_str	00000000 
000001fd l       .debug_str	00000000 
00000203 l       .debug_str	00000000 
00000209 l       .debug_str	00000000 
00000214 l       .debug_str	00000000 
0000021d l       .debug_str	00000000 
00000240 l       .debug_str	00000000 
0000025f l       .debug_str	00000000 
00000261 l       .debug_str	00000000 
00000266 l       .debug_str	00000000 
0000028d l       .debug_str	00000000 
00000292 l       .debug_str	00000000 
00000298 l       .debug_str	00000000 
0000029e l       .debug_str	00000000 
000002a1 l       .debug_str	00000000 
000002b0 l       .debug_str	00000000 
000002b7 l       .debug_str	00000000 
000002bb l       .debug_str	00000000 
000002c4 l       .debug_str	00000000 
000002d0 l       .debug_str	00000000 
000002e9 l       .debug_str	00000000 
000002ee l       .debug_str	00000000 
000002ff l       .debug_str	00000000 
00000317 l       .debug_str	00000000 
0000031b l       .debug_str	00000000 
00000326 l       .debug_str	00000000 
0000032d l       .debug_str	00000000 
00000333 l       .debug_str	00000000 
00000337 l       .debug_str	00000000 
0000033b l       .debug_str	00000000 
00000343 l       .debug_str	00000000 
0000035a l       .debug_str	00000000 
00000000 l     O .rodata..Lanon.3ed011473997af99b525cde47c9eaaac.2	00000018 .Lanon.3ed011473997af99b525cde47c9eaaac.2
00000000 l     O .rodata..Lanon.3ed011473997af99b525cde47c9eaaac.4	00000018 .Lanon.3ed011473997af99b525cde47c9eaaac.4
00000000 l     O .rodata..Lanon.3ed011473997af99b525cde47c9eaaac.5	00000012 .Lanon.3ed011473997af99b525cde47c9eaaac.5
00000000 l     O .rodata..Lanon.3ed011473997af99b525cde47c9eaaac.6	00000009 .Lanon.3ed011473997af99b525cde47c9eaaac.6
00000000 l     O .rodata.cst8	00000008 .Lanon.3ed011473997af99b525cde47c9eaaac.7
00000000 l     O .rodata..Lanon.3ed011473997af99b525cde47c9eaaac.8	00000001 .Lanon.3ed011473997af99b525cde47c9eaaac.8
00000000 l    d  .text.main	00000000 .text.main
00000000 l    d  .text.rust_begin_unwind	00000000 .text.rust_begin_unwind
00000000 l    d  .rodata..Lanon.3ed011473997af99b525cde47c9eaaac.0	00000000 .rodata..Lanon.3ed011473997af99b525cde47c9eaaac.0
00000000 l    d  .rodata..Lanon.3ed011473997af99b525cde47c9eaaac.1	00000000 .rodata..Lanon.3ed011473997af99b525cde47c9eaaac.1
00000000 l    d  .rodata..Lanon.3ed011473997af99b525cde47c9eaaac.3	00000000 .rodata..Lanon.3ed011473997af99b525cde47c9eaaac.3
00000000 l    d  .debug_abbrev	00000000 .debug_abbrev
00000000 l    d  .debug_info	00000000 .debug_info
00000000 l    d  .debug_ranges	00000000 .debug_ranges
00000000 l    d  .debug_frame	00000000 .debug_frame
00000000 l    d  .debug_line	00000000 .debug_line
00000000         *UND*	00000000 .hidden _ZN4core3str21_$LT$impl$u20$str$GT$3len17h479876f0ed8d2071E
00000000         *UND*	00000000 .hidden _ZN4core3str21_$LT$impl$u20$str$GT$6as_ptr17habe097c6f7775d95E
00000000         *UND*	00000000 _ZN4core5panic8Location4file17h94cc6af18de736c4E
00000000         *UND*	00000000 _ZN4core5panic8Location4line17h3ffc63f14d0a6636E
00000000         *UND*	00000000 _ZN4core5panic9PanicInfo8location17h5226165d8771f8a2E
00000000         *UND*	00000000 _ZN4core9panicking5panic17h53ca63c6ac6312f8E
00000000         *UND*	00000000 .hidden _ZN5mylib13listen_sensor21start_sensor_listener17h2b855ed9b04189dfE
00000000         *UND*	00000000 .hidden _ZN5mylib4base13console_print17h7239bde54deb9f31E
00000000         *UND*	00000000 .hidden _ZN5mylib9send_coap18start_network_task17ha418a4938a3513c8E
00000000         *UND*	00000000 console_buffer
00000000         *UND*	00000000 console_flush
00000000         *UND*	00000000 console_printhex
00000000 g     F .text.main	0000005e main
00000000         *UND*	00000000 os_eventq_dflt_get
00000000         *UND*	00000000 os_eventq_run
00000000 g     F .text.rust_begin_unwind	000000b2 rust_begin_unwind
00000000         *UND*	00000000 rust_sysinit



Disassembly of section .text.main:

00000000 <main>:
main():
/Users/Luppy/mynewt/stm32bluepill-mynewt-sensor/src/lib.rs:20
use crate::listen_sensor::*;    //  Import listen_sensor.rs for polling the temperature sensor
use crate::send_coap::*;        //  Import send_coap.rs for sending sensor data

///  main() will be called at Mynewt startup. It replaces the C version of the main() function.
#[no_mangle]                     //  Don't mangle the name "main"
pub extern "C" fn main() -> ! {  //  Declare extern "C" because it will be called by Mynewt
   0:	b084      	sub	sp, #16
/Users/Luppy/mynewt/stm32bluepill-mynewt-sensor/src/lib.rs:23
    unsafe {
        //  Init Mynewt system.
        rust_sysinit();
   2:	f7ff fffe 	bl	0 <rust_sysinit>
   6:	e7ff      	b.n	2 <console_flush+0x2>
/Users/Luppy/mynewt/stm32bluepill-mynewt-sensor/src/lib.rs:24
        console_flush();
   8:	f7ff fffe 	bl	0 <console_flush>
   c:	e7ff      	b.n	2 <_ZN5mylib9send_coap18start_network_task17ha418a4938a3513c8E+0x2>
/Users/Luppy/mynewt/stm32bluepill-mynewt-sensor/src/lib.rs:29

        //  Start the Network Task in the background.  The Network Task prepares the ESP8266 or nRF24L01 transceiver for
        //  sending CoAP messages.  We connect the ESP8266 to the WiFi access point and register
        //  the ESP8266/nRF24L01 driver as the network transport for CoAP.  Also perform WiFi Geolocation if it is enabled.
        let rc1 = start_network_task();  assert!(rc1 == 0);
   e:	f7ff fffe 	bl	0 <_ZN5mylib9send_coap18start_network_task17ha418a4938a3513c8E>
  12:	9002      	str	r0, [sp, #8]
  14:	e7ff      	b.n	16 <main+0x16>
  16:	9802      	ldr	r0, [sp, #8]
  18:	2800      	cmp	r0, #0
  1a:	d007      	beq.n	2c <main+0x2c>
  1c:	e7ff      	b.n	1e <main+0x1e>
  1e:	f240 0000 	movw	r0, #0
  22:	f2c0 0000 	movt	r0, #0
  26:	f7ff fffe 	bl	0 <_ZN4core9panicking5panic17h53ca63c6ac6312f8E>
  2a:	defe      	udf	#254	; 0xfe
/Users/Luppy/mynewt/stm32bluepill-mynewt-sensor/src/lib.rs:34

        //  Starting polling the temperature sensor every 10 seconds in the background.  
        //  After polling the sensor, call the listener function to send the sensor data to the CoAP server or Collector Node.
        //  If this is the Collector Node, we shall wait for sensor data from the Sensor Nodes and transmit to the CoAP server.
        let rc2 = start_sensor_listener();  assert!(rc2 == 0);
  2c:	f7ff fffe 	bl	0 <_ZN5mylib13listen_sensor21start_sensor_listener17h2b855ed9b04189dfE>
  30:	9003      	str	r0, [sp, #12]
  32:	e7ff      	b.n	34 <main+0x34>
  34:	9803      	ldr	r0, [sp, #12]
  36:	2800      	cmp	r0, #0
  38:	d007      	beq.n	4a <main+0x4a>
  3a:	e7ff      	b.n	3c <main+0x3c>
  3c:	f240 0000 	movw	r0, #0
  40:	f2c0 0000 	movt	r0, #0
  44:	f7ff fffe 	bl	0 <_ZN4core9panicking5panic17h53ca63c6ac6312f8E>
  48:	defe      	udf	#254	; 0xfe
/Users/Luppy/mynewt/stm32bluepill-mynewt-sensor/src/lib.rs:37

        //  Main event loop
        loop {                        //  Loop forever...
  4a:	e7ff      	b.n	4c <main+0x4c>
/Users/Luppy/mynewt/stm32bluepill-mynewt-sensor/src/lib.rs:39
            os_eventq_run(            //  Process events...
                os_eventq_dflt_get()  //  From default event queue.
  4c:	f7ff fffe 	bl	0 <os_eventq_dflt_get>
  50:	9001      	str	r0, [sp, #4]
  52:	e7ff      	b.n	54 <main+0x54>
/Users/Luppy/mynewt/stm32bluepill-mynewt-sensor/src/lib.rs:38
            os_eventq_run(            //  Process events...
  54:	9801      	ldr	r0, [sp, #4]
  56:	f7ff fffe 	bl	0 <os_eventq_run>
  5a:	e7ff      	b.n	5c <main+0x5c>
/Users/Luppy/mynewt/stm32bluepill-mynewt-sensor/src/lib.rs:37
        loop {                        //  Loop forever...
  5c:	e7f6      	b.n	4c <main+0x4c>

Disassembly of section .text.rust_begin_unwind:

00000000 <rust_begin_unwind>:
rust_begin_unwind():
/Users/Luppy/mynewt/stm32bluepill-mynewt-sensor/src/lib.rs:48
    //  Never comes here.
}

///  This function is called on panic, like an assertion failure. Set a breakpoint here to see the panic details. From https://os.phil-opp.com/freestanding-rust-binary/
#[panic_handler]
fn panic(info: &PanicInfo) -> ! {
   0:	b08a      	sub	sp, #40	; 0x28
   2:	4601      	mov	r1, r0
   4:	9003      	str	r0, [sp, #12]
/Users/Luppy/mynewt/stm32bluepill-mynewt-sensor/src/lib.rs:50
    //  Display the filename and line number to the Semihosting Console.
    if let Some(location) = info.location() {
   6:	9803      	ldr	r0, [sp, #12]
   8:	9102      	str	r1, [sp, #8]
   a:	f7ff fffe 	bl	0 <_ZN4core5panic9PanicInfo8location17h5226165d8771f8a2E>
   e:	9005      	str	r0, [sp, #20]
  10:	e7ff      	b.n	12 <rust_begin_unwind+0x12>
  12:	9805      	ldr	r0, [sp, #20]
  14:	2800      	cmp	r0, #0
  16:	d03f      	beq.n	98 <rust_begin_unwind+0x98>
  18:	e7ff      	b.n	1a <rust_begin_unwind+0x1a>
  1a:	9805      	ldr	r0, [sp, #20]
  1c:	9006      	str	r0, [sp, #24]
/Users/Luppy/mynewt/stm32bluepill-mynewt-sensor/src/lib.rs:51
        let file = location.file();
  1e:	9806      	ldr	r0, [sp, #24]
  20:	f7ff fffe 	bl	0 <_ZN4core5panic8Location4file17h94cc6af18de736c4E>
  24:	9108      	str	r1, [sp, #32]
  26:	9007      	str	r0, [sp, #28]
  28:	e7ff      	b.n	2a <rust_begin_unwind+0x2a>
/Users/Luppy/mynewt/stm32bluepill-mynewt-sensor/src/lib.rs:52
        let line = location.line();
  2a:	9806      	ldr	r0, [sp, #24]
  2c:	f7ff fffe 	bl	0 <_ZN4core5panic8Location4line17h3ffc63f14d0a6636E>
  30:	9009      	str	r0, [sp, #36]	; 0x24
  32:	e7ff      	b.n	34 <rust_begin_unwind+0x34>
/Users/Luppy/mynewt/stm32bluepill-mynewt-sensor/src/lib.rs:53
        console_print(b"panic at ");
  34:	f240 0000 	movw	r0, #0
  38:	f2c0 0000 	movt	r0, #0
  3c:	2109      	movs	r1, #9
  3e:	f7ff fffe 	bl	0 <_ZN5mylib4base13console_print17h7239bde54deb9f31E>
  42:	e7ff      	b.n	44 <rust_begin_unwind+0x44>
/Users/Luppy/mynewt/stm32bluepill-mynewt-sensor/src/lib.rs:54
        unsafe { console_buffer(file.as_ptr(), file.len() as u32) }
  44:	9807      	ldr	r0, [sp, #28]
  46:	9908      	ldr	r1, [sp, #32]
  48:	f7ff fffe 	bl	0 <_ZN4core3str21_$LT$impl$u20$str$GT$6as_ptr17habe097c6f7775d95E>
  4c:	9001      	str	r0, [sp, #4]
  4e:	e7ff      	b.n	50 <rust_begin_unwind+0x50>
  50:	9807      	ldr	r0, [sp, #28]
  52:	9908      	ldr	r1, [sp, #32]
  54:	f7ff fffe 	bl	0 <_ZN4core3str21_$LT$impl$u20$str$GT$3len17h479876f0ed8d2071E>
  58:	9000      	str	r0, [sp, #0]
  5a:	e7ff      	b.n	5c <rust_begin_unwind+0x5c>
  5c:	9801      	ldr	r0, [sp, #4]
  5e:	9900      	ldr	r1, [sp, #0]
  60:	f7ff fffe 	bl	0 <console_buffer>
  64:	e7ff      	b.n	2 <rust_begin_unwind+0x2>
/Users/Luppy/mynewt/stm32bluepill-mynewt-sensor/src/lib.rs:55
        console_print(b" line 0x");
  66:	f240 0000 	movw	r0, #0
  6a:	f2c0 0000 	movt	r0, #0
  6e:	2108      	movs	r1, #8
  70:	f7ff fffe 	bl	0 <_ZN5mylib4base13console_print17h7239bde54deb9f31E>
  74:	e7ff      	b.n	76 <rust_begin_unwind+0x76>
/Users/Luppy/mynewt/stm32bluepill-mynewt-sensor/src/lib.rs:56
        unsafe { console_printhex(line as u8) }  //  TODO: Print in decimal not hex. Allow more than 255 lines.
  76:	f89d 0024 	ldrb.w	r0, [sp, #36]	; 0x24
  7a:	f7ff fffe 	bl	0 <console_printhex>
  7e:	e7ff      	b.n	2 <rust_begin_unwind+0x2>
/Users/Luppy/mynewt/stm32bluepill-mynewt-sensor/src/lib.rs:57
        console_print(b"\n");
  80:	f240 0000 	movw	r0, #0
  84:	f2c0 0000 	movt	r0, #0
  88:	2101      	movs	r1, #1
  8a:	f7ff fffe 	bl	0 <_ZN5mylib4base13console_print17h7239bde54deb9f31E>
  8e:	e7ff      	b.n	2 <console_flush+0x2>
/Users/Luppy/mynewt/stm32bluepill-mynewt-sensor/src/lib.rs:58
        unsafe { console_flush() }
  90:	f7ff fffe 	bl	0 <console_flush>
  94:	e7ff      	b.n	96 <rust_begin_unwind+0x96>
/Users/Luppy/mynewt/stm32bluepill-mynewt-sensor/src/lib.rs:50
    if let Some(location) = info.location() {
  96:	e00a      	b.n	ae <rust_begin_unwind+0xae>
/Users/Luppy/mynewt/stm32bluepill-mynewt-sensor/src/lib.rs:60
    } else {
        console_print(b"panic unknown loc\n");
  98:	f240 0000 	movw	r0, #0
  9c:	f2c0 0000 	movt	r0, #0
  a0:	2112      	movs	r1, #18
  a2:	f7ff fffe 	bl	0 <_ZN5mylib4base13console_print17h7239bde54deb9f31E>
  a6:	e7ff      	b.n	2 <console_flush+0x2>
/Users/Luppy/mynewt/stm32bluepill-mynewt-sensor/src/lib.rs:61
        unsafe { console_flush() }
  a8:	f7ff fffe 	bl	0 <console_flush>
  ac:	e7ff      	b.n	ae <rust_begin_unwind+0xae>
/Users/Luppy/mynewt/stm32bluepill-mynewt-sensor/src/lib.rs:63
    }
    loop {}
  ae:	e7ff      	b.n	b0 <rust_begin_unwind+0xb0>
  b0:	e7fe      	b.n	b0 <rust_begin_unwind+0xb0>
